
dgemm_riscv:	file format elf64-littleriscv

Disassembly of section .text:

00000000000120e4 <_start>:
   120e4: 97 e1 00 00  	auipc	gp, 0xe
   120e8: 93 81 c1 29  	addi	gp, gp, 0x29c
   120ec: 17 e5 00 00  	auipc	a0, 0xe
   120f0: 13 05 c5 a9  	addi	a0, a0, -0x564
   120f4: 17 e6 00 00  	auipc	a2, 0xe
   120f8: 13 06 46 36  	addi	a2, a2, 0x364
   120fc: 09 8e        	sub	a2, a2, a0
   120fe: 81 45        	li	a1, 0x0
   12100: ef a0 60 56  	jal	0x1c666 <memset>
   12104: 17 a5 00 00  	auipc	a0, 0xa
   12108: 13 05 05 44  	addi	a0, a0, 0x440
   1210c: ef 10 60 02  	jal	0x13132 <atexit>
   12110: ef a0 a0 3c  	jal	0x1c4da <__libc_init_array>
   12114: 02 45        	lw	a0, 0x0(sp)
   12116: 2c 00        	addi	a1, sp, 0x8
   12118: 01 46        	li	a2, 0x0
   1211a: ef 00 b0 4f  	jal	0x12e14 <main>
   1211e: 6f 10 00 1d  	j	0x132ee <exit>

0000000000012122 <__do_global_dtors_aux>:
   12122: 41 11        	addi	sp, sp, -0x10
   12124: 22 e0        	sd	s0, 0x0(sp)
   12126: 17 e4 00 00  	auipc	s0, 0xe
   1212a: 13 04 94 2a  	addi	s0, s0, 0x2a9
   1212e: 83 47 04 00  	lbu	a5, 0x0(s0)
   12132: 06 e4        	sd	ra, 0x8(sp)
   12134: 99 ef        	bnez	a5, 0x12152 <__do_global_dtors_aux+0x30>
   12136: 97 e7 fe ff  	auipc	a5, 0xfffee
   1213a: 93 87 a7 ec  	addi	a5, a5, -0x136
   1213e: 99 c7        	beqz	a5, 0x1214c <__do_global_dtors_aux+0x2a>
   12140: 17 f5 ff ff  	auipc	a0, 0xfffff
   12144: 13 05 85 ee  	addi	a0, a0, -0x118
   12148: ef 00 00 00  	jal	0x12148 <__do_global_dtors_aux+0x26>
   1214c: 85 47        	li	a5, 0x1
   1214e: 23 00 f4 00  	sb	a5, 0x0(s0)
   12152: a2 60        	ld	ra, 0x8(sp)
   12154: 02 64        	ld	s0, 0x0(sp)
   12156: 41 01        	addi	sp, sp, 0x10
   12158: 82 80        	ret

000000000001215a <frame_dummy>:
   1215a: 97 e7 fe ff  	auipc	a5, 0xfffee
   1215e: 93 87 67 ea  	addi	a5, a5, -0x15a
   12162: 99 cb        	beqz	a5, 0x12178 <frame_dummy+0x1e>
   12164: 97 e5 00 00  	auipc	a1, 0xe
   12168: 93 85 c5 a2  	addi	a1, a1, -0x5d4
   1216c: 17 f5 ff ff  	auipc	a0, 0xfffff
   12170: 13 05 c5 eb  	addi	a0, a0, -0x144
   12174: 6f 00 00 00  	j	0x12174 <frame_dummy+0x1a>
   12178: 82 80        	ret

000000000001217a <scalar_dgemm>:
   1217a: 11 71        	addi	sp, sp, -0x100
   1217c: 86 fd        	sd	ra, 0xf8(sp)
   1217e: a2 f9        	sd	s0, 0xf0(sp)
   12180: a6 f5        	sd	s1, 0xe8(sp)
   12182: ca f1        	sd	s2, 0xe0(sp)
   12184: ce ed        	sd	s3, 0xd8(sp)
   12186: d2 e9        	sd	s4, 0xd0(sp)
   12188: d6 e5        	sd	s5, 0xc8(sp)
   1218a: da e1        	sd	s6, 0xc0(sp)
   1218c: 5e fd        	sd	s7, 0xb8(sp)
   1218e: 62 f9        	sd	s8, 0xb0(sp)
   12190: 66 f5        	sd	s9, 0xa8(sp)
   12192: 6a f1        	sd	s10, 0xa0(sp)
   12194: 6e ed        	sd	s11, 0x98(sp)
   12196: f3 22 20 c2  	csrr	t0, vlenb
   1219a: 13 03 80 09  	li	t1, 0x98
   1219e: b3 82 62 02  	mul	t0, t0, t1
   121a2: 33 01 51 40  	sub	sp, sp, t0
   121a6: c6 e8        	sd	a7, 0x50(sp)
   121a8: c2 e0        	sd	a6, 0x40(sp)
   121aa: 3e e1        	sd	a5, 0x80(sp)
   121ac: 3a fc        	sd	a4, 0x38(sp)
   121ae: 36 f8        	sd	a3, 0x30(sp)
   121b0: aa e4        	sd	a0, 0x48(sp)
   121b2: e3 5f a0 38  	blez	a0, 0x12d50 <scalar_dgemm+0xbd6>
   121b6: 32 83        	mv	t1, a2
   121b8: 2e 8e        	mv	t3, a1
   121ba: 73 25 20 c2  	csrr	a0, vlenb
   121be: 93 05 80 09  	li	a1, 0x98
   121c2: 33 05 b5 02  	mul	a0, a0, a1
   121c6: 0a 95        	add	a0, a0, sp
   121c8: 03 35 05 10  	ld	a0, 0x100(a0)
   121cc: e3 58 c0 20  	blez	a2, 0x12bdc <scalar_dgemm+0xa62>
   121d0: e3 50 c0 39  	blez	t3, 0x12d50 <scalar_dgemm+0xbd6>
   121d4: 81 42        	li	t0, 0x0
   121d6: 93 14 35 00  	slli	s1, a0, 0x3
   121da: 13 15 3e 00  	slli	a0, t3, 0x3
   121de: 93 06 f3 ff  	addi	a3, t1, -0x1
   121e2: 06 66        	ld	a2, 0x40(sp)
   121e4: b3 86 c6 02  	mul	a3, a3, a2
   121e8: f2 96        	add	a3, a3, t3
   121ea: 8e 06        	slli	a3, a3, 0x3
   121ec: 0a 67        	ld	a4, 0x80(sp)
   121ee: ba 96        	add	a3, a3, a4
   121f0: 36 f0        	sd	a3, 0x20(sp)
   121f2: c6 69        	ld	s3, 0x50(sp)
   121f4: 4e 95        	add	a0, a0, s3
   121f6: 2a ec        	sd	a0, 0x18(sp)
   121f8: 37 05 00 80  	lui	a0, 0x80000
   121fc: 1b 05 05 f0  	addiw	a0, a0, -0x100
   12200: 33 75 ae 00  	and	a0, t3, a0
   12204: aa f8        	sd	a0, 0x70(sp)
   12206: 0e 05        	slli	a0, a0, 0x3
   12208: 13 05 05 80  	addi	a0, a0, -0x800
   1220c: 13 0f f5 7f  	addi	t5, a0, 0x7ff
   12210: 05 0f        	addi	t5, t5, 0x1
   12212: fa f4        	sd	t5, 0x68(sp)
   12214: 93 17 36 00  	slli	a5, a2, 0x3
   12218: 85 4c        	li	s9, 0x1
   1221a: ae 0c        	slli	s9, s9, 0xb
   1221c: ce 83        	mv	t2, s3
   1221e: 26 f4        	sd	s1, 0x28(sp)
   12220: f2 f0        	sd	t3, 0x60(sp)
   12222: 01 a8        	j	0x12232 <scalar_dgemm+0xb8>
   12224: e6 62        	ld	t0, 0x58(sp)
   12226: 85 02        	addi	t0, t0, 0x1
   12228: a2 74        	ld	s1, 0x28(sp)
   1222a: a6 93        	add	t2, t2, s1
   1222c: 26 65        	ld	a0, 0x48(sp)
   1222e: e3 81 a2 32  	beq	t0, a0, 0x12d50 <scalar_dgemm+0xbd6>
   12232: 33 88 54 02  	mul	a6, s1, t0
   12236: 13 05 00 10  	li	a0, 0x100
   1223a: 63 74 ae 00  	bgeu	t3, a0, 0x12242 <scalar_dgemm+0xc8>
   1223e: 81 46        	li	a3, 0x0
   12240: 39 aa        	j	0x1235e <scalar_dgemm+0x1e4>
   12242: 26 77        	ld	a4, 0x68(sp)
   12244: 42 97        	add	a4, a4, a6
   12246: c6 68        	ld	a7, 0x50(sp)
   12248: ba 98        	add	a7, a7, a4
   1224a: 57 70 b8 cd  	vsetivli	zero, 0x10, e64, m8, ta, ma
   1224e: 9e 84        	mv	s1, t2
   12250: 07 fc 04 02  	vle64.v	v24, (s1)
   12254: 13 85 04 78  	addi	a0, s1, 0x780
   12258: 07 78 05 02  	vle64.v	v16, (a0)
   1225c: 93 86 04 70  	addi	a3, s1, 0x700
   12260: 07 f4 06 02  	vle64.v	v8, (a3)
   12264: 13 84 04 68  	addi	s0, s1, 0x680
   12268: 57 dc 85 93  	vfmul.vf	v24, v24, fa1
   1226c: 27 fc 04 02  	vse64.v	v24, (s1)
   12270: 07 7c 04 02  	vle64.v	v24, (s0)
   12274: 13 87 04 58  	addi	a4, s1, 0x580
   12278: 57 d8 05 93  	vfmul.vf	v16, v16, fa1
   1227c: 27 78 05 02  	vse64.v	v16, (a0)
   12280: 07 78 07 02  	vle64.v	v16, (a4)
   12284: 13 85 04 50  	addi	a0, s1, 0x500
   12288: 57 d4 85 92  	vfmul.vf	v8, v8, fa1
   1228c: 27 f4 06 02  	vse64.v	v8, (a3)
   12290: 07 74 05 02  	vle64.v	v8, (a0)
   12294: 93 86 04 48  	addi	a3, s1, 0x480
   12298: 57 dc 85 93  	vfmul.vf	v24, v24, fa1
   1229c: 27 7c 04 02  	vse64.v	v24, (s0)
   122a0: 07 fc 06 02  	vle64.v	v24, (a3)
   122a4: 13 84 04 40  	addi	s0, s1, 0x400
   122a8: 57 d8 05 93  	vfmul.vf	v16, v16, fa1
   122ac: 27 78 07 02  	vse64.v	v16, (a4)
   122b0: 07 78 04 02  	vle64.v	v16, (s0)
   122b4: 13 87 04 38  	addi	a4, s1, 0x380
   122b8: 57 d4 85 92  	vfmul.vf	v8, v8, fa1
   122bc: 27 74 05 02  	vse64.v	v8, (a0)
   122c0: 07 74 07 02  	vle64.v	v8, (a4)
   122c4: 13 85 04 30  	addi	a0, s1, 0x300
   122c8: 57 dc 85 93  	vfmul.vf	v24, v24, fa1
   122cc: 27 fc 06 02  	vse64.v	v24, (a3)
   122d0: 07 7c 05 02  	vle64.v	v24, (a0)
   122d4: 93 86 04 28  	addi	a3, s1, 0x280
   122d8: 57 d8 05 93  	vfmul.vf	v16, v16, fa1
   122dc: 27 78 04 02  	vse64.v	v16, (s0)
   122e0: 07 f8 06 02  	vle64.v	v16, (a3)
   122e4: 13 84 04 20  	addi	s0, s1, 0x200
   122e8: 57 d4 85 92  	vfmul.vf	v8, v8, fa1
   122ec: 27 74 07 02  	vse64.v	v8, (a4)
   122f0: 07 74 04 02  	vle64.v	v8, (s0)
   122f4: 13 87 04 18  	addi	a4, s1, 0x180
   122f8: 57 dc 85 93  	vfmul.vf	v24, v24, fa1
   122fc: 27 7c 05 02  	vse64.v	v24, (a0)
   12300: 07 7c 07 02  	vle64.v	v24, (a4)
   12304: 13 85 04 10  	addi	a0, s1, 0x100
   12308: 57 d8 05 93  	vfmul.vf	v16, v16, fa1
   1230c: 27 f8 06 02  	vse64.v	v16, (a3)
   12310: 07 78 05 02  	vle64.v	v16, (a0)
   12314: 93 86 04 08  	addi	a3, s1, 0x80
   12318: 57 d4 85 92  	vfmul.vf	v8, v8, fa1
   1231c: 27 74 04 02  	vse64.v	v8, (s0)
   12320: 07 f4 06 02  	vle64.v	v8, (a3)
   12324: 13 84 04 60  	addi	s0, s1, 0x600
   12328: 57 dc 85 93  	vfmul.vf	v24, v24, fa1
   1232c: 27 7c 07 02  	vse64.v	v24, (a4)
   12330: 07 7c 04 02  	vle64.v	v24, (s0)
   12334: 57 d8 05 93  	vfmul.vf	v16, v16, fa1
   12338: 27 78 05 02  	vse64.v	v16, (a0)
   1233c: 57 d4 85 92  	vfmul.vf	v8, v8, fa1
   12340: 27 f4 06 02  	vse64.v	v8, (a3)
   12344: 57 d4 85 93  	vfmul.vf	v8, v24, fa1
   12348: 93 84 f4 7f  	addi	s1, s1, 0x7ff
   1234c: 85 04        	addi	s1, s1, 0x1
   1234e: 27 74 04 02  	vse64.v	v8, (s0)
   12352: e3 9f 14 ef  	bne	s1, a7, 0x12250 <scalar_dgemm+0xd6>
   12356: 46 75        	ld	a0, 0x70(sp)
   12358: aa 86        	mv	a3, a0
   1235a: 63 0e c5 01  	beq	a0, t3, 0x12376 <scalar_dgemm+0x1fc>
   1235e: 13 95 36 00  	slli	a0, a3, 0x3
   12362: 1e 95        	add	a0, a0, t2
   12364: b3 06 de 40  	sub	a3, t3, a3
   12368: 1c 21        	fld	fa5, 0x0(a0)
   1236a: d3 f7 b7 12  	fmul.d	fa5, fa5, fa1
   1236e: 1c a1        	fsd	fa5, 0x0(a0)
   12370: fd 16        	addi	a3, a3, -0x1
   12372: 21 05        	addi	a0, a0, 0x8
   12374: f5 fa        	bnez	a3, 0x12368 <scalar_dgemm+0x1ee>
   12376: 81 4b        	li	s7, 0x0
   12378: 46 65        	ld	a0, 0x50(sp)
   1237a: 42 95        	add	a0, a0, a6
   1237c: 62 64        	ld	s0, 0x18(sp)
   1237e: 42 94        	add	s0, s0, a6
   12380: 06 66        	ld	a2, 0x40(sp)
   12382: 93 26 06 00  	slti	a3, a2, 0x0
   12386: 02 76        	ld	a2, 0x20(sp)
   12388: 33 35 c5 00  	sltu	a0, a0, a2
   1238c: 0a 6b        	ld	s6, 0x80(sp)
   1238e: 33 37 8b 00  	sltu	a4, s6, s0
   12392: 79 8d        	and	a0, a0, a4
   12394: 62 76        	ld	a2, 0x38(sp)
   12396: 96 ec        	sd	t0, 0x58(sp)
   12398: 33 87 c2 02  	mul	a4, t0, a2
   1239c: 0e 07        	slli	a4, a4, 0x3
   1239e: 42 7a        	ld	s4, 0x30(sp)
   123a0: b3 05 ea 00  	add	a1, s4, a4
   123a4: 33 66 d5 00  	or	a2, a0, a3
   123a8: b2 fc        	sd	a2, 0x78(sp)
   123aa: 29 a0        	j	0x123b4 <scalar_dgemm+0x23a>
   123ac: 85 0b        	addi	s7, s7, 0x1
   123ae: 3e 9b        	add	s6, s6, a5
   123b0: e3 8a 6b e6  	beq	s7, t1, 0x12224 <scalar_dgemm+0xaa>
   123b4: 13 95 3b 00  	slli	a0, s7, 0x3
   123b8: 2e 95        	add	a0, a0, a1
   123ba: 1c 21        	fld	fa5, 0x0(a0)
   123bc: 13 35 0e 10  	sltiu	a0, t3, 0x100
   123c0: 51 8d        	or	a0, a0, a2
   123c2: d3 f7 a7 12  	fmul.d	fa5, fa5, fa0
   123c6: 19 c1        	beqz	a0, 0x123cc <scalar_dgemm+0x252>
   123c8: 01 47        	li	a4, 0x0
   123ca: fd a7        	j	0x12bb8 <scalar_dgemm+0xa3e>
   123cc: 9a 89        	mv	s3, t1
   123ce: 3e 8a        	mv	s4, a5
   123d0: 33 85 77 03  	mul	a0, a5, s7
   123d4: 26 76        	ld	a2, 0x68(sp)
   123d6: 32 95        	add	a0, a0, a2
   123d8: 0a 6c        	ld	s8, 0x80(sp)
   123da: 2a 9c        	add	s8, s8, a0
   123dc: 57 70 b8 cd  	vsetivli	zero, 0x10, e64, m8, ta, ma
   123e0: 57 d4 07 5e  	vfmv.v.f	v8, fa5
   123e4: 08 09        	addi	a0, sp, 0x90
   123e6: 27 04 85 e2  	vs8r.v	v8, (a0)
   123ea: 9e 8a        	mv	s5, t2
   123ec: 9e 84        	mv	s1, t2
   123ee: 5a 84        	mv	s0, s6
   123f0: 13 05 04 60  	addi	a0, s0, 0x600
   123f4: 07 74 05 02  	vle64.v	v8, (a0)
   123f8: 73 25 20 c2  	csrr	a0, vlenb
   123fc: 1e 05        	slli	a0, a0, 0x7
   123fe: 0a 95        	add	a0, a0, sp
   12400: 13 05 05 09  	addi	a0, a0, 0x90
   12404: 27 04 85 e2  	vs8r.v	v8, (a0)
   12408: 13 05 04 68  	addi	a0, s0, 0x680
   1240c: 07 74 05 02  	vle64.v	v8, (a0)
   12410: 73 25 20 c2  	csrr	a0, vlenb
   12414: 13 06 80 07  	li	a2, 0x78
   12418: 33 05 c5 02  	mul	a0, a0, a2
   1241c: 0a 95        	add	a0, a0, sp
   1241e: 13 05 05 09  	addi	a0, a0, 0x90
   12422: 27 04 85 e2  	vs8r.v	v8, (a0)
   12426: 13 05 04 70  	addi	a0, s0, 0x700
   1242a: 07 74 05 02  	vle64.v	v8, (a0)
   1242e: 73 25 20 c2  	csrr	a0, vlenb
   12432: 13 06 00 07  	li	a2, 0x70
   12436: 33 05 c5 02  	mul	a0, a0, a2
   1243a: 0a 95        	add	a0, a0, sp
   1243c: 13 05 05 09  	addi	a0, a0, 0x90
   12440: 27 04 85 e2  	vs8r.v	v8, (a0)
   12444: 13 05 04 78  	addi	a0, s0, 0x780
   12448: 07 74 05 02  	vle64.v	v8, (a0)
   1244c: 73 25 20 c2  	csrr	a0, vlenb
   12450: 13 06 80 06  	li	a2, 0x68
   12454: 33 05 c5 02  	mul	a0, a0, a2
   12458: 0a 95        	add	a0, a0, sp
   1245a: 13 05 05 09  	addi	a0, a0, 0x90
   1245e: 27 04 85 e2  	vs8r.v	v8, (a0)
   12462: 13 8d 04 60  	addi	s10, s1, 0x600
   12466: 93 8d 04 68  	addi	s11, s1, 0x680
   1246a: 93 80 04 70  	addi	ra, s1, 0x700
   1246e: 13 89 04 78  	addi	s2, s1, 0x780
   12472: 07 78 09 02  	vle64.v	v16, (s2)
   12476: 07 fc 00 02  	vle64.v	v24, (ra)
   1247a: 07 f4 0d 02  	vle64.v	v8, (s11)
   1247e: 73 25 20 c2  	csrr	a0, vlenb
   12482: 13 06 80 08  	li	a2, 0x88
   12486: 33 05 c5 02  	mul	a0, a0, a2
   1248a: 0a 95        	add	a0, a0, sp
   1248c: 13 05 05 09  	addi	a0, a0, 0x90
   12490: 27 04 85 e2  	vs8r.v	v8, (a0)
   12494: 07 74 0d 02  	vle64.v	v8, (s10)
   12498: 73 25 20 c2  	csrr	a0, vlenb
   1249c: 13 06 00 09  	li	a2, 0x90
   124a0: 33 05 c5 02  	mul	a0, a0, a2
   124a4: 0a 95        	add	a0, a0, sp
   124a6: 13 05 05 09  	addi	a0, a0, 0x90
   124aa: 27 04 85 e2  	vs8r.v	v8, (a0)
   124ae: 08 09        	addi	a0, sp, 0x90
   124b0: 07 04 85 e2  	vl8r.v	v8, (a0)
   124b4: 73 25 20 c2  	csrr	a0, vlenb
   124b8: 13 06 80 06  	li	a2, 0x68
   124bc: 33 05 c5 02  	mul	a0, a0, a2
   124c0: 0a 95        	add	a0, a0, sp
   124c2: 13 05 05 09  	addi	a0, a0, 0x90
   124c6: 07 00 85 e2  	vl8r.v	v0, (a0)
   124ca: 57 18 04 b2  	vfmacc.vv	v16, v8, v0
   124ce: 73 25 20 c2  	csrr	a0, vlenb
   124d2: 13 06 00 05  	li	a2, 0x50
   124d6: 33 05 c5 02  	mul	a0, a0, a2
   124da: 0a 95        	add	a0, a0, sp
   124dc: 13 05 05 09  	addi	a0, a0, 0x90
   124e0: 27 08 85 e2  	vs8r.v	v16, (a0)
   124e4: 73 25 20 c2  	csrr	a0, vlenb
   124e8: 13 06 00 07  	li	a2, 0x70
   124ec: 33 05 c5 02  	mul	a0, a0, a2
   124f0: 0a 95        	add	a0, a0, sp
   124f2: 13 05 05 09  	addi	a0, a0, 0x90
   124f6: 07 08 85 e2  	vl8r.v	v16, (a0)
   124fa: 57 1c 04 b3  	vfmacc.vv	v24, v8, v16
   124fe: 73 25 20 c2  	csrr	a0, vlenb
   12502: 13 06 80 04  	li	a2, 0x48
   12506: 33 05 c5 02  	mul	a0, a0, a2
   1250a: 0a 95        	add	a0, a0, sp
   1250c: 13 05 05 09  	addi	a0, a0, 0x90
   12510: 27 0c 85 e2  	vs8r.v	v24, (a0)
   12514: 73 25 20 c2  	csrr	a0, vlenb
   12518: 13 06 80 07  	li	a2, 0x78
   1251c: 33 05 c5 02  	mul	a0, a0, a2
   12520: 0a 95        	add	a0, a0, sp
   12522: 13 05 05 09  	addi	a0, a0, 0x90
   12526: 07 08 85 e2  	vl8r.v	v16, (a0)
   1252a: 73 25 20 c2  	csrr	a0, vlenb
   1252e: 13 06 80 08  	li	a2, 0x88
   12532: 33 05 c5 02  	mul	a0, a0, a2
   12536: 0a 95        	add	a0, a0, sp
   12538: 13 05 05 09  	addi	a0, a0, 0x90
   1253c: 07 0c 85 e2  	vl8r.v	v24, (a0)
   12540: 57 1c 04 b3  	vfmacc.vv	v24, v8, v16
   12544: 73 25 20 c2  	csrr	a0, vlenb
   12548: 13 06 80 08  	li	a2, 0x88
   1254c: 33 05 c5 02  	mul	a0, a0, a2
   12550: 0a 95        	add	a0, a0, sp
   12552: 13 05 05 09  	addi	a0, a0, 0x90
   12556: 27 0c 85 e2  	vs8r.v	v24, (a0)
   1255a: 73 25 20 c2  	csrr	a0, vlenb
   1255e: 13 06 00 09  	li	a2, 0x90
   12562: 33 05 c5 02  	mul	a0, a0, a2
   12566: 0a 95        	add	a0, a0, sp
   12568: 13 05 05 09  	addi	a0, a0, 0x90
   1256c: 07 08 85 e2  	vl8r.v	v16, (a0)
   12570: 73 25 20 c2  	csrr	a0, vlenb
   12574: 1e 05        	slli	a0, a0, 0x7
   12576: 0a 95        	add	a0, a0, sp
   12578: 13 05 05 09  	addi	a0, a0, 0x90
   1257c: 07 0c 85 e2  	vl8r.v	v24, (a0)
   12580: 57 18 84 b3  	vfmacc.vv	v16, v8, v24
   12584: 73 25 20 c2  	csrr	a0, vlenb
   12588: 13 06 00 09  	li	a2, 0x90
   1258c: 33 05 c5 02  	mul	a0, a0, a2
   12590: 0a 95        	add	a0, a0, sp
   12592: 13 05 05 09  	addi	a0, a0, 0x90
   12596: 27 08 85 e2  	vs8r.v	v16, (a0)
   1259a: 13 05 04 40  	addi	a0, s0, 0x400
   1259e: 93 06 04 48  	addi	a3, s0, 0x480
   125a2: 13 08 04 50  	addi	a6, s0, 0x500
   125a6: 93 08 04 58  	addi	a7, s0, 0x580
   125aa: 13 87 04 40  	addi	a4, s1, 0x400
   125ae: 13 83 04 48  	addi	t1, s1, 0x480
   125b2: 13 8e 04 50  	addi	t3, s1, 0x500
   125b6: 93 83 04 58  	addi	t2, s1, 0x580
   125ba: 07 78 05 02  	vle64.v	v16, (a0)
   125be: 73 25 20 c2  	csrr	a0, vlenb
   125c2: 13 06 00 07  	li	a2, 0x70
   125c6: 33 05 c5 02  	mul	a0, a0, a2
   125ca: 0a 95        	add	a0, a0, sp
   125cc: 13 05 05 09  	addi	a0, a0, 0x90
   125d0: 27 08 85 e2  	vs8r.v	v16, (a0)
   125d4: 07 f8 06 02  	vle64.v	v16, (a3)
   125d8: 73 25 20 c2  	csrr	a0, vlenb
   125dc: 13 06 80 06  	li	a2, 0x68
   125e0: 33 05 c5 02  	mul	a0, a0, a2
   125e4: 0a 95        	add	a0, a0, sp
   125e6: 13 05 05 09  	addi	a0, a0, 0x90
   125ea: 27 08 85 e2  	vs8r.v	v16, (a0)
   125ee: 07 78 08 02  	vle64.v	v16, (a6)
   125f2: 73 25 20 c2  	csrr	a0, vlenb
   125f6: 13 06 00 06  	li	a2, 0x60
   125fa: 33 05 c5 02  	mul	a0, a0, a2
   125fe: 0a 95        	add	a0, a0, sp
   12600: 13 05 05 09  	addi	a0, a0, 0x90
   12604: 27 08 85 e2  	vs8r.v	v16, (a0)
   12608: 07 f8 08 02  	vle64.v	v16, (a7)
   1260c: 73 25 20 c2  	csrr	a0, vlenb
   12610: 13 06 80 05  	li	a2, 0x58
   12614: 33 05 c5 02  	mul	a0, a0, a2
   12618: 0a 95        	add	a0, a0, sp
   1261a: 13 05 05 09  	addi	a0, a0, 0x90
   1261e: 27 08 85 e2  	vs8r.v	v16, (a0)
   12622: 07 f8 03 02  	vle64.v	v16, (t2)
   12626: 07 7c 0e 02  	vle64.v	v24, (t3)
   1262a: 07 70 03 02  	vle64.v	v0, (t1)
   1262e: 73 25 20 c2  	csrr	a0, vlenb
   12632: 13 06 80 07  	li	a2, 0x78
   12636: 33 05 c5 02  	mul	a0, a0, a2
   1263a: 0a 95        	add	a0, a0, sp
   1263c: 13 05 05 09  	addi	a0, a0, 0x90
   12640: 27 00 85 e2  	vs8r.v	v0, (a0)
   12644: 07 70 07 02  	vle64.v	v0, (a4)
   12648: 73 25 20 c2  	csrr	a0, vlenb
   1264c: 1e 05        	slli	a0, a0, 0x7
   1264e: 0a 95        	add	a0, a0, sp
   12650: 13 05 05 09  	addi	a0, a0, 0x90
   12654: 27 00 85 e2  	vs8r.v	v0, (a0)
   12658: 73 25 20 c2  	csrr	a0, vlenb
   1265c: 13 06 80 05  	li	a2, 0x58
   12660: 33 05 c5 02  	mul	a0, a0, a2
   12664: 0a 95        	add	a0, a0, sp
   12666: 13 05 05 09  	addi	a0, a0, 0x90
   1266a: 07 00 85 e2  	vl8r.v	v0, (a0)
   1266e: 57 18 04 b2  	vfmacc.vv	v16, v8, v0
   12672: 73 25 20 c2  	csrr	a0, vlenb
   12676: 1a 05        	slli	a0, a0, 0x6
   12678: 0a 95        	add	a0, a0, sp
   1267a: 13 05 05 09  	addi	a0, a0, 0x90
   1267e: 27 08 85 e2  	vs8r.v	v16, (a0)
   12682: 73 25 20 c2  	csrr	a0, vlenb
   12686: 13 06 00 06  	li	a2, 0x60
   1268a: 33 05 c5 02  	mul	a0, a0, a2
   1268e: 0a 95        	add	a0, a0, sp
   12690: 13 05 05 09  	addi	a0, a0, 0x90
   12694: 07 08 85 e2  	vl8r.v	v16, (a0)
   12698: 57 1c 04 b3  	vfmacc.vv	v24, v8, v16
   1269c: 73 25 20 c2  	csrr	a0, vlenb
   126a0: 13 06 80 03  	li	a2, 0x38
   126a4: 33 05 c5 02  	mul	a0, a0, a2
   126a8: 0a 95        	add	a0, a0, sp
   126aa: 13 05 05 09  	addi	a0, a0, 0x90
   126ae: 27 0c 85 e2  	vs8r.v	v24, (a0)
   126b2: 73 25 20 c2  	csrr	a0, vlenb
   126b6: 13 06 80 07  	li	a2, 0x78
   126ba: 33 05 c5 02  	mul	a0, a0, a2
   126be: 0a 95        	add	a0, a0, sp
   126c0: 13 05 05 09  	addi	a0, a0, 0x90
   126c4: 07 08 85 e2  	vl8r.v	v16, (a0)
   126c8: 73 25 20 c2  	csrr	a0, vlenb
   126cc: 13 06 80 06  	li	a2, 0x68
   126d0: 33 05 c5 02  	mul	a0, a0, a2
   126d4: 0a 95        	add	a0, a0, sp
   126d6: 13 05 05 09  	addi	a0, a0, 0x90
   126da: 07 0c 85 e2  	vl8r.v	v24, (a0)
   126de: 57 18 84 b3  	vfmacc.vv	v16, v8, v24
   126e2: 73 25 20 c2  	csrr	a0, vlenb
   126e6: 13 06 80 07  	li	a2, 0x78
   126ea: 33 05 c5 02  	mul	a0, a0, a2
   126ee: 0a 95        	add	a0, a0, sp
   126f0: 13 05 05 09  	addi	a0, a0, 0x90
   126f4: 27 08 85 e2  	vs8r.v	v16, (a0)
   126f8: 73 25 20 c2  	csrr	a0, vlenb
   126fc: 1e 05        	slli	a0, a0, 0x7
   126fe: 0a 95        	add	a0, a0, sp
   12700: 13 05 05 09  	addi	a0, a0, 0x90
   12704: 07 08 85 e2  	vl8r.v	v16, (a0)
   12708: 73 25 20 c2  	csrr	a0, vlenb
   1270c: 13 06 00 07  	li	a2, 0x70
   12710: 33 05 c5 02  	mul	a0, a0, a2
   12714: 0a 95        	add	a0, a0, sp
   12716: 13 05 05 09  	addi	a0, a0, 0x90
   1271a: 07 0c 85 e2  	vl8r.v	v24, (a0)
   1271e: 57 18 84 b3  	vfmacc.vv	v16, v8, v24
   12722: 73 25 20 c2  	csrr	a0, vlenb
   12726: 1e 05        	slli	a0, a0, 0x7
   12728: 0a 95        	add	a0, a0, sp
   1272a: 13 05 05 09  	addi	a0, a0, 0x90
   1272e: 27 08 85 e2  	vs8r.v	v16, (a0)
   12732: 93 02 04 20  	addi	t0, s0, 0x200
   12736: 13 0f 04 28  	addi	t5, s0, 0x280
   1273a: 93 07 04 30  	addi	a5, s0, 0x300
   1273e: 93 0e 04 38  	addi	t4, s0, 0x380
   12742: 93 88 04 20  	addi	a7, s1, 0x200
   12746: 13 85 04 28  	addi	a0, s1, 0x280
   1274a: 13 88 04 30  	addi	a6, s1, 0x300
   1274e: 93 86 04 38  	addi	a3, s1, 0x380
   12752: 07 f8 02 02  	vle64.v	v16, (t0)
   12756: 73 26 20 c2  	csrr	a2, vlenb
   1275a: 93 02 00 06  	li	t0, 0x60
   1275e: 33 06 56 02  	mul	a2, a2, t0
   12762: 0a 96        	add	a2, a2, sp
   12764: 13 06 06 09  	addi	a2, a2, 0x90
   12768: 27 08 86 e2  	vs8r.v	v16, (a2)
   1276c: 07 78 0f 02  	vle64.v	v16, (t5)
   12770: 73 26 20 c2  	csrr	a2, vlenb
   12774: 93 02 80 05  	li	t0, 0x58
   12778: 33 06 56 02  	mul	a2, a2, t0
   1277c: 0a 96        	add	a2, a2, sp
   1277e: 13 06 06 09  	addi	a2, a2, 0x90
   12782: 27 08 86 e2  	vs8r.v	v16, (a2)
   12786: 07 f8 07 02  	vle64.v	v16, (a5)
   1278a: 73 26 20 c2  	csrr	a2, vlenb
   1278e: 93 07 80 02  	li	a5, 0x28
   12792: 33 06 f6 02  	mul	a2, a2, a5
   12796: 0a 96        	add	a2, a2, sp
   12798: 13 06 06 09  	addi	a2, a2, 0x90
   1279c: 27 08 86 e2  	vs8r.v	v16, (a2)
   127a0: 07 f8 0e 02  	vle64.v	v16, (t4)
   127a4: 73 26 20 c2  	csrr	a2, vlenb
   127a8: 93 07 00 03  	li	a5, 0x30
   127ac: 33 06 f6 02  	mul	a2, a2, a5
   127b0: 0a 96        	add	a2, a2, sp
   127b2: 13 06 06 09  	addi	a2, a2, 0x90
   127b6: 27 08 86 e2  	vs8r.v	v16, (a2)
   127ba: 07 f8 06 02  	vle64.v	v16, (a3)
   127be: 07 7c 08 02  	vle64.v	v24, (a6)
   127c2: 07 70 05 02  	vle64.v	v0, (a0)
   127c6: 73 26 20 c2  	csrr	a2, vlenb
   127ca: 93 07 80 06  	li	a5, 0x68
   127ce: 33 06 f6 02  	mul	a2, a2, a5
   127d2: 0a 96        	add	a2, a2, sp
   127d4: 13 06 06 09  	addi	a2, a2, 0x90
   127d8: 27 00 86 e2  	vs8r.v	v0, (a2)
   127dc: 07 f0 08 02  	vle64.v	v0, (a7)
   127e0: 73 26 20 c2  	csrr	a2, vlenb
   127e4: 93 07 00 07  	li	a5, 0x70
   127e8: 33 06 f6 02  	mul	a2, a2, a5
   127ec: 0a 96        	add	a2, a2, sp
   127ee: 13 06 06 09  	addi	a2, a2, 0x90
   127f2: 27 00 86 e2  	vs8r.v	v0, (a2)
   127f6: 73 26 20 c2  	csrr	a2, vlenb
   127fa: 93 07 00 03  	li	a5, 0x30
   127fe: 33 06 f6 02  	mul	a2, a2, a5
   12802: 0a 96        	add	a2, a2, sp
   12804: 13 06 06 09  	addi	a2, a2, 0x90
   12808: 07 00 86 e2  	vl8r.v	v0, (a2)
   1280c: 57 18 04 b2  	vfmacc.vv	v16, v8, v0
   12810: 73 26 20 c2  	csrr	a2, vlenb
   12814: 93 07 00 03  	li	a5, 0x30
   12818: 33 06 f6 02  	mul	a2, a2, a5
   1281c: 0a 96        	add	a2, a2, sp
   1281e: 13 06 06 09  	addi	a2, a2, 0x90
   12822: 27 08 86 e2  	vs8r.v	v16, (a2)
   12826: 73 26 20 c2  	csrr	a2, vlenb
   1282a: 93 07 80 02  	li	a5, 0x28
   1282e: 33 06 f6 02  	mul	a2, a2, a5
   12832: 0a 96        	add	a2, a2, sp
   12834: 13 06 06 09  	addi	a2, a2, 0x90
   12838: 07 08 86 e2  	vl8r.v	v16, (a2)
   1283c: 57 1c 04 b3  	vfmacc.vv	v24, v8, v16
   12840: 73 26 20 c2  	csrr	a2, vlenb
   12844: 93 07 80 02  	li	a5, 0x28
   12848: 33 06 f6 02  	mul	a2, a2, a5
   1284c: 0a 96        	add	a2, a2, sp
   1284e: 13 06 06 09  	addi	a2, a2, 0x90
   12852: 27 0c 86 e2  	vs8r.v	v24, (a2)
   12856: 73 26 20 c2  	csrr	a2, vlenb
   1285a: 93 07 80 06  	li	a5, 0x68
   1285e: 33 06 f6 02  	mul	a2, a2, a5
   12862: 0a 96        	add	a2, a2, sp
   12864: 13 06 06 09  	addi	a2, a2, 0x90
   12868: 07 08 86 e2  	vl8r.v	v16, (a2)
   1286c: 73 26 20 c2  	csrr	a2, vlenb
   12870: 93 07 80 05  	li	a5, 0x58
   12874: 33 06 f6 02  	mul	a2, a2, a5
   12878: 0a 96        	add	a2, a2, sp
   1287a: 13 06 06 09  	addi	a2, a2, 0x90
   1287e: 07 0c 86 e2  	vl8r.v	v24, (a2)
   12882: 57 18 84 b3  	vfmacc.vv	v16, v8, v24
   12886: 73 26 20 c2  	csrr	a2, vlenb
   1288a: 93 07 80 06  	li	a5, 0x68
   1288e: 33 06 f6 02  	mul	a2, a2, a5
   12892: 0a 96        	add	a2, a2, sp
   12894: 13 06 06 09  	addi	a2, a2, 0x90
   12898: 27 08 86 e2  	vs8r.v	v16, (a2)
   1289c: 73 26 20 c2  	csrr	a2, vlenb
   128a0: 93 07 00 07  	li	a5, 0x70
   128a4: 33 06 f6 02  	mul	a2, a2, a5
   128a8: 0a 96        	add	a2, a2, sp
   128aa: 13 06 06 09  	addi	a2, a2, 0x90
   128ae: 07 08 86 e2  	vl8r.v	v16, (a2)
   128b2: 73 26 20 c2  	csrr	a2, vlenb
   128b6: 93 07 00 06  	li	a5, 0x60
   128ba: 33 06 f6 02  	mul	a2, a2, a5
   128be: 0a 96        	add	a2, a2, sp
   128c0: 13 06 06 09  	addi	a2, a2, 0x90
   128c4: 07 0c 86 e2  	vl8r.v	v24, (a2)
   128c8: 57 18 84 b3  	vfmacc.vv	v16, v8, v24
   128cc: 73 26 20 c2  	csrr	a2, vlenb
   128d0: 93 07 00 07  	li	a5, 0x70
   128d4: 33 06 f6 02  	mul	a2, a2, a5
   128d8: 0a 96        	add	a2, a2, sp
   128da: 13 06 06 09  	addi	a2, a2, 0x90
   128de: 27 08 86 e2  	vs8r.v	v16, (a2)
   128e2: 93 07 04 08  	addi	a5, s0, 0x80
   128e6: 13 06 04 10  	addi	a2, s0, 0x100
   128ea: 93 02 04 18  	addi	t0, s0, 0x180
   128ee: 93 8e 04 08  	addi	t4, s1, 0x80
   128f2: 13 8f 04 10  	addi	t5, s1, 0x100
   128f6: 93 8f 04 18  	addi	t6, s1, 0x180
   128fa: 07 f8 07 02  	vle64.v	v16, (a5)
   128fe: f3 27 20 c2  	csrr	a5, vlenb
   12902: 96 07        	slli	a5, a5, 0x5
   12904: 8a 97        	add	a5, a5, sp
   12906: 93 87 07 09  	addi	a5, a5, 0x90
   1290a: 27 88 87 e2  	vs8r.v	v16, (a5)
   1290e: 07 78 06 02  	vle64.v	v16, (a2)
   12912: 73 26 20 c2  	csrr	a2, vlenb
   12916: 12 06        	slli	a2, a2, 0x4
   12918: 0a 96        	add	a2, a2, sp
   1291a: 13 06 06 09  	addi	a2, a2, 0x90
   1291e: 27 08 86 e2  	vs8r.v	v16, (a2)
   12922: 07 fc 02 02  	vle64.v	v24, (t0)
   12926: 07 78 04 02  	vle64.v	v16, (s0)
   1292a: 73 26 20 c2  	csrr	a2, vlenb
   1292e: e1 47        	li	a5, 0x18
   12930: 33 06 f6 02  	mul	a2, a2, a5
   12934: 0a 96        	add	a2, a2, sp
   12936: 13 06 06 09  	addi	a2, a2, 0x90
   1293a: 27 08 86 e2  	vs8r.v	v16, (a2)
   1293e: 07 f8 0f 02  	vle64.v	v16, (t6)
   12942: 73 26 20 c2  	csrr	a2, vlenb
   12946: 93 07 00 06  	li	a5, 0x60
   1294a: 33 06 f6 02  	mul	a2, a2, a5
   1294e: 0a 96        	add	a2, a2, sp
   12950: 13 06 06 09  	addi	a2, a2, 0x90
   12954: 27 08 86 e2  	vs8r.v	v16, (a2)
   12958: 07 78 0f 02  	vle64.v	v16, (t5)
   1295c: 73 26 20 c2  	csrr	a2, vlenb
   12960: 93 07 80 05  	li	a5, 0x58
   12964: 33 06 f6 02  	mul	a2, a2, a5
   12968: 0a 96        	add	a2, a2, sp
   1296a: 13 06 06 09  	addi	a2, a2, 0x90
   1296e: 27 08 86 e2  	vs8r.v	v16, (a2)
   12972: 07 f8 0e 02  	vle64.v	v16, (t4)
   12976: 73 26 20 c2  	csrr	a2, vlenb
   1297a: 0e 06        	slli	a2, a2, 0x3
   1297c: 0a 96        	add	a2, a2, sp
   1297e: 13 06 06 09  	addi	a2, a2, 0x90
   12982: 27 08 86 e2  	vs8r.v	v16, (a2)
   12986: 07 f8 04 02  	vle64.v	v16, (s1)
   1298a: 73 26 20 c2  	csrr	a2, vlenb
   1298e: 93 07 00 06  	li	a5, 0x60
   12992: 33 06 f6 02  	mul	a2, a2, a5
   12996: 0a 96        	add	a2, a2, sp
   12998: 13 06 06 09  	addi	a2, a2, 0x90
   1299c: 07 00 86 e2  	vl8r.v	v0, (a2)
   129a0: 57 10 84 b3  	vfmacc.vv	v0, v8, v24
   129a4: 73 26 20 c2  	csrr	a2, vlenb
   129a8: 93 07 00 06  	li	a5, 0x60
   129ac: 33 06 f6 02  	mul	a2, a2, a5
   129b0: 0a 96        	add	a2, a2, sp
   129b2: 13 06 06 09  	addi	a2, a2, 0x90
   129b6: 27 00 86 e2  	vs8r.v	v0, (a2)
   129ba: 73 26 20 c2  	csrr	a2, vlenb
   129be: 93 07 80 05  	li	a5, 0x58
   129c2: 33 06 f6 02  	mul	a2, a2, a5
   129c6: 0a 96        	add	a2, a2, sp
   129c8: 13 06 06 09  	addi	a2, a2, 0x90
   129cc: 07 00 86 e2  	vl8r.v	v0, (a2)
   129d0: 73 26 20 c2  	csrr	a2, vlenb
   129d4: 12 06        	slli	a2, a2, 0x4
   129d6: 0a 96        	add	a2, a2, sp
   129d8: 13 06 06 09  	addi	a2, a2, 0x90
   129dc: 07 0c 86 e2  	vl8r.v	v24, (a2)
   129e0: 57 10 84 b3  	vfmacc.vv	v0, v8, v24
   129e4: 73 26 20 c2  	csrr	a2, vlenb
   129e8: 93 07 80 05  	li	a5, 0x58
   129ec: 33 06 f6 02  	mul	a2, a2, a5
   129f0: 0a 96        	add	a2, a2, sp
   129f2: 13 06 06 09  	addi	a2, a2, 0x90
   129f6: 27 00 86 e2  	vs8r.v	v0, (a2)
   129fa: 73 26 20 c2  	csrr	a2, vlenb
   129fe: 16 06        	slli	a2, a2, 0x5
   12a00: 0a 96        	add	a2, a2, sp
   12a02: 13 06 06 09  	addi	a2, a2, 0x90
   12a06: 07 00 86 e2  	vl8r.v	v0, (a2)
   12a0a: 73 26 20 c2  	csrr	a2, vlenb
   12a0e: 0e 06        	slli	a2, a2, 0x3
   12a10: 0a 96        	add	a2, a2, sp
   12a12: 13 06 06 09  	addi	a2, a2, 0x90
   12a16: 07 0c 86 e2  	vl8r.v	v24, (a2)
   12a1a: 57 1c 04 b2  	vfmacc.vv	v24, v8, v0
   12a1e: 73 26 20 c2  	csrr	a2, vlenb
   12a22: e1 47        	li	a5, 0x18
   12a24: 33 06 f6 02  	mul	a2, a2, a5
   12a28: 0a 96        	add	a2, a2, sp
   12a2a: 13 06 06 09  	addi	a2, a2, 0x90
   12a2e: 07 00 86 e2  	vl8r.v	v0, (a2)
   12a32: 57 18 04 b2  	vfmacc.vv	v16, v8, v0
   12a36: 27 f8 04 02  	vse64.v	v16, (s1)
   12a3a: 27 fc 0e 02  	vse64.v	v24, (t4)
   12a3e: 73 26 20 c2  	csrr	a2, vlenb
   12a42: 93 07 80 05  	li	a5, 0x58
   12a46: 33 06 f6 02  	mul	a2, a2, a5
   12a4a: 0a 96        	add	a2, a2, sp
   12a4c: 13 06 06 09  	addi	a2, a2, 0x90
   12a50: 07 04 86 e2  	vl8r.v	v8, (a2)
   12a54: 27 74 0f 02  	vse64.v	v8, (t5)
   12a58: 73 26 20 c2  	csrr	a2, vlenb
   12a5c: 93 07 00 06  	li	a5, 0x60
   12a60: 33 06 f6 02  	mul	a2, a2, a5
   12a64: 0a 96        	add	a2, a2, sp
   12a66: 13 06 06 09  	addi	a2, a2, 0x90
   12a6a: 07 04 86 e2  	vl8r.v	v8, (a2)
   12a6e: 27 f4 0f 02  	vse64.v	v8, (t6)
   12a72: 73 26 20 c2  	csrr	a2, vlenb
   12a76: 93 07 00 07  	li	a5, 0x70
   12a7a: 33 06 f6 02  	mul	a2, a2, a5
   12a7e: 0a 96        	add	a2, a2, sp
   12a80: 13 06 06 09  	addi	a2, a2, 0x90
   12a84: 07 04 86 e2  	vl8r.v	v8, (a2)
   12a88: 27 f4 08 02  	vse64.v	v8, (a7)
   12a8c: 73 26 20 c2  	csrr	a2, vlenb
   12a90: 93 07 80 06  	li	a5, 0x68
   12a94: 33 06 f6 02  	mul	a2, a2, a5
   12a98: 0a 96        	add	a2, a2, sp
   12a9a: 13 06 06 09  	addi	a2, a2, 0x90
   12a9e: 07 04 86 e2  	vl8r.v	v8, (a2)
   12aa2: 27 74 05 02  	vse64.v	v8, (a0)
   12aa6: 73 25 20 c2  	csrr	a0, vlenb
   12aaa: 13 06 80 02  	li	a2, 0x28
   12aae: 33 05 c5 02  	mul	a0, a0, a2
   12ab2: 0a 95        	add	a0, a0, sp
   12ab4: 13 05 05 09  	addi	a0, a0, 0x90
   12ab8: 07 04 85 e2  	vl8r.v	v8, (a0)
   12abc: 27 74 08 02  	vse64.v	v8, (a6)
   12ac0: 73 25 20 c2  	csrr	a0, vlenb
   12ac4: 13 06 00 03  	li	a2, 0x30
   12ac8: 33 05 c5 02  	mul	a0, a0, a2
   12acc: 0a 95        	add	a0, a0, sp
   12ace: 13 05 05 09  	addi	a0, a0, 0x90
   12ad2: 07 04 85 e2  	vl8r.v	v8, (a0)
   12ad6: 27 f4 06 02  	vse64.v	v8, (a3)
   12ada: 73 25 20 c2  	csrr	a0, vlenb
   12ade: 1e 05        	slli	a0, a0, 0x7
   12ae0: 0a 95        	add	a0, a0, sp
   12ae2: 13 05 05 09  	addi	a0, a0, 0x90
   12ae6: 07 04 85 e2  	vl8r.v	v8, (a0)
   12aea: 27 74 07 02  	vse64.v	v8, (a4)
   12aee: 73 25 20 c2  	csrr	a0, vlenb
   12af2: 13 06 80 07  	li	a2, 0x78
   12af6: 33 05 c5 02  	mul	a0, a0, a2
   12afa: 0a 95        	add	a0, a0, sp
   12afc: 13 05 05 09  	addi	a0, a0, 0x90
   12b00: 07 04 85 e2  	vl8r.v	v8, (a0)
   12b04: 27 74 03 02  	vse64.v	v8, (t1)
   12b08: 73 25 20 c2  	csrr	a0, vlenb
   12b0c: 13 06 80 03  	li	a2, 0x38
   12b10: 33 05 c5 02  	mul	a0, a0, a2
   12b14: 0a 95        	add	a0, a0, sp
   12b16: 13 05 05 09  	addi	a0, a0, 0x90
   12b1a: 07 04 85 e2  	vl8r.v	v8, (a0)
   12b1e: 27 74 0e 02  	vse64.v	v8, (t3)
   12b22: 73 25 20 c2  	csrr	a0, vlenb
   12b26: 1a 05        	slli	a0, a0, 0x6
   12b28: 0a 95        	add	a0, a0, sp
   12b2a: 13 05 05 09  	addi	a0, a0, 0x90
   12b2e: 07 04 85 e2  	vl8r.v	v8, (a0)
   12b32: 27 f4 03 02  	vse64.v	v8, (t2)
   12b36: 73 25 20 c2  	csrr	a0, vlenb
   12b3a: 13 06 00 09  	li	a2, 0x90
   12b3e: 33 05 c5 02  	mul	a0, a0, a2
   12b42: 0a 95        	add	a0, a0, sp
   12b44: 13 05 05 09  	addi	a0, a0, 0x90
   12b48: 07 04 85 e2  	vl8r.v	v8, (a0)
   12b4c: 27 74 0d 02  	vse64.v	v8, (s10)
   12b50: 73 25 20 c2  	csrr	a0, vlenb
   12b54: 13 06 80 08  	li	a2, 0x88
   12b58: 33 05 c5 02  	mul	a0, a0, a2
   12b5c: 0a 95        	add	a0, a0, sp
   12b5e: 13 05 05 09  	addi	a0, a0, 0x90
   12b62: 07 04 85 e2  	vl8r.v	v8, (a0)
   12b66: 27 f4 0d 02  	vse64.v	v8, (s11)
   12b6a: 73 25 20 c2  	csrr	a0, vlenb
   12b6e: 13 06 80 04  	li	a2, 0x48
   12b72: 33 05 c5 02  	mul	a0, a0, a2
   12b76: 0a 95        	add	a0, a0, sp
   12b78: 13 05 05 09  	addi	a0, a0, 0x90
   12b7c: 07 04 85 e2  	vl8r.v	v8, (a0)
   12b80: 27 f4 00 02  	vse64.v	v8, (ra)
   12b84: 73 25 20 c2  	csrr	a0, vlenb
   12b88: 13 06 00 05  	li	a2, 0x50
   12b8c: 33 05 c5 02  	mul	a0, a0, a2
   12b90: 0a 95        	add	a0, a0, sp
   12b92: 13 05 05 09  	addi	a0, a0, 0x90
   12b96: 07 04 85 e2  	vl8r.v	v8, (a0)
   12b9a: 27 74 09 02  	vse64.v	v8, (s2)
   12b9e: 66 94        	add	s0, s0, s9
   12ba0: e6 94        	add	s1, s1, s9
   12ba2: e3 17 84 85  	bne	s0, s8, 0x123f0 <scalar_dgemm+0x276>
   12ba6: 46 75        	ld	a0, 0x70(sp)
   12ba8: 2a 87        	mv	a4, a0
   12baa: 4e 83        	mv	t1, s3
   12bac: d2 87        	mv	a5, s4
   12bae: d6 83        	mv	t2, s5
   12bb0: 06 7e        	ld	t3, 0x60(sp)
   12bb2: 66 76        	ld	a2, 0x78(sp)
   12bb4: 63 0c c5 ff  	beq	a0, t3, 0x123ac <scalar_dgemm+0x232>
   12bb8: 93 16 37 00  	slli	a3, a4, 0x3
   12bbc: 33 85 d3 00  	add	a0, t2, a3
   12bc0: da 96        	add	a3, a3, s6
   12bc2: 33 07 ee 40  	sub	a4, t3, a4
   12bc6: 98 22        	fld	fa4, 0x0(a3)
   12bc8: 14 21        	fld	fa3, 0x0(a0)
   12bca: 43 f7 e7 6a  	fmadd.d	fa4, fa5, fa4, fa3
   12bce: 18 a1        	fsd	fa4, 0x0(a0)
   12bd0: 21 05        	addi	a0, a0, 0x8
   12bd2: 7d 17        	addi	a4, a4, -0x1
   12bd4: a1 06        	addi	a3, a3, 0x8
   12bd6: 65 fb        	bnez	a4, 0x12bc6 <scalar_dgemm+0xa4c>
   12bd8: 6f f0 4f fd  	j	0x123ac <scalar_dgemm+0x232>
   12bdc: 63 5a c0 17  	blez	t3, 0x12d50 <scalar_dgemm+0xbd6>
   12be0: 81 43        	li	t2, 0x0
   12be2: b7 06 00 80  	lui	a3, 0x80000
   12be6: 9b 86 06 f0  	addiw	a3, a3, -0x100
   12bea: b3 78 de 00  	and	a7, t3, a3
   12bee: 13 13 35 00  	slli	t1, a0, 0x3
   12bf2: 13 95 38 00  	slli	a0, a7, 0x3
   12bf6: 13 05 05 80  	addi	a0, a0, -0x800
   12bfa: 93 02 f5 7f  	addi	t0, a0, 0x7ff
   12bfe: 85 02        	addi	t0, t0, 0x1
   12c00: 13 08 00 10  	li	a6, 0x100
   12c04: 46 64        	ld	s0, 0x50(sp)
   12c06: 31 a0        	j	0x12c12 <scalar_dgemm+0xa98>
   12c08: 85 03        	addi	t2, t2, 0x1
   12c0a: 1a 94        	add	s0, s0, t1
   12c0c: 26 65        	ld	a0, 0x48(sp)
   12c0e: 63 81 a3 14  	beq	t2, a0, 0x12d50 <scalar_dgemm+0xbd6>
   12c12: 63 74 0e 01  	bgeu	t3, a6, 0x12c1a <scalar_dgemm+0xaa0>
   12c16: 01 47        	li	a4, 0x0
   12c18: 39 aa        	j	0x12d36 <scalar_dgemm+0xbbc>
   12c1a: 33 05 73 02  	mul	a0, t1, t2
   12c1e: 16 95        	add	a0, a0, t0
   12c20: c6 64        	ld	s1, 0x50(sp)
   12c22: aa 94        	add	s1, s1, a0
   12c24: 57 70 b8 cd  	vsetivli	zero, 0x10, e64, m8, ta, ma
   12c28: 22 87        	mv	a4, s0
   12c2a: 07 7c 07 02  	vle64.v	v24, (a4)
   12c2e: 13 05 07 78  	addi	a0, a4, 0x780
   12c32: 07 78 05 02  	vle64.v	v16, (a0)
   12c36: 93 06 07 70  	addi	a3, a4, 0x700
   12c3a: 07 f4 06 02  	vle64.v	v8, (a3)
   12c3e: 93 07 07 68  	addi	a5, a4, 0x680
   12c42: 57 dc 85 93  	vfmul.vf	v24, v24, fa1
   12c46: 27 7c 07 02  	vse64.v	v24, (a4)
   12c4a: 07 fc 07 02  	vle64.v	v24, (a5)
   12c4e: 13 06 07 58  	addi	a2, a4, 0x580
   12c52: 57 d8 05 93  	vfmul.vf	v16, v16, fa1
   12c56: 27 78 05 02  	vse64.v	v16, (a0)
   12c5a: 07 78 06 02  	vle64.v	v16, (a2)
   12c5e: 13 05 07 50  	addi	a0, a4, 0x500
   12c62: 57 d4 85 92  	vfmul.vf	v8, v8, fa1
   12c66: 27 f4 06 02  	vse64.v	v8, (a3)
   12c6a: 07 74 05 02  	vle64.v	v8, (a0)
   12c6e: 93 06 07 48  	addi	a3, a4, 0x480
   12c72: 57 dc 85 93  	vfmul.vf	v24, v24, fa1
   12c76: 27 fc 07 02  	vse64.v	v24, (a5)
   12c7a: 07 fc 06 02  	vle64.v	v24, (a3)
   12c7e: 93 07 07 40  	addi	a5, a4, 0x400
   12c82: 57 d8 05 93  	vfmul.vf	v16, v16, fa1
   12c86: 27 78 06 02  	vse64.v	v16, (a2)
   12c8a: 07 f8 07 02  	vle64.v	v16, (a5)
   12c8e: 13 06 07 38  	addi	a2, a4, 0x380
   12c92: 57 d4 85 92  	vfmul.vf	v8, v8, fa1
   12c96: 27 74 05 02  	vse64.v	v8, (a0)
   12c9a: 07 74 06 02  	vle64.v	v8, (a2)
   12c9e: 13 05 07 30  	addi	a0, a4, 0x300
   12ca2: 57 dc 85 93  	vfmul.vf	v24, v24, fa1
   12ca6: 27 fc 06 02  	vse64.v	v24, (a3)
   12caa: 07 7c 05 02  	vle64.v	v24, (a0)
   12cae: 93 06 07 28  	addi	a3, a4, 0x280
   12cb2: 57 d8 05 93  	vfmul.vf	v16, v16, fa1
   12cb6: 27 f8 07 02  	vse64.v	v16, (a5)
   12cba: 07 f8 06 02  	vle64.v	v16, (a3)
   12cbe: 93 07 07 20  	addi	a5, a4, 0x200
   12cc2: 57 d4 85 92  	vfmul.vf	v8, v8, fa1
   12cc6: 27 74 06 02  	vse64.v	v8, (a2)
   12cca: 07 f4 07 02  	vle64.v	v8, (a5)
   12cce: 13 06 07 18  	addi	a2, a4, 0x180
   12cd2: 57 dc 85 93  	vfmul.vf	v24, v24, fa1
   12cd6: 27 7c 05 02  	vse64.v	v24, (a0)
   12cda: 07 7c 06 02  	vle64.v	v24, (a2)
   12cde: 13 05 07 10  	addi	a0, a4, 0x100
   12ce2: 57 d8 05 93  	vfmul.vf	v16, v16, fa1
   12ce6: 27 f8 06 02  	vse64.v	v16, (a3)
   12cea: 07 78 05 02  	vle64.v	v16, (a0)
   12cee: 93 06 07 08  	addi	a3, a4, 0x80
   12cf2: 57 d4 85 92  	vfmul.vf	v8, v8, fa1
   12cf6: 27 f4 07 02  	vse64.v	v8, (a5)
   12cfa: 07 f4 06 02  	vle64.v	v8, (a3)
   12cfe: 93 07 07 60  	addi	a5, a4, 0x600
   12d02: 57 dc 85 93  	vfmul.vf	v24, v24, fa1
   12d06: 27 7c 06 02  	vse64.v	v24, (a2)
   12d0a: 07 fc 07 02  	vle64.v	v24, (a5)
   12d0e: 57 d8 05 93  	vfmul.vf	v16, v16, fa1
   12d12: 27 78 05 02  	vse64.v	v16, (a0)
   12d16: 57 d4 85 92  	vfmul.vf	v8, v8, fa1
   12d1a: 27 f4 06 02  	vse64.v	v8, (a3)
   12d1e: 57 d4 85 93  	vfmul.vf	v8, v24, fa1
   12d22: 13 07 f7 7f  	addi	a4, a4, 0x7ff
   12d26: 05 07        	addi	a4, a4, 0x1
   12d28: 27 f4 07 02  	vse64.v	v8, (a5)
   12d2c: e3 1f 97 ee  	bne	a4, s1, 0x12c2a <scalar_dgemm+0xab0>
   12d30: 46 87        	mv	a4, a7
   12d32: e3 8b c8 ed  	beq	a7, t3, 0x12c08 <scalar_dgemm+0xa8e>
   12d36: 13 15 37 00  	slli	a0, a4, 0x3
   12d3a: 22 95        	add	a0, a0, s0
   12d3c: 33 07 ee 40  	sub	a4, t3, a4
   12d40: 1c 21        	fld	fa5, 0x0(a0)
   12d42: d3 f7 b7 12  	fmul.d	fa5, fa5, fa1
   12d46: 1c a1        	fsd	fa5, 0x0(a0)
   12d48: 7d 17        	addi	a4, a4, -0x1
   12d4a: 21 05        	addi	a0, a0, 0x8
   12d4c: 75 fb        	bnez	a4, 0x12d40 <scalar_dgemm+0xbc6>
   12d4e: 6d bd        	j	0x12c08 <scalar_dgemm+0xa8e>
   12d50: 73 25 20 c2  	csrr	a0, vlenb
   12d54: 93 05 80 09  	li	a1, 0x98
   12d58: 33 05 b5 02  	mul	a0, a0, a1
   12d5c: 2a 91        	add	sp, sp, a0
   12d5e: ee 70        	ld	ra, 0xf8(sp)
   12d60: 4e 74        	ld	s0, 0xf0(sp)
   12d62: ae 74        	ld	s1, 0xe8(sp)
   12d64: 0e 79        	ld	s2, 0xe0(sp)
   12d66: ee 69        	ld	s3, 0xd8(sp)
   12d68: 4e 6a        	ld	s4, 0xd0(sp)
   12d6a: ae 6a        	ld	s5, 0xc8(sp)
   12d6c: 0e 6b        	ld	s6, 0xc0(sp)
   12d6e: ea 7b        	ld	s7, 0xb8(sp)
   12d70: 4a 7c        	ld	s8, 0xb0(sp)
   12d72: aa 7c        	ld	s9, 0xa8(sp)
   12d74: 0a 7d        	ld	s10, 0xa0(sp)
   12d76: ea 6d        	ld	s11, 0x98(sp)
   12d78: 11 61        	addi	sp, sp, 0x100
   12d7a: 82 80        	ret

0000000000012d7c <print_matrix>:
   12d7c: 5d 71        	addi	sp, sp, -0x50
   12d7e: 86 e4        	sd	ra, 0x48(sp)
   12d80: a2 e0        	sd	s0, 0x40(sp)
   12d82: 26 fc        	sd	s1, 0x38(sp)
   12d84: 4a f8        	sd	s2, 0x30(sp)
   12d86: 4e f4        	sd	s3, 0x28(sp)
   12d88: 52 f0        	sd	s4, 0x20(sp)
   12d8a: 56 ec        	sd	s5, 0x18(sp)
   12d8c: 5a e8        	sd	s6, 0x10(sp)
   12d8e: 5e e4        	sd	s7, 0x8(sp)
   12d90: 62 e0        	sd	s8, 0x0(sp)
   12d92: b6 89        	mv	s3, a3
   12d94: 32 8a        	mv	s4, a2
   12d96: 2e 89        	mv	s2, a1
   12d98: aa 85        	mv	a1, a0
   12d9a: 37 05 01 00  	lui	a0, 0x10
   12d9e: 13 05 25 20  	addi	a0, a0, 0x202
   12da2: ef 10 e0 6e  	jal	0x14490 <printf>
   12da6: 63 59 40 05  	blez	s4, 0x12df8 <print_matrix+0x7c>
   12daa: 63 51 30 05  	blez	s3, 0x12dec <print_matrix+0x70>
   12dae: 81 4a        	li	s5, 0x0
   12db0: 81 4b        	li	s7, 0x0
   12db2: 13 9b 39 00  	slli	s6, s3, 0x3
   12db6: 4a 9b        	add	s6, s6, s2
   12db8: 37 05 01 00  	lui	a0, 0x10
   12dbc: 13 0c 45 24  	addi	s8, a0, 0x244
   12dc0: 13 95 0a 02  	slli	a0, s5, 0x20
   12dc4: 75 81        	srli	a0, a0, 0x1d
   12dc6: 33 04 ab 00  	add	s0, s6, a0
   12dca: b3 04 a9 00  	add	s1, s2, a0
   12dce: 8c 60        	ld	a1, 0x0(s1)
   12dd0: 62 85        	mv	a0, s8
   12dd2: ef 10 e0 6b  	jal	0x14490 <printf>
   12dd6: a1 04        	addi	s1, s1, 0x8
   12dd8: e3 9b 84 fe  	bne	s1, s0, 0x12dce <print_matrix+0x52>
   12ddc: 29 45        	li	a0, 0xa
   12dde: ef 60 30 5f  	jal	0x19bd0 <putchar>
   12de2: 85 0b        	addi	s7, s7, 0x1
   12de4: ce 9a        	add	s5, s5, s3
   12de6: e3 9d 4b fd  	bne	s7, s4, 0x12dc0 <print_matrix+0x44>
   12dea: 39 a0        	j	0x12df8 <print_matrix+0x7c>
   12dec: 29 45        	li	a0, 0xa
   12dee: ef 60 30 5e  	jal	0x19bd0 <putchar>
   12df2: 7d 3a        	addiw	s4, s4, -0x1
   12df4: e3 1c 0a fe  	bnez	s4, 0x12dec <print_matrix+0x70>
   12df8: 29 45        	li	a0, 0xa
   12dfa: a6 60        	ld	ra, 0x48(sp)
   12dfc: 06 64        	ld	s0, 0x40(sp)
   12dfe: e2 74        	ld	s1, 0x38(sp)
   12e00: 42 79        	ld	s2, 0x30(sp)
   12e02: a2 79        	ld	s3, 0x28(sp)
   12e04: 02 7a        	ld	s4, 0x20(sp)
   12e06: e2 6a        	ld	s5, 0x18(sp)
   12e08: 42 6b        	ld	s6, 0x10(sp)
   12e0a: a2 6b        	ld	s7, 0x8(sp)
   12e0c: 02 6c        	ld	s8, 0x0(sp)
   12e0e: 61 61        	addi	sp, sp, 0x50
   12e10: 6f 60 10 5c  	j	0x19bd0 <putchar>

0000000000012e14 <main>:
   12e14: 49 71        	addi	sp, sp, -0x170
   12e16: 86 f6        	sd	ra, 0x168(sp)
   12e18: a2 f2        	sd	s0, 0x160(sp)
   12e1a: a6 ee        	sd	s1, 0x158(sp)
   12e1c: ca ea        	sd	s2, 0x150(sp)
   12e1e: ce e6        	sd	s3, 0x148(sp)
   12e20: d2 e2        	sd	s4, 0x140(sp)
   12e22: 56 fe        	sd	s5, 0x138(sp)
   12e24: 5a fa        	sd	s6, 0x130(sp)
   12e26: 5e f6        	sd	s7, 0x128(sp)
   12e28: 62 f2        	sd	s8, 0x120(sp)
   12e2a: 66 ee        	sd	s9, 0x118(sp)
   12e2c: 6a ea        	sd	s10, 0x110(sp)
   12e2e: 28 09        	addi	a0, sp, 0x98
   12e30: 57 70 a4 cd  	vsetivli	zero, 0x8, e64, m4, ta, ma
   12e34: 57 34 00 5e  	vmv.v.i	v8, 0x0
   12e38: 27 74 05 02  	vse64.v	v8, (a0)
   12e3c: a8 09        	addi	a0, sp, 0xd8
   12e3e: 57 70 81 cd  	vsetivli	zero, 0x2, e64, m1, ta, ma
   12e42: 57 34 00 5e  	vmv.v.i	v8, 0x0
   12e46: 27 74 05 02  	vse64.v	v8, (a0)
   12e4a: a8 19        	addi	a0, sp, 0xf8
   12e4c: 27 74 05 02  	vse64.v	v8, (a0)
   12e50: a8 11        	addi	a0, sp, 0xe8
   12e52: 27 74 05 02  	vse64.v	v8, (a0)
   12e56: 13 0b f0 3f  	li	s6, 0x3ff
   12e5a: 52 1b        	slli	s6, s6, 0x34
   12e5c: 5a e9        	sd	s6, 0x90(sp)
   12e5e: 5a fd        	sd	s6, 0xb8(sp)
   12e60: da f1        	sd	s6, 0xe0(sp)
   12e62: 5a e6        	sd	s6, 0x108(sp)
   12e64: 57 70 b8 cd  	vsetivli	zero, 0x10, e64, m8, ta, ma
   12e68: 57 34 00 5e  	vmv.v.i	v8, 0x0
   12e6c: 08 08        	addi	a0, sp, 0x10
   12e6e: 27 74 05 02  	vse64.v	v8, (a0)
   12e72: 37 05 01 00  	lui	a0, 0x10
   12e76: 13 05 e5 20  	addi	a0, a0, 0x20e
   12e7a: ef 60 70 77  	jal	0x19df0 <puts>
   12e7e: 73 25 00 c0  	rdcycle	a0
   12e82: 37 0d 02 00  	lui	s10, 0x20
   12e86: 23 34 ad b8  	sd	a0, -0x478(s10)
   12e8a: 91 44        	li	s1, 0x4
   12e8c: 37 05 01 00  	lui	a0, 0x10
   12e90: 93 06 05 25  	addi	a3, a0, 0x250
   12e94: 37 05 02 00  	lui	a0, 0x20
   12e98: 07 35 05 b8  	fld	fa0, -0x480(a0)
   12e9c: d3 05 00 f2  	fmv.d.x	fa1, zero
   12ea0: 11 45        	li	a0, 0x4
   12ea2: 91 45        	li	a1, 0x4
   12ea4: 11 46        	li	a2, 0x4
   12ea6: 11 47        	li	a4, 0x4
   12ea8: 1c 09        	addi	a5, sp, 0x90
   12eaa: 11 48        	li	a6, 0x4
   12eac: 93 08 01 01  	addi	a7, sp, 0x10
   12eb0: 26 e0        	sd	s1, 0x0(sp)
   12eb2: ef f0 8f ac  	jal	0x1217a <scalar_dgemm>
   12eb6: 73 25 00 c0  	rdcycle	a0
   12eba: 83 35 8d b8  	ld	a1, -0x478(s10)
   12ebe: 0d 8d        	sub	a0, a0, a1
   12ec0: 23 34 ad b8  	sd	a0, -0x478(s10)
   12ec4: 37 05 01 00  	lui	a0, 0x10
   12ec8: 13 09 25 20  	addi	s2, a0, 0x202
   12ecc: 37 05 01 00  	lui	a0, 0x10
   12ed0: 93 05 05 20  	addi	a1, a0, 0x200
   12ed4: 4a 85        	mv	a0, s2
   12ed6: ef 10 a0 5b  	jal	0x14490 <printf>
   12eda: 37 05 01 00  	lui	a0, 0x10
   12ede: 13 04 45 24  	addi	s0, a0, 0x244
   12ee2: 22 85        	mv	a0, s0
   12ee4: da 85        	mv	a1, s6
   12ee6: ef 10 a0 5a  	jal	0x14490 <printf>
   12eea: 85 49        	li	s3, 0x1
   12eec: fa 19        	slli	s3, s3, 0x3e
   12eee: 22 85        	mv	a0, s0
   12ef0: ce 85        	mv	a1, s3
   12ef2: ef 10 e0 59  	jal	0x14490 <printf>
   12ef6: 37 1a 80 00  	lui	s4, 0x801
   12efa: 1e 1a        	slli	s4, s4, 0x27
   12efc: 22 85        	mv	a0, s0
   12efe: d2 85        	mv	a1, s4
   12f00: ef 10 00 59  	jal	0x14490 <printf>
   12f04: 93 0a 10 40  	li	s5, 0x401
   12f08: d2 1a        	slli	s5, s5, 0x34
   12f0a: 22 85        	mv	a0, s0
   12f0c: d6 85        	mv	a1, s5
   12f0e: ef 10 20 58  	jal	0x14490 <printf>
   12f12: 29 45        	li	a0, 0xa
   12f14: ef 60 d0 4b  	jal	0x19bd0 <putchar>
   12f18: b7 5b 00 01  	lui	s7, 0x1005
   12f1c: 9a 1b        	slli	s7, s7, 0x26
   12f1e: 22 85        	mv	a0, s0
   12f20: de 85        	mv	a1, s7
   12f22: ef 10 e0 56  	jal	0x14490 <printf>
   12f26: 37 3c 80 00  	lui	s8, 0x803
   12f2a: 1e 1c        	slli	s8, s8, 0x27
   12f2c: 22 85        	mv	a0, s0
   12f2e: e2 85        	mv	a1, s8
   12f30: ef 10 00 56  	jal	0x14490 <printf>
   12f34: b7 7c 00 01  	lui	s9, 0x1007
   12f38: 9a 1c        	slli	s9, s9, 0x26
   12f3a: 22 85        	mv	a0, s0
   12f3c: e6 85        	mv	a1, s9
   12f3e: ef 10 20 55  	jal	0x14490 <printf>
   12f42: 93 04 10 20  	li	s1, 0x201
   12f46: d6 14        	slli	s1, s1, 0x35
   12f48: 22 85        	mv	a0, s0
   12f4a: a6 85        	mv	a1, s1
   12f4c: ef 10 40 54  	jal	0x14490 <printf>
   12f50: 29 45        	li	a0, 0xa
   12f52: ef 60 f0 47  	jal	0x19bd0 <putchar>
   12f56: b7 15 01 02  	lui	a1, 0x2011
   12f5a: 96 15        	slli	a1, a1, 0x25
   12f5c: 22 85        	mv	a0, s0
   12f5e: ef 10 20 53  	jal	0x14490 <printf>
   12f62: 22 85        	mv	a0, s0
   12f64: a6 85        	mv	a1, s1
   12f66: ef 10 a0 52  	jal	0x14490 <printf>
   12f6a: 22 85        	mv	a0, s0
   12f6c: e6 85        	mv	a1, s9
   12f6e: ef 10 20 52  	jal	0x14490 <printf>
   12f72: 22 85        	mv	a0, s0
   12f74: e2 85        	mv	a1, s8
   12f76: ef 10 a0 51  	jal	0x14490 <printf>
   12f7a: 29 45        	li	a0, 0xa
   12f7c: ef 60 50 45  	jal	0x19bd0 <putchar>
   12f80: 22 85        	mv	a0, s0
   12f82: de 85        	mv	a1, s7
   12f84: ef 10 c0 50  	jal	0x14490 <printf>
   12f88: 22 85        	mv	a0, s0
   12f8a: d6 85        	mv	a1, s5
   12f8c: ef 10 40 50  	jal	0x14490 <printf>
   12f90: 22 85        	mv	a0, s0
   12f92: d2 85        	mv	a1, s4
   12f94: ef 10 c0 4f  	jal	0x14490 <printf>
   12f98: 22 85        	mv	a0, s0
   12f9a: ce 85        	mv	a1, s3
   12f9c: ef 10 40 4f  	jal	0x14490 <printf>
   12fa0: 29 45        	li	a0, 0xa
   12fa2: ef 60 f0 42  	jal	0x19bd0 <putchar>
   12fa6: 29 45        	li	a0, 0xa
   12fa8: ef 60 90 42  	jal	0x19bd0 <putchar>
   12fac: 37 05 01 00  	lui	a0, 0x10
   12fb0: 93 05 85 22  	addi	a1, a0, 0x228
   12fb4: 4a 85        	mv	a0, s2
   12fb6: ef 10 a0 4d  	jal	0x14490 <printf>
   12fba: 22 85        	mv	a0, s0
   12fbc: da 85        	mv	a1, s6
   12fbe: ef 10 20 4d  	jal	0x14490 <printf>
   12fc2: 22 85        	mv	a0, s0
   12fc4: 81 45        	li	a1, 0x0
   12fc6: ef 10 a0 4c  	jal	0x14490 <printf>
   12fca: 22 85        	mv	a0, s0
   12fcc: 81 45        	li	a1, 0x0
   12fce: ef 10 20 4c  	jal	0x14490 <printf>
   12fd2: 22 85        	mv	a0, s0
   12fd4: 81 45        	li	a1, 0x0
   12fd6: ef 10 a0 4b  	jal	0x14490 <printf>
   12fda: 29 45        	li	a0, 0xa
   12fdc: ef 60 50 3f  	jal	0x19bd0 <putchar>
   12fe0: 22 85        	mv	a0, s0
   12fe2: 81 45        	li	a1, 0x0
   12fe4: ef 10 c0 4a  	jal	0x14490 <printf>
   12fe8: 22 85        	mv	a0, s0
   12fea: da 85        	mv	a1, s6
   12fec: ef 10 40 4a  	jal	0x14490 <printf>
   12ff0: 22 85        	mv	a0, s0
   12ff2: 81 45        	li	a1, 0x0
   12ff4: ef 10 c0 49  	jal	0x14490 <printf>
   12ff8: 22 85        	mv	a0, s0
   12ffa: 81 45        	li	a1, 0x0
   12ffc: ef 10 40 49  	jal	0x14490 <printf>
   13000: 29 45        	li	a0, 0xa
   13002: ef 60 f0 3c  	jal	0x19bd0 <putchar>
   13006: 22 85        	mv	a0, s0
   13008: 81 45        	li	a1, 0x0
   1300a: ef 10 60 48  	jal	0x14490 <printf>
   1300e: 22 85        	mv	a0, s0
   13010: 81 45        	li	a1, 0x0
   13012: ef 10 e0 47  	jal	0x14490 <printf>
   13016: 22 85        	mv	a0, s0
   13018: da 85        	mv	a1, s6
   1301a: ef 10 60 47  	jal	0x14490 <printf>
   1301e: 22 85        	mv	a0, s0
   13020: 81 45        	li	a1, 0x0
   13022: ef 10 e0 46  	jal	0x14490 <printf>
   13026: 29 45        	li	a0, 0xa
   13028: ef 60 90 3a  	jal	0x19bd0 <putchar>
   1302c: 22 85        	mv	a0, s0
   1302e: 81 45        	li	a1, 0x0
   13030: ef 10 00 46  	jal	0x14490 <printf>
   13034: 22 85        	mv	a0, s0
   13036: 81 45        	li	a1, 0x0
   13038: ef 10 80 45  	jal	0x14490 <printf>
   1303c: 22 85        	mv	a0, s0
   1303e: 81 45        	li	a1, 0x0
   13040: ef 10 00 45  	jal	0x14490 <printf>
   13044: 22 85        	mv	a0, s0
   13046: da 85        	mv	a1, s6
   13048: ef 10 80 44  	jal	0x14490 <printf>
   1304c: 29 45        	li	a0, 0xa
   1304e: ef 60 30 38  	jal	0x19bd0 <putchar>
   13052: 29 45        	li	a0, 0xa
   13054: ef 60 d0 37  	jal	0x19bd0 <putchar>
   13058: 37 05 01 00  	lui	a0, 0x10
   1305c: 93 05 95 23  	addi	a1, a0, 0x239
   13060: 4a 85        	mv	a0, s2
   13062: ef 10 e0 42  	jal	0x14490 <printf>
   13066: c2 65        	ld	a1, 0x10(sp)
   13068: 22 85        	mv	a0, s0
   1306a: ef 10 60 42  	jal	0x14490 <printf>
   1306e: e2 65        	ld	a1, 0x18(sp)
   13070: 22 85        	mv	a0, s0
   13072: ef 10 e0 41  	jal	0x14490 <printf>
   13076: 82 75        	ld	a1, 0x20(sp)
   13078: 22 85        	mv	a0, s0
   1307a: ef 10 60 41  	jal	0x14490 <printf>
   1307e: a2 75        	ld	a1, 0x28(sp)
   13080: 22 85        	mv	a0, s0
   13082: ef 10 e0 40  	jal	0x14490 <printf>
   13086: 29 45        	li	a0, 0xa
   13088: ef 60 90 34  	jal	0x19bd0 <putchar>
   1308c: c2 75        	ld	a1, 0x30(sp)
   1308e: 22 85        	mv	a0, s0
   13090: ef 10 00 40  	jal	0x14490 <printf>
   13094: e2 75        	ld	a1, 0x38(sp)
   13096: 22 85        	mv	a0, s0
   13098: ef 10 80 3f  	jal	0x14490 <printf>
   1309c: 86 65        	ld	a1, 0x40(sp)
   1309e: 22 85        	mv	a0, s0
   130a0: ef 10 00 3f  	jal	0x14490 <printf>
   130a4: a6 65        	ld	a1, 0x48(sp)
   130a6: 22 85        	mv	a0, s0
   130a8: ef 10 80 3e  	jal	0x14490 <printf>
   130ac: 29 45        	li	a0, 0xa
   130ae: ef 60 30 32  	jal	0x19bd0 <putchar>
   130b2: c6 65        	ld	a1, 0x50(sp)
   130b4: 22 85        	mv	a0, s0
   130b6: ef 10 a0 3d  	jal	0x14490 <printf>
   130ba: e6 65        	ld	a1, 0x58(sp)
   130bc: 22 85        	mv	a0, s0
   130be: ef 10 20 3d  	jal	0x14490 <printf>
   130c2: 86 75        	ld	a1, 0x60(sp)
   130c4: 22 85        	mv	a0, s0
   130c6: ef 10 a0 3c  	jal	0x14490 <printf>
   130ca: a6 75        	ld	a1, 0x68(sp)
   130cc: 22 85        	mv	a0, s0
   130ce: ef 10 20 3c  	jal	0x14490 <printf>
   130d2: 29 45        	li	a0, 0xa
   130d4: ef 60 d0 2f  	jal	0x19bd0 <putchar>
   130d8: c6 75        	ld	a1, 0x70(sp)
   130da: 22 85        	mv	a0, s0
   130dc: ef 10 40 3b  	jal	0x14490 <printf>
   130e0: e6 75        	ld	a1, 0x78(sp)
   130e2: 22 85        	mv	a0, s0
   130e4: ef 10 c0 3a  	jal	0x14490 <printf>
   130e8: 8a 65        	ld	a1, 0x80(sp)
   130ea: 22 85        	mv	a0, s0
   130ec: ef 10 40 3a  	jal	0x14490 <printf>
   130f0: aa 65        	ld	a1, 0x88(sp)
   130f2: 22 85        	mv	a0, s0
   130f4: ef 10 c0 39  	jal	0x14490 <printf>
   130f8: 29 45        	li	a0, 0xa
   130fa: ef 60 70 2d  	jal	0x19bd0 <putchar>
   130fe: 29 45        	li	a0, 0xa
   13100: ef 60 10 2d  	jal	0x19bd0 <putchar>
   13104: 83 35 8d b8  	ld	a1, -0x478(s10)
   13108: 37 05 01 00  	lui	a0, 0x10
   1310c: 13 05 a5 22  	addi	a0, a0, 0x22a
   13110: ef 10 00 38  	jal	0x14490 <printf>
   13114: 01 45        	li	a0, 0x0
   13116: b6 70        	ld	ra, 0x168(sp)
   13118: 16 74        	ld	s0, 0x160(sp)
   1311a: f6 64        	ld	s1, 0x158(sp)
   1311c: 56 69        	ld	s2, 0x150(sp)
   1311e: b6 69        	ld	s3, 0x148(sp)
   13120: 16 6a        	ld	s4, 0x140(sp)
   13122: f2 7a        	ld	s5, 0x138(sp)
   13124: 52 7b        	ld	s6, 0x130(sp)
   13126: b2 7b        	ld	s7, 0x128(sp)
   13128: 12 7c        	ld	s8, 0x120(sp)
   1312a: f2 6c        	ld	s9, 0x118(sp)
   1312c: 52 6d        	ld	s10, 0x110(sp)
   1312e: 75 61        	addi	sp, sp, 0x170
   13130: 82 80        	ret

0000000000013132 <atexit>:
   13132: aa 85        	mv	a1, a0
   13134: 81 46        	li	a3, 0x0
   13136: 01 46        	li	a2, 0x0
   13138: 01 45        	li	a0, 0x0
   1313a: 09 a0        	j	0x1313c <__register_exitproc>

000000000001313c <__register_exitproc>:
   1313c: 79 71        	addi	sp, sp, -0x30
   1313e: 52 e0        	sd	s4, 0x0(sp)
   13140: 17 da 00 00  	auipc	s4, 0xd
   13144: 13 0a 8a a1  	addi	s4, s4, -0x5e8
   13148: 22 f0        	sd	s0, 0x20(sp)
   1314a: 2a 84        	mv	s0, a0
   1314c: 03 35 0a 00  	ld	a0, 0x0(s4)
   13150: 26 ec        	sd	s1, 0x18(sp)
   13152: 4a e8        	sd	s2, 0x10(sp)
   13154: 4e e4        	sd	s3, 0x8(sp)
   13156: 06 f4        	sd	ra, 0x28(sp)
   13158: ae 84        	mv	s1, a1
   1315a: b2 89        	mv	s3, a2
   1315c: 36 89        	mv	s2, a3
   1315e: ef 90 80 42  	jal	0x1c586 <__retarget_lock_acquire_recursive>
   13162: 17 d7 00 00  	auipc	a4, 0xd
   13166: 13 07 e7 26  	addi	a4, a4, 0x26e
   1316a: 1c 63        	ld	a5, 0x0(a4)
   1316c: b5 c3        	beqz	a5, 0x131d0 <__register_exitproc+0x94>
   1316e: 98 47        	lw	a4, 0x8(a5)
   13170: fd 46        	li	a3, 0x1f
   13172: 03 35 0a 00  	ld	a0, 0x0(s4)
   13176: 63 c3 e6 06  	blt	a3, a4, 0x131dc <__register_exitproc+0xa0>
   1317a: 1d e0        	bnez	s0, 0x131a0 <__register_exitproc+0x64>
   1317c: 93 06 27 00  	addi	a3, a4, 0x2
   13180: 8e 06        	slli	a3, a3, 0x3
   13182: 05 27        	addiw	a4, a4, 0x1
   13184: 98 c7        	sw	a4, 0x8(a5)
   13186: b6 97        	add	a5, a5, a3
   13188: 84 e3        	sd	s1, 0x0(a5)
   1318a: ef 90 80 40  	jal	0x1c592 <__retarget_lock_release_recursive>
   1318e: 01 45        	li	a0, 0x0
   13190: a2 70        	ld	ra, 0x28(sp)
   13192: 02 74        	ld	s0, 0x20(sp)
   13194: e2 64        	ld	s1, 0x18(sp)
   13196: 42 69        	ld	s2, 0x10(sp)
   13198: a2 69        	ld	s3, 0x8(sp)
   1319a: 02 6a        	ld	s4, 0x0(sp)
   1319c: 45 61        	addi	sp, sp, 0x30
   1319e: 82 80        	ret
   131a0: 93 16 37 00  	slli	a3, a4, 0x3
   131a4: be 96        	add	a3, a3, a5
   131a6: 23 b8 36 11  	sd	s3, 0x110(a3)
   131aa: 83 a5 07 31  	lw	a1, 0x310(a5)
   131ae: 05 46        	li	a2, 0x1
   131b0: 3b 16 e6 00  	sllw	a2, a2, a4
   131b4: d1 8d        	or	a1, a1, a2
   131b6: 23 a8 b7 30  	sw	a1, 0x310(a5)
   131ba: 23 b8 26 21  	sd	s2, 0x210(a3)
   131be: 89 46        	li	a3, 0x2
   131c0: e3 1e d4 fa  	bne	s0, a3, 0x1317c <__register_exitproc+0x40>
   131c4: 83 a6 47 31  	lw	a3, 0x314(a5)
   131c8: d1 8e        	or	a3, a3, a2
   131ca: 23 aa d7 30  	sw	a3, 0x314(a5)
   131ce: 7d b7        	j	0x1317c <__register_exitproc+0x40>
   131d0: 97 d7 00 00  	auipc	a5, 0xd
   131d4: 93 87 07 9f  	addi	a5, a5, -0x610
   131d8: 1c e3        	sd	a5, 0x0(a4)
   131da: 51 bf        	j	0x1316e <__register_exitproc+0x32>
   131dc: ef 90 60 3b  	jal	0x1c592 <__retarget_lock_release_recursive>
   131e0: 7d 55        	li	a0, -0x1
   131e2: 7d b7        	j	0x13190 <__register_exitproc+0x54>

00000000000131e4 <register_fini>:
   131e4: 97 d7 fe ff  	auipc	a5, 0xfffed
   131e8: 93 87 c7 e1  	addi	a5, a5, -0x1e4
   131ec: 91 c7        	beqz	a5, 0x131f8 <register_fini+0x14>
   131ee: 17 95 00 00  	auipc	a0, 0x9
   131f2: 13 05 65 35  	addi	a0, a0, 0x356
   131f6: 35 bf        	j	0x13132 <atexit>
   131f8: 82 80        	ret

00000000000131fa <__call_exitprocs>:
   131fa: 1d 71        	addi	sp, sp, -0x60
   131fc: 5e ec        	sd	s7, 0x18(sp)
   131fe: 97 db 00 00  	auipc	s7, 0xd
   13202: 93 8b ab 95  	addi	s7, s7, -0x6a6
   13206: 5a f0        	sd	s6, 0x20(sp)
   13208: 2a 8b        	mv	s6, a0
   1320a: 03 b5 0b 00  	ld	a0, 0x0(s7)
   1320e: 52 f8        	sd	s4, 0x30(sp)
   13210: 17 da 00 00  	auipc	s4, 0xd
   13214: 13 0a 0a 1c  	addi	s4, s4, 0x1c0
   13218: ca e0        	sd	s2, 0x40(sp)
   1321a: 62 e8        	sd	s8, 0x10(sp)
   1321c: 86 ec        	sd	ra, 0x58(sp)
   1321e: 2e 8c        	mv	s8, a1
   13220: ef 90 60 36  	jal	0x1c586 <__retarget_lock_acquire_recursive>
   13224: 03 39 0a 00  	ld	s2, 0x0(s4)
   13228: 63 07 09 06  	beqz	s2, 0x13296 <__call_exitprocs+0x9c>
   1322c: 4e fc        	sd	s3, 0x38(sp)
   1322e: 56 f4        	sd	s5, 0x28(sp)
   13230: a2 e8        	sd	s0, 0x50(sp)
   13232: a6 e4        	sd	s1, 0x48(sp)
   13234: 66 e4        	sd	s9, 0x8(sp)
   13236: fd 59        	li	s3, -0x1
   13238: 85 4a        	li	s5, 0x1
   1323a: 83 24 89 00  	lw	s1, 0x8(s2)
   1323e: 1b 84 f4 ff  	addiw	s0, s1, -0x1
   13242: 63 45 04 04  	bltz	s0, 0x1328c <__call_exitprocs+0x92>
   13246: 8e 04        	slli	s1, s1, 0x3
   13248: ca 94        	add	s1, s1, s2
   1324a: 63 11 0c 06  	bnez	s8, 0x132ac <__call_exitprocs+0xb2>
   1324e: 83 27 89 00  	lw	a5, 0x8(s2)
   13252: 98 64        	ld	a4, 0x8(s1)
   13254: fd 37        	addiw	a5, a5, -0x1
   13256: 63 86 87 08  	beq	a5, s0, 0x132e2 <__call_exitprocs+0xe8>
   1325a: 23 b4 04 00  	sd	zero, 0x8(s1)
   1325e: 1d c3        	beqz	a4, 0x13284 <__call_exitprocs+0x8a>
   13260: 83 27 09 31  	lw	a5, 0x310(s2)
   13264: bb 96 8a 00  	sllw	a3, s5, s0
   13268: 83 2c 89 00  	lw	s9, 0x8(s2)
   1326c: f5 8f        	and	a5, a5, a3
   1326e: 81 27        	sext.w	a5, a5
   13270: b9 e7        	bnez	a5, 0x132be <__call_exitprocs+0xc4>
   13272: 02 97        	jalr	a4
   13274: 03 27 89 00  	lw	a4, 0x8(s2)
   13278: 83 37 0a 00  	ld	a5, 0x0(s4)
   1327c: 63 10 97 07  	bne	a4, s9, 0x132dc <__call_exitprocs+0xe2>
   13280: 63 9e 27 05  	bne	a5, s2, 0x132dc <__call_exitprocs+0xe2>
   13284: 7d 34        	addiw	s0, s0, -0x1
   13286: e1 14        	addi	s1, s1, -0x8
   13288: e3 11 34 fd  	bne	s0, s3, 0x1324a <__call_exitprocs+0x50>
   1328c: 46 64        	ld	s0, 0x50(sp)
   1328e: a6 64        	ld	s1, 0x48(sp)
   13290: e2 79        	ld	s3, 0x38(sp)
   13292: a2 7a        	ld	s5, 0x28(sp)
   13294: a2 6c        	ld	s9, 0x8(sp)
   13296: 03 b5 0b 00  	ld	a0, 0x0(s7)
   1329a: e6 60        	ld	ra, 0x58(sp)
   1329c: 06 69        	ld	s2, 0x40(sp)
   1329e: 42 7a        	ld	s4, 0x30(sp)
   132a0: 02 7b        	ld	s6, 0x20(sp)
   132a2: e2 6b        	ld	s7, 0x18(sp)
   132a4: 42 6c        	ld	s8, 0x10(sp)
   132a6: 25 61        	addi	sp, sp, 0x60
   132a8: 6f 90 a0 2e  	j	0x1c592 <__retarget_lock_release_recursive>
   132ac: 83 b7 84 20  	ld	a5, 0x208(s1)
   132b0: e3 8f 87 f9  	beq	a5, s8, 0x1324e <__call_exitprocs+0x54>
   132b4: 7d 34        	addiw	s0, s0, -0x1
   132b6: e1 14        	addi	s1, s1, -0x8
   132b8: e3 1a 34 ff  	bne	s0, s3, 0x132ac <__call_exitprocs+0xb2>
   132bc: c1 bf        	j	0x1328c <__call_exitprocs+0x92>
   132be: 83 27 49 31  	lw	a5, 0x314(s2)
   132c2: 83 b5 84 10  	ld	a1, 0x108(s1)
   132c6: f5 8f        	and	a5, a5, a3
   132c8: 81 27        	sext.w	a5, a5
   132ca: 99 ef        	bnez	a5, 0x132e8 <__call_exitprocs+0xee>
   132cc: 5a 85        	mv	a0, s6
   132ce: 02 97        	jalr	a4
   132d0: 03 27 89 00  	lw	a4, 0x8(s2)
   132d4: 83 37 0a 00  	ld	a5, 0x0(s4)
   132d8: e3 04 97 fb  	beq	a4, s9, 0x13280 <__call_exitprocs+0x86>
   132dc: c5 db        	beqz	a5, 0x1328c <__call_exitprocs+0x92>
   132de: 3e 89        	mv	s2, a5
   132e0: a9 bf        	j	0x1323a <__call_exitprocs+0x40>
   132e2: 23 24 89 00  	sw	s0, 0x8(s2)
   132e6: a5 bf        	j	0x1325e <__call_exitprocs+0x64>
   132e8: 2e 85        	mv	a0, a1
   132ea: 02 97        	jalr	a4
   132ec: 61 b7        	j	0x13274 <__call_exitprocs+0x7a>

00000000000132ee <exit>:
   132ee: 41 11        	addi	sp, sp, -0x10
   132f0: 81 45        	li	a1, 0x0
   132f2: 22 e0        	sd	s0, 0x0(sp)
   132f4: 06 e4        	sd	ra, 0x8(sp)
   132f6: 2a 84        	mv	s0, a0
   132f8: ef f0 3f f0  	jal	0x131fa <__call_exitprocs>
   132fc: 97 d7 00 00  	auipc	a5, 0xd
   13300: 83 b7 c7 0d  	ld	a5, 0xdc(a5)
   13304: 91 c3        	beqz	a5, 0x13308 <exit+0x1a>
   13306: 82 97        	jalr	a5
   13308: 22 85        	mv	a0, s0
   1330a: ef 90 30 03  	jal	0x1cb3c <_exit>

000000000001330e <stdio_exit_handler>:
   1330e: 17 c6 00 00  	auipc	a2, 0xc
   13312: 13 06 a6 cf  	addi	a2, a2, -0x306
   13316: 97 05 00 00  	auipc	a1, 0x0
   1331a: 93 85 e5 3b  	addi	a1, a1, 0x3be
   1331e: 17 c5 00 00  	auipc	a0, 0xc
   13322: 13 05 a5 6d  	addi	a0, a0, 0x6da
   13326: 6f 10 60 0c  	j	0x143ec <_fwalk_sglue>

000000000001332a <cleanup_stdio>:
   1332a: 0c 65        	ld	a1, 0x8(a0)
   1332c: 41 11        	addi	sp, sp, -0x10
   1332e: 22 e0        	sd	s0, 0x0(sp)
   13330: 06 e4        	sd	ra, 0x8(sp)
   13332: 97 d7 00 00  	auipc	a5, 0xd
   13336: 93 87 67 ba  	addi	a5, a5, -0x45a
   1333a: 2a 84        	mv	s0, a0
   1333c: 63 84 f5 00  	beq	a1, a5, 0x13344 <cleanup_stdio+0x1a>
   13340: ef 00 40 39  	jal	0x136d4 <_fclose_r>
   13344: 0c 68        	ld	a1, 0x10(s0)
   13346: 97 d7 00 00  	auipc	a5, 0xd
   1334a: 93 87 a7 c4  	addi	a5, a5, -0x3b6
   1334e: 63 85 f5 00  	beq	a1, a5, 0x13358 <cleanup_stdio+0x2e>
   13352: 22 85        	mv	a0, s0
   13354: ef 00 00 38  	jal	0x136d4 <_fclose_r>
   13358: 0c 6c        	ld	a1, 0x18(s0)
   1335a: 97 d7 00 00  	auipc	a5, 0xd
   1335e: 93 87 e7 ce  	addi	a5, a5, -0x312
   13362: 63 87 f5 00  	beq	a1, a5, 0x13370 <cleanup_stdio+0x46>
   13366: 22 85        	mv	a0, s0
   13368: 02 64        	ld	s0, 0x0(sp)
   1336a: a2 60        	ld	ra, 0x8(sp)
   1336c: 41 01        	addi	sp, sp, 0x10
   1336e: 9d a6        	j	0x136d4 <_fclose_r>
   13370: a2 60        	ld	ra, 0x8(sp)
   13372: 02 64        	ld	s0, 0x0(sp)
   13374: 41 01        	addi	sp, sp, 0x10
   13376: 82 80        	ret

0000000000013378 <__fp_lock>:
   13378: 83 a7 05 0b  	lw	a5, 0xb0(a1)
   1337c: 85 8b        	andi	a5, a5, 0x1
   1337e: 91 e7        	bnez	a5, 0x1338a <__fp_lock+0x12>
   13380: 83 d7 05 01  	lhu	a5, 0x10(a1)
   13384: 93 f7 07 20  	andi	a5, a5, 0x200
   13388: 99 c3        	beqz	a5, 0x1338e <__fp_lock+0x16>
   1338a: 01 45        	li	a0, 0x0
   1338c: 82 80        	ret
   1338e: c8 71        	ld	a0, 0xa0(a1)
   13390: 41 11        	addi	sp, sp, -0x10
   13392: 06 e4        	sd	ra, 0x8(sp)
   13394: ef 90 20 1f  	jal	0x1c586 <__retarget_lock_acquire_recursive>
   13398: a2 60        	ld	ra, 0x8(sp)
   1339a: 01 45        	li	a0, 0x0
   1339c: 41 01        	addi	sp, sp, 0x10
   1339e: 82 80        	ret

00000000000133a0 <__fp_unlock>:
   133a0: 83 a7 05 0b  	lw	a5, 0xb0(a1)
   133a4: 85 8b        	andi	a5, a5, 0x1
   133a6: 91 e7        	bnez	a5, 0x133b2 <__fp_unlock+0x12>
   133a8: 83 d7 05 01  	lhu	a5, 0x10(a1)
   133ac: 93 f7 07 20  	andi	a5, a5, 0x200
   133b0: 99 c3        	beqz	a5, 0x133b6 <__fp_unlock+0x16>
   133b2: 01 45        	li	a0, 0x0
   133b4: 82 80        	ret
   133b6: c8 71        	ld	a0, 0xa0(a1)
   133b8: 41 11        	addi	sp, sp, -0x10
   133ba: 06 e4        	sd	ra, 0x8(sp)
   133bc: ef 90 60 1d  	jal	0x1c592 <__retarget_lock_release_recursive>
   133c0: a2 60        	ld	ra, 0x8(sp)
   133c2: 01 45        	li	a0, 0x0
   133c4: 41 01        	addi	sp, sp, 0x10
   133c6: 82 80        	ret

00000000000133c8 <global_stdio_init.part.0>:
   133c8: 79 71        	addi	sp, sp, -0x30
   133ca: 97 07 00 00  	auipc	a5, 0x0
   133ce: 93 87 47 f4  	addi	a5, a5, -0xbc
   133d2: 06 f4        	sd	ra, 0x28(sp)
   133d4: 22 f0        	sd	s0, 0x20(sp)
   133d6: 26 ec        	sd	s1, 0x18(sp)
   133d8: 17 d4 00 00  	auipc	s0, 0xd
   133dc: 13 04 04 b0  	addi	s0, s0, -0x500
   133e0: 4a e8        	sd	s2, 0x10(sp)
   133e2: 4e e4        	sd	s3, 0x8(sp)
   133e4: 52 e0        	sd	s4, 0x0(sp)
   133e6: 21 46        	li	a2, 0x8
   133e8: 81 45        	li	a1, 0x0
   133ea: 17 d7 00 00  	auipc	a4, 0xd
   133ee: 23 37 f7 fe  	sd	a5, -0x12(a4)
   133f2: 17 d5 00 00  	auipc	a0, 0xd
   133f6: 13 05 e5 b8  	addi	a0, a0, -0x472
   133fa: 91 47        	li	a5, 0x4
   133fc: 1c c8        	sw	a5, 0x10(s0)
   133fe: 23 30 04 00  	sd	zero, 0x0(s0)
   13402: 23 34 04 00  	sd	zero, 0x8(s0)
   13406: 23 28 04 0a  	sw	zero, 0xb0(s0)
   1340a: 23 3c 04 00  	sd	zero, 0x18(s0)
   1340e: 23 20 04 02  	sw	zero, 0x20(s0)
   13412: 23 24 04 02  	sw	zero, 0x28(s0)
   13416: ef 90 00 25  	jal	0x1c666 <memset>
   1341a: 17 7a 00 00  	auipc	s4, 0x7
   1341e: 13 0a 2a 9e  	addi	s4, s4, -0x61e
   13422: 97 79 00 00  	auipc	s3, 0x7
   13426: 93 89 69 a1  	addi	s3, s3, -0x5ea
   1342a: 17 79 00 00  	auipc	s2, 0x7
   1342e: 13 09 29 a6  	addi	s2, s2, -0x59e
   13432: 97 74 00 00  	auipc	s1, 0x7
   13436: 93 84 c4 aa  	addi	s1, s1, -0x554
   1343a: 17 d5 00 00  	auipc	a0, 0xd
   1343e: 13 05 e5 b3  	addi	a0, a0, -0x4c2
   13442: 23 3c 44 03  	sd	s4, 0x38(s0)
   13446: 23 30 34 05  	sd	s3, 0x40(s0)
   1344a: 23 34 24 05  	sd	s2, 0x48(s0)
   1344e: 24 e8        	sd	s1, 0x50(s0)
   13450: 00 f8        	sd	s0, 0x30(s0)
   13452: ef 90 c0 12  	jal	0x1c57e <__retarget_lock_init_recursive>
   13456: c1 67        	lui	a5, 0x10
   13458: a5 07        	addi	a5, a5, 0x9
   1345a: 21 46        	li	a2, 0x8
   1345c: 81 45        	li	a1, 0x0
   1345e: 17 d5 00 00  	auipc	a0, 0xd
   13462: 13 05 a5 bd  	addi	a0, a0, -0x426
   13466: 23 24 f4 0c  	sw	a5, 0xc8(s0)
   1346a: 23 3c 04 0a  	sd	zero, 0xb8(s0)
   1346e: 23 30 04 0c  	sd	zero, 0xc0(s0)
   13472: 23 24 04 16  	sw	zero, 0x168(s0)
   13476: 23 38 04 0c  	sd	zero, 0xd0(s0)
   1347a: 23 2c 04 0c  	sw	zero, 0xd8(s0)
   1347e: 23 20 04 0e  	sw	zero, 0xe0(s0)
   13482: ef 90 40 1e  	jal	0x1c666 <memset>
   13486: 97 d7 00 00  	auipc	a5, 0xd
   1348a: 93 87 a7 b0  	addi	a5, a5, -0x4f6
   1348e: 17 d5 00 00  	auipc	a0, 0xd
   13492: 13 05 25 ba  	addi	a0, a0, -0x45e
   13496: 7c f4        	sd	a5, 0xe8(s0)
   13498: 23 38 44 0f  	sd	s4, 0xf0(s0)
   1349c: 23 3c 34 0f  	sd	s3, 0xf8(s0)
   134a0: 23 30 24 11  	sd	s2, 0x100(s0)
   134a4: 23 34 94 10  	sd	s1, 0x108(s0)
   134a8: ef 90 60 0d  	jal	0x1c57e <__retarget_lock_init_recursive>
   134ac: b7 07 02 00  	lui	a5, 0x20
   134b0: c9 07        	addi	a5, a5, 0x12
   134b2: 21 46        	li	a2, 0x8
   134b4: 81 45        	li	a1, 0x0
   134b6: 17 d5 00 00  	auipc	a0, 0xd
   134ba: 13 05 a5 c3  	addi	a0, a0, -0x3c6
   134be: 23 20 f4 18  	sw	a5, 0x180(s0)
   134c2: 23 38 04 16  	sd	zero, 0x170(s0)
   134c6: 23 3c 04 16  	sd	zero, 0x178(s0)
   134ca: 23 20 04 22  	sw	zero, 0x220(s0)
   134ce: 23 34 04 18  	sd	zero, 0x188(s0)
   134d2: 23 28 04 18  	sw	zero, 0x190(s0)
   134d6: 23 2c 04 18  	sw	zero, 0x198(s0)
   134da: ef 90 c0 18  	jal	0x1c666 <memset>
   134de: 97 d7 00 00  	auipc	a5, 0xd
   134e2: 93 87 a7 b6  	addi	a5, a5, -0x496
   134e6: 23 34 44 1b  	sd	s4, 0x1a8(s0)
   134ea: 23 38 34 1b  	sd	s3, 0x1b0(s0)
   134ee: 23 3c 24 1b  	sd	s2, 0x1b8(s0)
   134f2: 23 30 94 1c  	sd	s1, 0x1c0(s0)
   134f6: 23 30 f4 1a  	sd	a5, 0x1a0(s0)
   134fa: 02 74        	ld	s0, 0x20(sp)
   134fc: a2 70        	ld	ra, 0x28(sp)
   134fe: e2 64        	ld	s1, 0x18(sp)
   13500: 42 69        	ld	s2, 0x10(sp)
   13502: a2 69        	ld	s3, 0x8(sp)
   13504: 02 6a        	ld	s4, 0x0(sp)
   13506: 17 d5 00 00  	auipc	a0, 0xd
   1350a: 13 05 25 be  	addi	a0, a0, -0x41e
   1350e: 45 61        	addi	sp, sp, 0x30
   13510: 6f 90 e0 06  	j	0x1c57e <__retarget_lock_init_recursive>

0000000000013514 <__sfp>:
   13514: 79 71        	addi	sp, sp, -0x30
   13516: 4e e4        	sd	s3, 0x8(sp)
   13518: aa 89        	mv	s3, a0
   1351a: 17 d5 00 00  	auipc	a0, 0xd
   1351e: 13 05 e5 f2  	addi	a0, a0, -0xd2
   13522: 06 f4        	sd	ra, 0x28(sp)
   13524: 22 f0        	sd	s0, 0x20(sp)
   13526: 26 ec        	sd	s1, 0x18(sp)
   13528: 4a e8        	sd	s2, 0x10(sp)
   1352a: ef 90 c0 05  	jal	0x1c586 <__retarget_lock_acquire_recursive>
   1352e: 97 d7 00 00  	auipc	a5, 0xd
   13532: 83 b7 a7 ea  	ld	a5, -0x156(a5)
   13536: e1 c3        	beqz	a5, 0x135f6 <__sfp+0xe2>
   13538: 97 c4 00 00  	auipc	s1, 0xc
   1353c: 93 84 04 ad  	addi	s1, s1, -0x530
   13540: 13 09 80 0b  	li	s2, 0xb8
   13544: 98 44        	lw	a4, 0x8(s1)
   13546: 80 68        	ld	s0, 0x10(s1)
   13548: 63 5e e0 06  	blez	a4, 0x135c4 <__sfp+0xb0>
   1354c: 02 17        	slli	a4, a4, 0x20
   1354e: 01 93        	srli	a4, a4, 0x20
   13550: 33 07 27 03  	mul	a4, a4, s2
   13554: 22 97        	add	a4, a4, s0
   13556: 29 a0        	j	0x13560 <__sfp+0x4c>
   13558: 13 04 84 0b  	addi	s0, s0, 0xb8
   1355c: 63 04 87 06  	beq	a4, s0, 0x135c4 <__sfp+0xb0>
   13560: 83 17 04 01  	lh	a5, 0x10(s0)
   13564: f5 fb        	bnez	a5, 0x13558 <__sfp+0x44>
   13566: c1 77        	lui	a5, 0xffff0
   13568: 85 07        	addi	a5, a5, 0x1
   1356a: 1c c8        	sw	a5, 0x10(s0)
   1356c: 13 05 04 0a  	addi	a0, s0, 0xa0
   13570: 23 28 04 0a  	sw	zero, 0xb0(s0)
   13574: ef 90 a0 00  	jal	0x1c57e <__retarget_lock_init_recursive>
   13578: 17 d5 00 00  	auipc	a0, 0xd
   1357c: 13 05 05 ed  	addi	a0, a0, -0x130
   13580: ef 90 20 01  	jal	0x1c592 <__retarget_lock_release_recursive>
   13584: 21 46        	li	a2, 0x8
   13586: 23 30 04 00  	sd	zero, 0x0(s0)
   1358a: 23 34 04 00  	sd	zero, 0x8(s0)
   1358e: 23 3c 04 00  	sd	zero, 0x18(s0)
   13592: 23 20 04 02  	sw	zero, 0x20(s0)
   13596: 23 24 04 02  	sw	zero, 0x28(s0)
   1359a: 81 45        	li	a1, 0x0
   1359c: 13 05 84 0a  	addi	a0, s0, 0xa8
   135a0: ef 90 60 0c  	jal	0x1c666 <memset>
   135a4: 23 3c 04 04  	sd	zero, 0x58(s0)
   135a8: 23 20 04 06  	sw	zero, 0x60(s0)
   135ac: 23 3c 04 06  	sd	zero, 0x78(s0)
   135b0: 23 20 04 08  	sw	zero, 0x80(s0)
   135b4: a2 70        	ld	ra, 0x28(sp)
   135b6: 22 85        	mv	a0, s0
   135b8: 02 74        	ld	s0, 0x20(sp)
   135ba: e2 64        	ld	s1, 0x18(sp)
   135bc: 42 69        	ld	s2, 0x10(sp)
   135be: a2 69        	ld	s3, 0x8(sp)
   135c0: 45 61        	addi	sp, sp, 0x30
   135c2: 82 80        	ret
   135c4: 80 60        	ld	s0, 0x0(s1)
   135c6: 19 c0        	beqz	s0, 0x135cc <__sfp+0xb8>
   135c8: a2 84        	mv	s1, s0
   135ca: ad bf        	j	0x13544 <__sfp+0x30>
   135cc: 93 05 80 2f  	li	a1, 0x2f8
   135d0: 4e 85        	mv	a0, s3
   135d2: ef 00 e0 7d  	jal	0x13db0 <_malloc_r>
   135d6: 2a 84        	mv	s0, a0
   135d8: 15 c1        	beqz	a0, 0x135fc <__sfp+0xe8>
   135da: 61 05        	addi	a0, a0, 0x18
   135dc: 91 47        	li	a5, 0x4
   135de: 23 30 04 00  	sd	zero, 0x0(s0)
   135e2: 1c c4        	sw	a5, 0x8(s0)
   135e4: 08 e8        	sd	a0, 0x10(s0)
   135e6: 13 06 00 2e  	li	a2, 0x2e0
   135ea: 81 45        	li	a1, 0x0
   135ec: ef 90 a0 07  	jal	0x1c666 <memset>
   135f0: 80 e0        	sd	s0, 0x0(s1)
   135f2: a2 84        	mv	s1, s0
   135f4: 81 bf        	j	0x13544 <__sfp+0x30>
   135f6: ef f0 3f dd  	jal	0x133c8 <global_stdio_init.part.0>
   135fa: 3d bf        	j	0x13538 <__sfp+0x24>
   135fc: 23 b0 04 00  	sd	zero, 0x0(s1)
   13600: 17 d5 00 00  	auipc	a0, 0xd
   13604: 13 05 85 e4  	addi	a0, a0, -0x1b8
   13608: ef 80 b0 78  	jal	0x1c592 <__retarget_lock_release_recursive>
   1360c: b1 47        	li	a5, 0xc
   1360e: 23 a0 f9 00  	sw	a5, 0x0(s3)
   13612: 4d b7        	j	0x135b4 <__sfp+0xa0>

0000000000013614 <__sinit>:
   13614: 41 11        	addi	sp, sp, -0x10
   13616: 22 e0        	sd	s0, 0x0(sp)
   13618: 2a 84        	mv	s0, a0
   1361a: 17 d5 00 00  	auipc	a0, 0xd
   1361e: 13 05 e5 e2  	addi	a0, a0, -0x1d2
   13622: 06 e4        	sd	ra, 0x8(sp)
   13624: ef 80 30 76  	jal	0x1c586 <__retarget_lock_acquire_recursive>
   13628: 3c 64        	ld	a5, 0x48(s0)
   1362a: 99 eb        	bnez	a5, 0x13640 <__sinit+0x2c>
   1362c: 97 07 00 00  	auipc	a5, 0x0
   13630: 93 87 e7 cf  	addi	a5, a5, -0x302
   13634: 3c e4        	sd	a5, 0x48(s0)
   13636: 97 d7 00 00  	auipc	a5, 0xd
   1363a: 83 b7 27 da  	ld	a5, -0x25e(a5)
   1363e: 91 cb        	beqz	a5, 0x13652 <__sinit+0x3e>
   13640: 02 64        	ld	s0, 0x0(sp)
   13642: a2 60        	ld	ra, 0x8(sp)
   13644: 17 d5 00 00  	auipc	a0, 0xd
   13648: 13 05 45 e0  	addi	a0, a0, -0x1fc
   1364c: 41 01        	addi	sp, sp, 0x10
   1364e: 6f 80 50 74  	j	0x1c592 <__retarget_lock_release_recursive>
   13652: ef f0 7f d7  	jal	0x133c8 <global_stdio_init.part.0>
   13656: 02 64        	ld	s0, 0x0(sp)
   13658: a2 60        	ld	ra, 0x8(sp)
   1365a: 17 d5 00 00  	auipc	a0, 0xd
   1365e: 13 05 e5 de  	addi	a0, a0, -0x212
   13662: 41 01        	addi	sp, sp, 0x10
   13664: 6f 80 f0 72  	j	0x1c592 <__retarget_lock_release_recursive>

0000000000013668 <__sfp_lock_acquire>:
   13668: 17 d5 00 00  	auipc	a0, 0xd
   1366c: 13 05 05 de  	addi	a0, a0, -0x220
   13670: 6f 80 70 71  	j	0x1c586 <__retarget_lock_acquire_recursive>

0000000000013674 <__sfp_lock_release>:
   13674: 17 d5 00 00  	auipc	a0, 0xd
   13678: 13 05 45 dd  	addi	a0, a0, -0x22c
   1367c: 6f 80 70 71  	j	0x1c592 <__retarget_lock_release_recursive>

0000000000013680 <__fp_lock_all>:
   13680: 41 11        	addi	sp, sp, -0x10
   13682: 17 d5 00 00  	auipc	a0, 0xd
   13686: 13 05 65 dc  	addi	a0, a0, -0x23a
   1368a: 06 e4        	sd	ra, 0x8(sp)
   1368c: ef 80 b0 6f  	jal	0x1c586 <__retarget_lock_acquire_recursive>
   13690: a2 60        	ld	ra, 0x8(sp)
   13692: 17 c6 00 00  	auipc	a2, 0xc
   13696: 13 06 66 97  	addi	a2, a2, -0x68a
   1369a: 97 05 00 00  	auipc	a1, 0x0
   1369e: 93 85 e5 cd  	addi	a1, a1, -0x322
   136a2: 01 45        	li	a0, 0x0
   136a4: 41 01        	addi	sp, sp, 0x10
   136a6: 6f 00 70 54  	j	0x143ec <_fwalk_sglue>

00000000000136aa <__fp_unlock_all>:
   136aa: 41 11        	addi	sp, sp, -0x10
   136ac: 17 c6 00 00  	auipc	a2, 0xc
   136b0: 13 06 c6 95  	addi	a2, a2, -0x6a4
   136b4: 97 05 00 00  	auipc	a1, 0x0
   136b8: 93 85 c5 ce  	addi	a1, a1, -0x314
   136bc: 01 45        	li	a0, 0x0
   136be: 06 e4        	sd	ra, 0x8(sp)
   136c0: ef 00 d0 52  	jal	0x143ec <_fwalk_sglue>
   136c4: a2 60        	ld	ra, 0x8(sp)
   136c6: 17 d5 00 00  	auipc	a0, 0xd
   136ca: 13 05 25 d8  	addi	a0, a0, -0x27e
   136ce: 41 01        	addi	sp, sp, 0x10
   136d0: 6f 80 30 6c  	j	0x1c592 <__retarget_lock_release_recursive>

00000000000136d4 <_fclose_r>:
   136d4: 01 11        	addi	sp, sp, -0x20
   136d6: 06 ec        	sd	ra, 0x18(sp)
   136d8: 4a e0        	sd	s2, 0x0(sp)
   136da: d9 c9        	beqz	a1, 0x13770 <_fclose_r+0x9c>
   136dc: 22 e8        	sd	s0, 0x10(sp)
   136de: 26 e4        	sd	s1, 0x8(sp)
   136e0: 2e 84        	mv	s0, a1
   136e2: aa 84        	mv	s1, a0
   136e4: 19 c1        	beqz	a0, 0x136ea <_fclose_r+0x16>
   136e6: 3c 65        	ld	a5, 0x48(a0)
   136e8: cd c7        	beqz	a5, 0x13792 <_fclose_r+0xbe>
   136ea: 83 27 04 0b  	lw	a5, 0xb0(s0)
   136ee: 03 17 04 01  	lh	a4, 0x10(s0)
   136f2: 85 8b        	andi	a5, a5, 0x1
   136f4: bd eb        	bnez	a5, 0x1376a <_fclose_r+0x96>
   136f6: 13 77 07 20  	andi	a4, a4, 0x200
   136fa: 59 cf        	beqz	a4, 0x13798 <_fclose_r+0xc4>
   136fc: a2 85        	mv	a1, s0
   136fe: 26 85        	mv	a0, s1
   13700: ef 00 e0 0c  	jal	0x137ce <__sflush_r>
   13704: 3c 68        	ld	a5, 0x50(s0)
   13706: 2a 89        	mv	s2, a0
   13708: 91 c7        	beqz	a5, 0x13714 <_fclose_r+0x40>
   1370a: 0c 78        	ld	a1, 0x30(s0)
   1370c: 26 85        	mv	a0, s1
   1370e: 82 97        	jalr	a5
   13710: 63 46 05 06  	bltz	a0, 0x1377c <_fclose_r+0xa8>
   13714: 83 57 04 01  	lhu	a5, 0x10(s0)
   13718: 93 f7 07 08  	andi	a5, a5, 0x80
   1371c: b5 e7        	bnez	a5, 0x13788 <_fclose_r+0xb4>
   1371e: 2c 6c        	ld	a1, 0x58(s0)
   13720: 91 c9        	beqz	a1, 0x13734 <_fclose_r+0x60>
   13722: 93 07 44 07  	addi	a5, s0, 0x74
   13726: 63 85 f5 00  	beq	a1, a5, 0x13730 <_fclose_r+0x5c>
   1372a: 26 85        	mv	a0, s1
   1372c: ef 00 20 43  	jal	0x13b5e <_free_r>
   13730: 23 3c 04 04  	sd	zero, 0x58(s0)
   13734: 2c 7c        	ld	a1, 0x78(s0)
   13736: 91 c5        	beqz	a1, 0x13742 <_fclose_r+0x6e>
   13738: 26 85        	mv	a0, s1
   1373a: ef 00 40 42  	jal	0x13b5e <_free_r>
   1373e: 23 3c 04 06  	sd	zero, 0x78(s0)
   13742: ef f0 7f f2  	jal	0x13668 <__sfp_lock_acquire>
   13746: 83 27 04 0b  	lw	a5, 0xb0(s0)
   1374a: 23 18 04 00  	sh	zero, 0x10(s0)
   1374e: 85 8b        	andi	a5, a5, 0x1
   13750: ad c7        	beqz	a5, 0x137ba <_fclose_r+0xe6>
   13752: 48 70        	ld	a0, 0xa0(s0)
   13754: ef 80 f0 62  	jal	0x1c582 <__retarget_lock_close_recursive>
   13758: ef f0 df f1  	jal	0x13674 <__sfp_lock_release>
   1375c: e2 60        	ld	ra, 0x18(sp)
   1375e: 42 64        	ld	s0, 0x10(sp)
   13760: a2 64        	ld	s1, 0x8(sp)
   13762: 4a 85        	mv	a0, s2
   13764: 02 69        	ld	s2, 0x0(sp)
   13766: 05 61        	addi	sp, sp, 0x20
   13768: 82 80        	ret
   1376a: 49 fb        	bnez	a4, 0x136fc <_fclose_r+0x28>
   1376c: 42 64        	ld	s0, 0x10(sp)
   1376e: a2 64        	ld	s1, 0x8(sp)
   13770: 01 49        	li	s2, 0x0
   13772: e2 60        	ld	ra, 0x18(sp)
   13774: 4a 85        	mv	a0, s2
   13776: 02 69        	ld	s2, 0x0(sp)
   13778: 05 61        	addi	sp, sp, 0x20
   1377a: 82 80        	ret
   1377c: 83 57 04 01  	lhu	a5, 0x10(s0)
   13780: 7d 59        	li	s2, -0x1
   13782: 93 f7 07 08  	andi	a5, a5, 0x80
   13786: c1 df        	beqz	a5, 0x1371e <_fclose_r+0x4a>
   13788: 0c 6c        	ld	a1, 0x18(s0)
   1378a: 26 85        	mv	a0, s1
   1378c: ef 00 20 3d  	jal	0x13b5e <_free_r>
   13790: 79 b7        	j	0x1371e <_fclose_r+0x4a>
   13792: ef f0 3f e8  	jal	0x13614 <__sinit>
   13796: 91 bf        	j	0x136ea <_fclose_r+0x16>
   13798: 48 70        	ld	a0, 0xa0(s0)
   1379a: ef 80 d0 5e  	jal	0x1c586 <__retarget_lock_acquire_recursive>
   1379e: 83 17 04 01  	lh	a5, 0x10(s0)
   137a2: a9 ff        	bnez	a5, 0x136fc <_fclose_r+0x28>
   137a4: 83 27 04 0b  	lw	a5, 0xb0(s0)
   137a8: 85 8b        	andi	a5, a5, 0x1
   137aa: e9 f3        	bnez	a5, 0x1376c <_fclose_r+0x98>
   137ac: 48 70        	ld	a0, 0xa0(s0)
   137ae: 01 49        	li	s2, 0x0
   137b0: ef 80 30 5e  	jal	0x1c592 <__retarget_lock_release_recursive>
   137b4: 42 64        	ld	s0, 0x10(sp)
   137b6: a2 64        	ld	s1, 0x8(sp)
   137b8: 6d bf        	j	0x13772 <_fclose_r+0x9e>
   137ba: 48 70        	ld	a0, 0xa0(s0)
   137bc: ef 80 70 5d  	jal	0x1c592 <__retarget_lock_release_recursive>
   137c0: 49 bf        	j	0x13752 <_fclose_r+0x7e>

00000000000137c2 <fclose>:
   137c2: aa 85        	mv	a1, a0
   137c4: 17 c5 00 00  	auipc	a0, 0xc
   137c8: 03 35 45 3b  	ld	a0, 0x3b4(a0)
   137cc: 21 b7        	j	0x136d4 <_fclose_r>

00000000000137ce <__sflush_r>:
   137ce: 03 97 05 01  	lh	a4, 0x10(a1)
   137d2: 79 71        	addi	sp, sp, -0x30
   137d4: 22 f0        	sd	s0, 0x20(sp)
   137d6: 4e e4        	sd	s3, 0x8(sp)
   137d8: 06 f4        	sd	ra, 0x28(sp)
   137da: 93 77 87 00  	andi	a5, a4, 0x8
   137de: 2e 84        	mv	s0, a1
   137e0: aa 89        	mv	s3, a0
   137e2: f1 e7        	bnez	a5, 0x138ae <__sflush_r+0xe0>
   137e4: 85 67        	lui	a5, 0x1
   137e6: 93 87 07 80  	addi	a5, a5, -0x800
   137ea: 94 45        	lw	a3, 0x8(a1)
   137ec: d9 8f        	or	a5, a5, a4
   137ee: 23 98 f5 00  	sh	a5, 0x10(a1)
   137f2: 63 57 d0 10  	blez	a3, 0x13900 <__sflush_r+0x132>
   137f6: 03 38 84 04  	ld	a6, 0x48(s0)
   137fa: 63 04 08 0a  	beqz	a6, 0x138a2 <__sflush_r+0xd4>
   137fe: 26 ec        	sd	s1, 0x18(sp)
   13800: 93 16 37 03  	slli	a3, a4, 0x33
   13804: 83 a4 09 00  	lw	s1, 0x0(s3)
   13808: 23 a0 09 00  	sw	zero, 0x0(s3)
   1380c: 0c 78        	ld	a1, 0x30(s0)
   1380e: 63 c0 06 10  	bltz	a3, 0x1390e <__sflush_r+0x140>
   13812: 01 46        	li	a2, 0x0
   13814: 85 46        	li	a3, 0x1
   13816: 4e 85        	mv	a0, s3
   13818: 02 98        	jalr	a6
   1381a: fd 57        	li	a5, -0x1
   1381c: 2a 86        	mv	a2, a0
   1381e: 63 01 f5 12  	beq	a0, a5, 0x13940 <__sflush_r+0x172>
   13822: 83 17 04 01  	lh	a5, 0x10(s0)
   13826: 03 38 84 04  	ld	a6, 0x48(s0)
   1382a: 0c 78        	ld	a1, 0x30(s0)
   1382c: 91 8b        	andi	a5, a5, 0x4
   1382e: 99 c7        	beqz	a5, 0x1383c <__sflush_r+0x6e>
   13830: 18 44        	lw	a4, 0x8(s0)
   13832: 3c 6c        	ld	a5, 0x58(s0)
   13834: 19 8e        	sub	a2, a2, a4
   13836: 99 c3        	beqz	a5, 0x1383c <__sflush_r+0x6e>
   13838: 3c 58        	lw	a5, 0x70(s0)
   1383a: 1d 8e        	sub	a2, a2, a5
   1383c: 81 46        	li	a3, 0x0
   1383e: 4e 85        	mv	a0, s3
   13840: 02 98        	jalr	a6
   13842: fd 57        	li	a5, -0x1
   13844: 63 17 f5 0c  	bne	a0, a5, 0x13912 <__sflush_r+0x144>
   13848: 83 a6 09 00  	lw	a3, 0x0(s3)
   1384c: f5 47        	li	a5, 0x1d
   1384e: 03 17 04 01  	lh	a4, 0x10(s0)
   13852: 1b 86 06 00  	sext.w	a2, a3
   13856: 63 e1 d7 10  	bltu	a5, a3, 0x13958 <__sflush_r+0x18a>
   1385a: b7 07 40 20  	lui	a5, 0x20400
   1385e: 85 07        	addi	a5, a5, 0x1
   13860: b3 d7 c7 00  	srl	a5, a5, a2
   13864: 85 8b        	andi	a5, a5, 0x1
   13866: ed cb        	beqz	a5, 0x13958 <__sflush_r+0x18a>
   13868: 10 6c        	ld	a2, 0x18(s0)
   1386a: fd 77        	lui	a5, 0xfffff
   1386c: 93 87 f7 7f  	addi	a5, a5, 0x7ff
   13870: f9 8f        	and	a5, a5, a4
   13872: 23 18 f4 00  	sh	a5, 0x10(s0)
   13876: 23 24 04 00  	sw	zero, 0x8(s0)
   1387a: 10 e0        	sd	a2, 0x0(s0)
   1387c: 93 17 37 03  	slli	a5, a4, 0x33
   13880: 63 d3 07 00  	bgez	a5, 0x13886 <__sflush_r+0xb8>
   13884: dd c6        	beqz	a3, 0x13932 <__sflush_r+0x164>
   13886: 2c 6c        	ld	a1, 0x58(s0)
   13888: 23 a0 99 00  	sw	s1, 0x0(s3)
   1388c: c5 c9        	beqz	a1, 0x1393c <__sflush_r+0x16e>
   1388e: 93 07 44 07  	addi	a5, s0, 0x74
   13892: 63 85 f5 00  	beq	a1, a5, 0x1389c <__sflush_r+0xce>
   13896: 4e 85        	mv	a0, s3
   13898: ef 00 60 2c  	jal	0x13b5e <_free_r>
   1389c: e2 64        	ld	s1, 0x18(sp)
   1389e: 23 3c 04 04  	sd	zero, 0x58(s0)
   138a2: 01 45        	li	a0, 0x0
   138a4: a2 70        	ld	ra, 0x28(sp)
   138a6: 02 74        	ld	s0, 0x20(sp)
   138a8: a2 69        	ld	s3, 0x8(sp)
   138aa: 45 61        	addi	sp, sp, 0x30
   138ac: 82 80        	ret
   138ae: 4a e8        	sd	s2, 0x10(sp)
   138b0: 03 b9 85 01  	ld	s2, 0x18(a1)
   138b4: 63 0b 09 04  	beqz	s2, 0x1390a <__sflush_r+0x13c>
   138b8: 26 ec        	sd	s1, 0x18(sp)
   138ba: 84 61        	ld	s1, 0x0(a1)
   138bc: 0d 8b        	andi	a4, a4, 0x3
   138be: 23 b0 25 01  	sd	s2, 0x0(a1)
   138c2: bb 84 24 41  	subw	s1, s1, s2
   138c6: 81 47        	li	a5, 0x0
   138c8: 11 e3        	bnez	a4, 0x138cc <__sflush_r+0xfe>
   138ca: 9c 51        	lw	a5, 0x20(a1)
   138cc: 5c c4        	sw	a5, 0xc(s0)
   138ce: 63 46 90 00  	bgtz	s1, 0x138da <__sflush_r+0x10c>
   138d2: 1d a8        	j	0x13908 <__sflush_r+0x13a>
   138d4: 2a 99        	add	s2, s2, a0
   138d6: 63 59 90 02  	blez	s1, 0x13908 <__sflush_r+0x13a>
   138da: 3c 60        	ld	a5, 0x40(s0)
   138dc: 0c 78        	ld	a1, 0x30(s0)
   138de: a6 86        	mv	a3, s1
   138e0: 4a 86        	mv	a2, s2
   138e2: 4e 85        	mv	a0, s3
   138e4: 82 97        	jalr	a5
   138e6: 89 9c        	subw	s1, s1, a0
   138e8: e3 46 a0 fe  	bgtz	a0, 0x138d4 <__sflush_r+0x106>
   138ec: 03 17 04 01  	lh	a4, 0x10(s0)
   138f0: 42 69        	ld	s2, 0x10(sp)
   138f2: 13 67 07 04  	ori	a4, a4, 0x40
   138f6: e2 64        	ld	s1, 0x18(sp)
   138f8: 23 18 e4 00  	sh	a4, 0x10(s0)
   138fc: 7d 55        	li	a0, -0x1
   138fe: 5d b7        	j	0x138a4 <__sflush_r+0xd6>
   13900: b4 59        	lw	a3, 0x70(a1)
   13902: e3 4a d0 ee  	bgtz	a3, 0x137f6 <__sflush_r+0x28>
   13906: 71 bf        	j	0x138a2 <__sflush_r+0xd4>
   13908: e2 64        	ld	s1, 0x18(sp)
   1390a: 42 69        	ld	s2, 0x10(sp)
   1390c: 59 bf        	j	0x138a2 <__sflush_r+0xd4>
   1390e: 50 68        	ld	a2, 0x90(s0)
   13910: 31 bf        	j	0x1382c <__sflush_r+0x5e>
   13912: 03 17 04 01  	lh	a4, 0x10(s0)
   13916: 14 6c        	ld	a3, 0x18(s0)
   13918: fd 77        	lui	a5, 0xfffff
   1391a: 93 87 f7 7f  	addi	a5, a5, 0x7ff
   1391e: f9 8f        	and	a5, a5, a4
   13920: 23 18 f4 00  	sh	a5, 0x10(s0)
   13924: 23 24 04 00  	sw	zero, 0x8(s0)
   13928: 14 e0        	sd	a3, 0x0(s0)
   1392a: 93 17 37 03  	slli	a5, a4, 0x33
   1392e: e3 dc 07 f4  	bgez	a5, 0x13886 <__sflush_r+0xb8>
   13932: 2c 6c        	ld	a1, 0x58(s0)
   13934: 48 e8        	sd	a0, 0x90(s0)
   13936: 23 a0 99 00  	sw	s1, 0x0(s3)
   1393a: b1 f9        	bnez	a1, 0x1388e <__sflush_r+0xc0>
   1393c: e2 64        	ld	s1, 0x18(sp)
   1393e: 95 b7        	j	0x138a2 <__sflush_r+0xd4>
   13940: 83 a7 09 00  	lw	a5, 0x0(s3)
   13944: e3 8f 07 ec  	beqz	a5, 0x13822 <__sflush_r+0x54>
   13948: 75 47        	li	a4, 0x1d
   1394a: 63 8a e7 00  	beq	a5, a4, 0x1395e <__sflush_r+0x190>
   1394e: 59 47        	li	a4, 0x16
   13950: 63 87 e7 00  	beq	a5, a4, 0x1395e <__sflush_r+0x190>
   13954: 03 17 04 01  	lh	a4, 0x10(s0)
   13958: 13 67 07 04  	ori	a4, a4, 0x40
   1395c: 69 bf        	j	0x138f6 <__sflush_r+0x128>
   1395e: 23 a0 99 00  	sw	s1, 0x0(s3)
   13962: e2 64        	ld	s1, 0x18(sp)
   13964: 3d bf        	j	0x138a2 <__sflush_r+0xd4>

0000000000013966 <_fflush_r>:
   13966: 01 11        	addi	sp, sp, -0x20
   13968: 22 e8        	sd	s0, 0x10(sp)
   1396a: 26 e4        	sd	s1, 0x8(sp)
   1396c: 06 ec        	sd	ra, 0x18(sp)
   1396e: 4a e0        	sd	s2, 0x0(sp)
   13970: aa 84        	mv	s1, a0
   13972: 2e 84        	mv	s0, a1
   13974: 19 c1        	beqz	a0, 0x1397a <_fflush_r+0x14>
   13976: 3c 65        	ld	a5, 0x48(a0)
   13978: a5 cb        	beqz	a5, 0x139e8 <_fflush_r+0x82>
   1397a: 83 17 04 01  	lh	a5, 0x10(s0)
   1397e: 01 49        	li	s2, 0x0
   13980: 95 c7        	beqz	a5, 0x139ac <_fflush_r+0x46>
   13982: 03 27 04 0b  	lw	a4, 0xb0(s0)
   13986: 05 8b        	andi	a4, a4, 0x1
   13988: 01 e7        	bnez	a4, 0x13990 <_fflush_r+0x2a>
   1398a: 93 f7 07 20  	andi	a5, a5, 0x200
   1398e: 95 c7        	beqz	a5, 0x139ba <_fflush_r+0x54>
   13990: a2 85        	mv	a1, s0
   13992: 26 85        	mv	a0, s1
   13994: ef f0 bf e3  	jal	0x137ce <__sflush_r>
   13998: 83 27 04 0b  	lw	a5, 0xb0(s0)
   1399c: 2a 89        	mv	s2, a0
   1399e: 85 8b        	andi	a5, a5, 0x1
   139a0: 91 e7        	bnez	a5, 0x139ac <_fflush_r+0x46>
   139a2: 83 57 04 01  	lhu	a5, 0x10(s0)
   139a6: 93 f7 07 20  	andi	a5, a5, 0x200
   139aa: 8d c7        	beqz	a5, 0x139d4 <_fflush_r+0x6e>
   139ac: e2 60        	ld	ra, 0x18(sp)
   139ae: 42 64        	ld	s0, 0x10(sp)
   139b0: a2 64        	ld	s1, 0x8(sp)
   139b2: 4a 85        	mv	a0, s2
   139b4: 02 69        	ld	s2, 0x0(sp)
   139b6: 05 61        	addi	sp, sp, 0x20
   139b8: 82 80        	ret
   139ba: 48 70        	ld	a0, 0xa0(s0)
   139bc: ef 80 b0 3c  	jal	0x1c586 <__retarget_lock_acquire_recursive>
   139c0: a2 85        	mv	a1, s0
   139c2: 26 85        	mv	a0, s1
   139c4: ef f0 bf e0  	jal	0x137ce <__sflush_r>
   139c8: 83 27 04 0b  	lw	a5, 0xb0(s0)
   139cc: 2a 89        	mv	s2, a0
   139ce: 85 8b        	andi	a5, a5, 0x1
   139d0: f1 ff        	bnez	a5, 0x139ac <_fflush_r+0x46>
   139d2: c1 bf        	j	0x139a2 <_fflush_r+0x3c>
   139d4: 48 70        	ld	a0, 0xa0(s0)
   139d6: ef 80 d0 3b  	jal	0x1c592 <__retarget_lock_release_recursive>
   139da: e2 60        	ld	ra, 0x18(sp)
   139dc: 42 64        	ld	s0, 0x10(sp)
   139de: a2 64        	ld	s1, 0x8(sp)
   139e0: 4a 85        	mv	a0, s2
   139e2: 02 69        	ld	s2, 0x0(sp)
   139e4: 05 61        	addi	sp, sp, 0x20
   139e6: 82 80        	ret
   139e8: ef f0 df c2  	jal	0x13614 <__sinit>
   139ec: 79 b7        	j	0x1397a <_fflush_r+0x14>

00000000000139ee <fflush>:
   139ee: 25 cd        	beqz	a0, 0x13a66 <fflush+0x78>
   139f0: 01 11        	addi	sp, sp, -0x20
   139f2: 22 e8        	sd	s0, 0x10(sp)
   139f4: 4a e0        	sd	s2, 0x0(sp)
   139f6: 06 ec        	sd	ra, 0x18(sp)
   139f8: 26 e4        	sd	s1, 0x8(sp)
   139fa: 17 c9 00 00  	auipc	s2, 0xc
   139fe: 03 39 e9 17  	ld	s2, 0x17e(s2)
   13a02: 2a 84        	mv	s0, a0
   13a04: 63 05 09 00  	beqz	s2, 0x13a0e <fflush+0x20>
   13a08: 83 37 89 04  	ld	a5, 0x48(s2)
   13a0c: a9 c3        	beqz	a5, 0x13a4e <fflush+0x60>
   13a0e: 83 17 04 01  	lh	a5, 0x10(s0)
   13a12: 81 44        	li	s1, 0x0
   13a14: 95 c7        	beqz	a5, 0x13a40 <fflush+0x52>
   13a16: 03 27 04 0b  	lw	a4, 0xb0(s0)
   13a1a: 05 8b        	andi	a4, a4, 0x1
   13a1c: 01 e7        	bnez	a4, 0x13a24 <fflush+0x36>
   13a1e: 93 f7 07 20  	andi	a5, a5, 0x200
   13a22: 95 cb        	beqz	a5, 0x13a56 <fflush+0x68>
   13a24: a2 85        	mv	a1, s0
   13a26: 4a 85        	mv	a0, s2
   13a28: ef f0 7f da  	jal	0x137ce <__sflush_r>
   13a2c: 83 27 04 0b  	lw	a5, 0xb0(s0)
   13a30: aa 84        	mv	s1, a0
   13a32: 85 8b        	andi	a5, a5, 0x1
   13a34: 91 e7        	bnez	a5, 0x13a40 <fflush+0x52>
   13a36: 83 57 04 01  	lhu	a5, 0x10(s0)
   13a3a: 93 f7 07 20  	andi	a5, a5, 0x200
   13a3e: 85 c3        	beqz	a5, 0x13a5e <fflush+0x70>
   13a40: e2 60        	ld	ra, 0x18(sp)
   13a42: 42 64        	ld	s0, 0x10(sp)
   13a44: 02 69        	ld	s2, 0x0(sp)
   13a46: 26 85        	mv	a0, s1
   13a48: a2 64        	ld	s1, 0x8(sp)
   13a4a: 05 61        	addi	sp, sp, 0x20
   13a4c: 82 80        	ret
   13a4e: 4a 85        	mv	a0, s2
   13a50: ef f0 5f bc  	jal	0x13614 <__sinit>
   13a54: 6d bf        	j	0x13a0e <fflush+0x20>
   13a56: 48 70        	ld	a0, 0xa0(s0)
   13a58: ef 80 f0 32  	jal	0x1c586 <__retarget_lock_acquire_recursive>
   13a5c: e1 b7        	j	0x13a24 <fflush+0x36>
   13a5e: 48 70        	ld	a0, 0xa0(s0)
   13a60: ef 80 30 33  	jal	0x1c592 <__retarget_lock_release_recursive>
   13a64: f1 bf        	j	0x13a40 <fflush+0x52>
   13a66: 17 b6 00 00  	auipc	a2, 0xb
   13a6a: 13 06 26 5a  	addi	a2, a2, 0x5a2
   13a6e: 97 05 00 00  	auipc	a1, 0x0
   13a72: 93 85 85 ef  	addi	a1, a1, -0x108
   13a76: 17 c5 00 00  	auipc	a0, 0xc
   13a7a: 13 05 25 f8  	addi	a0, a0, -0x7e
   13a7e: 6f 00 f0 16  	j	0x143ec <_fwalk_sglue>

0000000000013a82 <_malloc_trim_r>:
   13a82: 79 71        	addi	sp, sp, -0x30
   13a84: 22 f0        	sd	s0, 0x20(sp)
   13a86: 26 ec        	sd	s1, 0x18(sp)
   13a88: 4a e8        	sd	s2, 0x10(sp)
   13a8a: 4e e4        	sd	s3, 0x8(sp)
   13a8c: 52 e0        	sd	s4, 0x0(sp)
   13a8e: ae 89        	mv	s3, a1
   13a90: 06 f4        	sd	ra, 0x28(sp)
   13a92: 2a 89        	mv	s2, a0
   13a94: 17 ba 00 00  	auipc	s4, 0xb
   13a98: 13 0a ca 58  	addi	s4, s4, 0x58c
   13a9c: ef 00 90 13  	jal	0x143d4 <__malloc_lock>
   13aa0: 03 37 0a 01  	ld	a4, 0x10(s4)
   13aa4: 85 67        	lui	a5, 0x1
   13aa6: 93 87 f7 fd  	addi	a5, a5, -0x21
   13aaa: 04 67        	ld	s1, 0x8(a4)
   13aac: 05 67        	lui	a4, 0x1
   13aae: f1 98        	andi	s1, s1, -0x4
   13ab0: 33 84 f4 00  	add	s0, s1, a5
   13ab4: 33 04 34 41  	sub	s0, s0, s3
   13ab8: 31 80        	srli	s0, s0, 0xc
   13aba: 7d 14        	addi	s0, s0, -0x1
   13abc: 32 04        	slli	s0, s0, 0xc
   13abe: 63 4b e4 00  	blt	s0, a4, 0x13ad4 <_malloc_trim_r+0x52>
   13ac2: 81 45        	li	a1, 0x0
   13ac4: 4a 85        	mv	a0, s2
   13ac6: ef 80 50 19  	jal	0x1c45a <_sbrk_r>
   13aca: 83 37 0a 01  	ld	a5, 0x10(s4)
   13ace: a6 97        	add	a5, a5, s1
   13ad0: 63 0e f5 00  	beq	a0, a5, 0x13aec <_malloc_trim_r+0x6a>
   13ad4: 4a 85        	mv	a0, s2
   13ad6: ef 00 b0 10  	jal	0x143e0 <__malloc_unlock>
   13ada: a2 70        	ld	ra, 0x28(sp)
   13adc: 02 74        	ld	s0, 0x20(sp)
   13ade: e2 64        	ld	s1, 0x18(sp)
   13ae0: 42 69        	ld	s2, 0x10(sp)
   13ae2: a2 69        	ld	s3, 0x8(sp)
   13ae4: 02 6a        	ld	s4, 0x0(sp)
   13ae6: 01 45        	li	a0, 0x0
   13ae8: 45 61        	addi	sp, sp, 0x30
   13aea: 82 80        	ret
   13aec: b3 05 80 40  	neg	a1, s0
   13af0: 4a 85        	mv	a0, s2
   13af2: ef 80 90 16  	jal	0x1c45a <_sbrk_r>
   13af6: fd 57        	li	a5, -0x1
   13af8: 63 0b f5 02  	beq	a0, a5, 0x13b2e <_malloc_trim_r+0xac>
   13afc: 17 c7 00 00  	auipc	a4, 0xc
   13b00: 13 07 47 60  	addi	a4, a4, 0x604
   13b04: 1c 43        	lw	a5, 0x0(a4)
   13b06: 83 36 0a 01  	ld	a3, 0x10(s4)
   13b0a: 81 8c        	sub	s1, s1, s0
   13b0c: 93 e4 14 00  	ori	s1, s1, 0x1
   13b10: 81 9f        	subw	a5, a5, s0
   13b12: 4a 85        	mv	a0, s2
   13b14: 84 e6        	sd	s1, 0x8(a3)
   13b16: 1c c3        	sw	a5, 0x0(a4)
   13b18: ef 00 90 0c  	jal	0x143e0 <__malloc_unlock>
   13b1c: a2 70        	ld	ra, 0x28(sp)
   13b1e: 02 74        	ld	s0, 0x20(sp)
   13b20: e2 64        	ld	s1, 0x18(sp)
   13b22: 42 69        	ld	s2, 0x10(sp)
   13b24: a2 69        	ld	s3, 0x8(sp)
   13b26: 02 6a        	ld	s4, 0x0(sp)
   13b28: 05 45        	li	a0, 0x1
   13b2a: 45 61        	addi	sp, sp, 0x30
   13b2c: 82 80        	ret
   13b2e: 81 45        	li	a1, 0x0
   13b30: 4a 85        	mv	a0, s2
   13b32: ef 80 90 12  	jal	0x1c45a <_sbrk_r>
   13b36: 03 37 0a 01  	ld	a4, 0x10(s4)
   13b3a: fd 46        	li	a3, 0x1f
   13b3c: b3 07 e5 40  	sub	a5, a0, a4
   13b40: e3 da f6 f8  	bge	a3, a5, 0x13ad4 <_malloc_trim_r+0x52>
   13b44: 97 c6 00 00  	auipc	a3, 0xc
   13b48: 83 b6 c6 01  	ld	a3, 0x1c(a3)
   13b4c: 15 8d        	sub	a0, a0, a3
   13b4e: 93 e7 17 00  	ori	a5, a5, 0x1
   13b52: 97 c6 00 00  	auipc	a3, 0xc
   13b56: 23 a7 a6 5a  	sw	a0, 0x5ae(a3)
   13b5a: 1c e7        	sd	a5, 0x8(a4)
   13b5c: a5 bf        	j	0x13ad4 <_malloc_trim_r+0x52>

0000000000013b5e <_free_r>:
   13b5e: 63 82 05 12  	beqz	a1, 0x13c82 <_free_r+0x124>
   13b62: 01 11        	addi	sp, sp, -0x20
   13b64: 22 e8        	sd	s0, 0x10(sp)
   13b66: 26 e4        	sd	s1, 0x8(sp)
   13b68: 2e 84        	mv	s0, a1
   13b6a: aa 84        	mv	s1, a0
   13b6c: 06 ec        	sd	ra, 0x18(sp)
   13b6e: ef 00 70 06  	jal	0x143d4 <__malloc_lock>
   13b72: 83 35 84 ff  	ld	a1, -0x8(s0)
   13b76: 13 07 04 ff  	addi	a4, s0, -0x10
   13b7a: 17 b5 00 00  	auipc	a0, 0xb
   13b7e: 13 05 65 4a  	addi	a0, a0, 0x4a6
   13b82: 93 f7 e5 ff  	andi	a5, a1, -0x2
   13b86: 33 06 f7 00  	add	a2, a4, a5
   13b8a: 14 66        	ld	a3, 0x8(a2)
   13b8c: 03 38 05 01  	ld	a6, 0x10(a0)
   13b90: f1 9a        	andi	a3, a3, -0x4
   13b92: 63 0a c8 12  	beq	a6, a2, 0x13cc6 <_free_r+0x168>
   13b96: 14 e6        	sd	a3, 0x8(a2)
   13b98: 85 89        	andi	a1, a1, 0x1
   13b9a: 33 08 d6 00  	add	a6, a2, a3
   13b9e: bd ed        	bnez	a1, 0x13c1c <_free_r+0xbe>
   13ba0: 03 33 04 ff  	ld	t1, -0x10(s0)
   13ba4: 83 35 88 00  	ld	a1, 0x8(a6)
   13ba8: 97 b8 00 00  	auipc	a7, 0xb
   13bac: 93 88 88 48  	addi	a7, a7, 0x488
   13bb0: 33 07 67 40  	sub	a4, a4, t1
   13bb4: 03 38 07 01  	ld	a6, 0x10(a4)
   13bb8: 9a 97        	add	a5, a5, t1
   13bba: 85 89        	andi	a1, a1, 0x1
   13bbc: 63 09 18 0f  	beq	a6, a7, 0x13cae <_free_r+0x150>
   13bc0: 03 33 87 01  	ld	t1, 0x18(a4)
   13bc4: 23 3c 68 00  	sd	t1, 0x18(a6)
   13bc8: 23 38 03 01  	sd	a6, 0x10(t1)
   13bcc: 63 8a 05 12  	beqz	a1, 0x13d00 <_free_r+0x1a2>
   13bd0: 93 e6 17 00  	ori	a3, a5, 0x1
   13bd4: 14 e7        	sd	a3, 0x8(a4)
   13bd6: 1c e2        	sd	a5, 0x0(a2)
   13bd8: 93 06 f0 1f  	li	a3, 0x1ff
   13bdc: 63 ed f6 04  	bltu	a3, a5, 0x13c36 <_free_r+0xd8>
   13be0: 8d 83        	srli	a5, a5, 0x3
   13be2: 9b 86 17 00  	addiw	a3, a5, 0x1
   13be6: 9b 96 16 00  	slliw	a3, a3, 0x1
   13bea: 8e 06        	slli	a3, a3, 0x3
   13bec: 03 38 85 00  	ld	a6, 0x8(a0)
   13bf0: aa 96        	add	a3, a3, a0
   13bf2: 8c 62        	ld	a1, 0x0(a3)
   13bf4: 1b d6 27 40  	sraiw	a2, a5, 0x2
   13bf8: 85 47        	li	a5, 0x1
   13bfa: b3 97 c7 00  	sll	a5, a5, a2
   13bfe: b3 e7 07 01  	or	a5, a5, a6
   13c02: 13 86 06 ff  	addi	a2, a3, -0x10
   13c06: 10 ef        	sd	a2, 0x18(a4)
   13c08: 0c eb        	sd	a1, 0x10(a4)
   13c0a: 1c e5        	sd	a5, 0x8(a0)
   13c0c: 98 e2        	sd	a4, 0x0(a3)
   13c0e: 98 ed        	sd	a4, 0x18(a1)
   13c10: 42 64        	ld	s0, 0x10(sp)
   13c12: e2 60        	ld	ra, 0x18(sp)
   13c14: 26 85        	mv	a0, s1
   13c16: a2 64        	ld	s1, 0x8(sp)
   13c18: 05 61        	addi	sp, sp, 0x20
   13c1a: d9 a7        	j	0x143e0 <__malloc_unlock>
   13c1c: 83 35 88 00  	ld	a1, 0x8(a6)
   13c20: 85 89        	andi	a1, a1, 0x1
   13c22: ad c1        	beqz	a1, 0x13c84 <_free_r+0x126>
   13c24: 93 e6 17 00  	ori	a3, a5, 0x1
   13c28: 23 3c d4 fe  	sd	a3, -0x8(s0)
   13c2c: 1c e2        	sd	a5, 0x0(a2)
   13c2e: 93 06 f0 1f  	li	a3, 0x1ff
   13c32: e3 f7 f6 fa  	bgeu	a3, a5, 0x13be0 <_free_r+0x82>
   13c36: 93 d6 97 00  	srli	a3, a5, 0x9
   13c3a: 11 46        	li	a2, 0x4
   13c3c: 63 64 d6 0c  	bltu	a2, a3, 0x13d04 <_free_r+0x1a6>
   13c40: 93 d6 67 00  	srli	a3, a5, 0x6
   13c44: 9b 85 96 03  	addiw	a1, a3, 0x39
   13c48: 9b 95 15 00  	slliw	a1, a1, 0x1
   13c4c: 1b 86 86 03  	addiw	a2, a3, 0x38
   13c50: 8e 05        	slli	a1, a1, 0x3
   13c52: aa 95        	add	a1, a1, a0
   13c54: 94 61        	ld	a3, 0x0(a1)
   13c56: c1 15        	addi	a1, a1, -0x10
   13c58: 63 96 d5 00  	bne	a1, a3, 0x13c64 <_free_r+0x106>
   13c5c: cd a8        	j	0x13d4e <_free_r+0x1f0>
   13c5e: 94 6a        	ld	a3, 0x10(a3)
   13c60: 63 86 d5 00  	beq	a1, a3, 0x13c6c <_free_r+0x10e>
   13c64: 90 66        	ld	a2, 0x8(a3)
   13c66: 71 9a        	andi	a2, a2, -0x4
   13c68: e3 eb c7 fe  	bltu	a5, a2, 0x13c5e <_free_r+0x100>
   13c6c: 8c 6e        	ld	a1, 0x18(a3)
   13c6e: 0c ef        	sd	a1, 0x18(a4)
   13c70: 14 eb        	sd	a3, 0x10(a4)
   13c72: 42 64        	ld	s0, 0x10(sp)
   13c74: e2 60        	ld	ra, 0x18(sp)
   13c76: 98 e9        	sd	a4, 0x10(a1)
   13c78: 26 85        	mv	a0, s1
   13c7a: a2 64        	ld	s1, 0x8(sp)
   13c7c: 98 ee        	sd	a4, 0x18(a3)
   13c7e: 05 61        	addi	sp, sp, 0x20
   13c80: 85 a7        	j	0x143e0 <__malloc_unlock>
   13c82: 82 80        	ret
   13c84: b6 97        	add	a5, a5, a3
   13c86: 97 b8 00 00  	auipc	a7, 0xb
   13c8a: 93 88 a8 3a  	addi	a7, a7, 0x3aa
   13c8e: 14 6a        	ld	a3, 0x10(a2)
   13c90: 63 83 16 0b  	beq	a3, a7, 0x13d36 <_free_r+0x1d8>
   13c94: 03 38 86 01  	ld	a6, 0x18(a2)
   13c98: 93 e5 17 00  	ori	a1, a5, 0x1
   13c9c: 33 06 f7 00  	add	a2, a4, a5
   13ca0: 23 bc 06 01  	sd	a6, 0x18(a3)
   13ca4: 23 38 d8 00  	sd	a3, 0x10(a6)
   13ca8: 0c e7        	sd	a1, 0x8(a4)
   13caa: 1c e2        	sd	a5, 0x0(a2)
   13cac: 35 b7        	j	0x13bd8 <_free_r+0x7a>
   13cae: e5 ed        	bnez	a1, 0x13da6 <_free_r+0x248>
   13cb0: 0c 6a        	ld	a1, 0x10(a2)
   13cb2: 10 6e        	ld	a2, 0x18(a2)
   13cb4: be 96        	add	a3, a3, a5
   13cb6: 93 e7 16 00  	ori	a5, a3, 0x1
   13cba: 90 ed        	sd	a2, 0x18(a1)
   13cbc: 0c ea        	sd	a1, 0x10(a2)
   13cbe: 1c e7        	sd	a5, 0x8(a4)
   13cc0: 36 97        	add	a4, a4, a3
   13cc2: 14 e3        	sd	a3, 0x0(a4)
   13cc4: b1 b7        	j	0x13c10 <_free_r+0xb2>
   13cc6: 85 89        	andi	a1, a1, 0x1
   13cc8: be 96        	add	a3, a3, a5
   13cca: 89 e9        	bnez	a1, 0x13cdc <_free_r+0x17e>
   13ccc: 83 35 04 ff  	ld	a1, -0x10(s0)
   13cd0: 0d 8f        	sub	a4, a4, a1
   13cd2: 1c 6f        	ld	a5, 0x18(a4)
   13cd4: 10 6b        	ld	a2, 0x10(a4)
   13cd6: ae 96        	add	a3, a3, a1
   13cd8: 1c ee        	sd	a5, 0x18(a2)
   13cda: 90 eb        	sd	a2, 0x10(a5)
   13cdc: 93 e7 16 00  	ori	a5, a3, 0x1
   13ce0: 1c e7        	sd	a5, 0x8(a4)
   13ce2: 18 e9        	sd	a4, 0x10(a0)
   13ce4: 97 c7 00 00  	auipc	a5, 0xc
   13ce8: 83 b7 47 e8  	ld	a5, -0x17c(a5)
   13cec: e3 e2 f6 f2  	bltu	a3, a5, 0x13c10 <_free_r+0xb2>
   13cf0: 97 c5 00 00  	auipc	a1, 0xc
   13cf4: 83 b5 05 70  	ld	a1, 0x700(a1)
   13cf8: 26 85        	mv	a0, s1
   13cfa: ef f0 9f d8  	jal	0x13a82 <_malloc_trim_r>
   13cfe: 09 bf        	j	0x13c10 <_free_r+0xb2>
   13d00: b6 97        	add	a5, a5, a3
   13d02: 71 b7        	j	0x13c8e <_free_r+0x130>
   13d04: 51 46        	li	a2, 0x14
   13d06: 63 70 d6 02  	bgeu	a2, a3, 0x13d26 <_free_r+0x1c8>
   13d0a: 13 06 40 05  	li	a2, 0x54
   13d0e: 63 6b d6 04  	bltu	a2, a3, 0x13d64 <_free_r+0x206>
   13d12: 93 d6 c7 00  	srli	a3, a5, 0xc
   13d16: 9b 85 f6 06  	addiw	a1, a3, 0x6f
   13d1a: 9b 95 15 00  	slliw	a1, a1, 0x1
   13d1e: 1b 86 e6 06  	addiw	a2, a3, 0x6e
   13d22: 8e 05        	slli	a1, a1, 0x3
   13d24: 3d b7        	j	0x13c52 <_free_r+0xf4>
   13d26: 9b 85 c6 05  	addiw	a1, a3, 0x5c
   13d2a: 9b 95 15 00  	slliw	a1, a1, 0x1
   13d2e: 1b 86 b6 05  	addiw	a2, a3, 0x5b
   13d32: 8e 05        	slli	a1, a1, 0x3
   13d34: 39 bf        	j	0x13c52 <_free_r+0xf4>
   13d36: 18 f5        	sd	a4, 0x28(a0)
   13d38: 18 f1        	sd	a4, 0x20(a0)
   13d3a: 93 e6 17 00  	ori	a3, a5, 0x1
   13d3e: 23 3c 17 01  	sd	a7, 0x18(a4)
   13d42: 23 38 17 01  	sd	a7, 0x10(a4)
   13d46: 14 e7        	sd	a3, 0x8(a4)
   13d48: 3e 97        	add	a4, a4, a5
   13d4a: 1c e3        	sd	a5, 0x0(a4)
   13d4c: d1 b5        	j	0x13c10 <_free_r+0xb2>
   13d4e: 03 38 85 00  	ld	a6, 0x8(a0)
   13d52: 1b 56 26 40  	sraiw	a2, a2, 0x2
   13d56: 85 47        	li	a5, 0x1
   13d58: b3 97 c7 00  	sll	a5, a5, a2
   13d5c: b3 e7 07 01  	or	a5, a5, a6
   13d60: 1c e5        	sd	a5, 0x8(a0)
   13d62: 31 b7        	j	0x13c6e <_free_r+0x110>
   13d64: 13 06 40 15  	li	a2, 0x154
   13d68: 63 6c d6 00  	bltu	a2, a3, 0x13d80 <_free_r+0x222>
   13d6c: 93 d6 f7 00  	srli	a3, a5, 0xf
   13d70: 9b 85 86 07  	addiw	a1, a3, 0x78
   13d74: 9b 95 15 00  	slliw	a1, a1, 0x1
   13d78: 1b 86 76 07  	addiw	a2, a3, 0x77
   13d7c: 8e 05        	slli	a1, a1, 0x3
   13d7e: d1 bd        	j	0x13c52 <_free_r+0xf4>
   13d80: 13 06 40 55  	li	a2, 0x554
   13d84: 63 6c d6 00  	bltu	a2, a3, 0x13d9c <_free_r+0x23e>
   13d88: 93 d6 27 01  	srli	a3, a5, 0x12
   13d8c: 9b 85 d6 07  	addiw	a1, a3, 0x7d
   13d90: 9b 95 15 00  	slliw	a1, a1, 0x1
   13d94: 1b 86 c6 07  	addiw	a2, a3, 0x7c
   13d98: 8e 05        	slli	a1, a1, 0x3
   13d9a: 65 bd        	j	0x13c52 <_free_r+0xf4>
   13d9c: 93 05 00 7f  	li	a1, 0x7f0
   13da0: 13 06 e0 07  	li	a2, 0x7e
   13da4: 7d b5        	j	0x13c52 <_free_r+0xf4>
   13da6: 93 e6 17 00  	ori	a3, a5, 0x1
   13daa: 14 e7        	sd	a3, 0x8(a4)
   13dac: 1c e2        	sd	a5, 0x0(a2)
   13dae: 8d b5        	j	0x13c10 <_free_r+0xb2>

0000000000013db0 <_malloc_r>:
   13db0: 1d 71        	addi	sp, sp, -0x60
   13db2: a6 e4        	sd	s1, 0x48(sp)
   13db4: ca e0        	sd	s2, 0x40(sp)
   13db6: 86 ec        	sd	ra, 0x58(sp)
   13db8: a2 e8        	sd	s0, 0x50(sp)
   13dba: 4e fc        	sd	s3, 0x38(sp)
   13dbc: 93 84 75 01  	addi	s1, a1, 0x17
   13dc0: 93 07 e0 02  	li	a5, 0x2e
   13dc4: 2a 89        	mv	s2, a0
   13dc6: 63 ee 97 04  	bltu	a5, s1, 0x13e22 <_malloc_r+0x72>
   13dca: 93 07 00 02  	li	a5, 0x20
   13dce: 63 ec b7 18  	bltu	a5, a1, 0x13f66 <_malloc_r+0x1b6>
   13dd2: ef 00 20 60  	jal	0x143d4 <__malloc_lock>
   13dd6: 93 07 00 05  	li	a5, 0x50
   13dda: 91 45        	li	a1, 0x4
   13ddc: 93 04 00 02  	li	s1, 0x20
   13de0: 97 b9 00 00  	auipc	s3, 0xb
   13de4: 93 89 09 24  	addi	s3, s3, 0x240
   13de8: ce 97        	add	a5, a5, s3
   13dea: 80 67        	ld	s0, 0x8(a5)
   13dec: 13 87 07 ff  	addi	a4, a5, -0x10
   13df0: 63 0b e4 28  	beq	s0, a4, 0x14086 <_malloc_r+0x2d6>
   13df4: 1c 64        	ld	a5, 0x8(s0)
   13df6: 14 6c        	ld	a3, 0x18(s0)
   13df8: 10 68        	ld	a2, 0x10(s0)
   13dfa: f1 9b        	andi	a5, a5, -0x4
   13dfc: a2 97        	add	a5, a5, s0
   13dfe: 98 67        	ld	a4, 0x8(a5)
   13e00: 14 ee        	sd	a3, 0x18(a2)
   13e02: 90 ea        	sd	a2, 0x10(a3)
   13e04: 13 67 17 00  	ori	a4, a4, 0x1
   13e08: 4a 85        	mv	a0, s2
   13e0a: 98 e7        	sd	a4, 0x8(a5)
   13e0c: ef 00 40 5d  	jal	0x143e0 <__malloc_unlock>
   13e10: 13 05 04 01  	addi	a0, s0, 0x10
   13e14: e6 60        	ld	ra, 0x58(sp)
   13e16: 46 64        	ld	s0, 0x50(sp)
   13e18: a6 64        	ld	s1, 0x48(sp)
   13e1a: 06 69        	ld	s2, 0x40(sp)
   13e1c: e2 79        	ld	s3, 0x38(sp)
   13e1e: 25 61        	addi	sp, sp, 0x60
   13e20: 82 80        	ret
   13e22: b7 07 00 80  	lui	a5, 0x80000
   13e26: c1 98        	andi	s1, s1, -0x10
   13e28: 93 c7 f7 ff  	not	a5, a5
   13e2c: 63 ed 97 12  	bltu	a5, s1, 0x13f66 <_malloc_r+0x1b6>
   13e30: 63 eb b4 12  	bltu	s1, a1, 0x13f66 <_malloc_r+0x1b6>
   13e34: ef 00 00 5a  	jal	0x143d4 <__malloc_lock>
   13e38: 93 07 70 1f  	li	a5, 0x1f7
   13e3c: 63 f0 97 34  	bgeu	a5, s1, 0x1417c <_malloc_r+0x3cc>
   13e40: 93 d7 94 00  	srli	a5, s1, 0x9
   13e44: 63 86 07 12  	beqz	a5, 0x13f70 <_malloc_r+0x1c0>
   13e48: 11 47        	li	a4, 0x4
   13e4a: 63 65 f7 28  	bltu	a4, a5, 0x140d4 <_malloc_r+0x324>
   13e4e: 93 d7 64 00  	srli	a5, s1, 0x6
   13e52: 9b 85 97 03  	addiw	a1, a5, 0x39
   13e56: 1b 96 15 00  	slliw	a2, a1, 0x1
   13e5a: 1b 88 87 03  	addiw	a6, a5, 0x38
   13e5e: 0e 06        	slli	a2, a2, 0x3
   13e60: 97 b9 00 00  	auipc	s3, 0xb
   13e64: 93 89 09 1c  	addi	s3, s3, 0x1c0
   13e68: 4e 96        	add	a2, a2, s3
   13e6a: 00 66        	ld	s0, 0x8(a2)
   13e6c: 41 16        	addi	a2, a2, -0x10
   13e6e: 63 01 86 02  	beq	a2, s0, 0x13e90 <_malloc_r+0xe0>
   13e72: 7d 45        	li	a0, 0x1f
   13e74: 39 a0        	j	0x13e82 <_malloc_r+0xd2>
   13e76: 14 6c        	ld	a3, 0x18(s0)
   13e78: 63 55 07 20  	bgez	a4, 0x14082 <_malloc_r+0x2d2>
   13e7c: 63 0a d6 00  	beq	a2, a3, 0x13e90 <_malloc_r+0xe0>
   13e80: 36 84        	mv	s0, a3
   13e82: 1c 64        	ld	a5, 0x8(s0)
   13e84: f1 9b        	andi	a5, a5, -0x4
   13e86: 33 87 97 40  	sub	a4, a5, s1
   13e8a: e3 56 e5 fe  	bge	a0, a4, 0x13e76 <_malloc_r+0xc6>
   13e8e: c2 85        	mv	a1, a6
   13e90: 03 b4 09 02  	ld	s0, 0x20(s3)
   13e94: 97 b8 00 00  	auipc	a7, 0xb
   13e98: 93 88 c8 19  	addi	a7, a7, 0x19c
   13e9c: 63 00 14 1f  	beq	s0, a7, 0x1407c <_malloc_r+0x2cc>
   13ea0: 1c 64        	ld	a5, 0x8(s0)
   13ea2: fd 46        	li	a3, 0x1f
   13ea4: f1 9b        	andi	a5, a5, -0x4
   13ea6: 33 87 97 40  	sub	a4, a5, s1
   13eaa: 63 c2 e6 2a  	blt	a3, a4, 0x1414e <_malloc_r+0x39e>
   13eae: 23 b4 19 03  	sd	a7, 0x28(s3)
   13eb2: 23 b0 19 03  	sd	a7, 0x20(s3)
   13eb6: 63 51 07 28  	bgez	a4, 0x14138 <_malloc_r+0x388>
   13eba: 13 07 f0 1f  	li	a4, 0x1ff
   13ebe: 03 b5 89 00  	ld	a0, 0x8(s3)
   13ec2: 63 67 f7 1c  	bltu	a4, a5, 0x14090 <_malloc_r+0x2e0>
   13ec6: 8d 83        	srli	a5, a5, 0x3
   13ec8: 1b 87 17 00  	addiw	a4, a5, 0x1
   13ecc: 1b 17 17 00  	slliw	a4, a4, 0x1
   13ed0: 0e 07        	slli	a4, a4, 0x3
   13ed2: 4e 97        	add	a4, a4, s3
   13ed4: 10 63        	ld	a2, 0x0(a4)
   13ed6: 9b d7 27 40  	sraiw	a5, a5, 0x2
   13eda: 85 46        	li	a3, 0x1
   13edc: b3 97 f6 00  	sll	a5, a3, a5
   13ee0: 5d 8d        	or	a0, a0, a5
   13ee2: 93 07 07 ff  	addi	a5, a4, -0x10
   13ee6: 1c ec        	sd	a5, 0x18(s0)
   13ee8: 10 e8        	sd	a2, 0x10(s0)
   13eea: 23 b4 a9 00  	sd	a0, 0x8(s3)
   13eee: 00 e3        	sd	s0, 0x0(a4)
   13ef0: 00 ee        	sd	s0, 0x18(a2)
   13ef2: 9b d7 25 40  	sraiw	a5, a1, 0x2
   13ef6: 05 46        	li	a2, 0x1
   13ef8: 33 16 f6 00  	sll	a2, a2, a5
   13efc: 63 61 c5 08  	bltu	a0, a2, 0x13f7e <_malloc_r+0x1ce>
   13f00: b3 77 a6 00  	and	a5, a2, a0
   13f04: 81 ef        	bnez	a5, 0x13f1c <_malloc_r+0x16c>
   13f06: 06 06        	slli	a2, a2, 0x1
   13f08: f1 99        	andi	a1, a1, -0x4
   13f0a: b3 77 a6 00  	and	a5, a2, a0
   13f0e: 91 25        	addiw	a1, a1, 0x4
   13f10: 91 e7        	bnez	a5, 0x13f1c <_malloc_r+0x16c>
   13f12: 06 06        	slli	a2, a2, 0x1
   13f14: b3 77 a6 00  	and	a5, a2, a0
   13f18: 91 25        	addiw	a1, a1, 0x4
   13f1a: e5 df        	beqz	a5, 0x13f12 <_malloc_r+0x162>
   13f1c: 7d 48        	li	a6, 0x1f
   13f1e: 1b 83 15 00  	addiw	t1, a1, 0x1
   13f22: 1b 13 13 00  	slliw	t1, t1, 0x1
   13f26: 0e 03        	slli	t1, t1, 0x3
   13f28: 41 13        	addi	t1, t1, -0x10
   13f2a: 4e 93        	add	t1, t1, s3
   13f2c: 1a 85        	mv	a0, t1
   13f2e: 1c 6d        	ld	a5, 0x18(a0)
   13f30: 2e 8e        	mv	t3, a1
   13f32: 63 02 f5 1c  	beq	a0, a5, 0x140f6 <_malloc_r+0x346>
   13f36: 98 67        	ld	a4, 0x8(a5)
   13f38: 3e 84        	mv	s0, a5
   13f3a: 9c 6f        	ld	a5, 0x18(a5)
   13f3c: 71 9b        	andi	a4, a4, -0x4
   13f3e: b3 06 97 40  	sub	a3, a4, s1
   13f42: 63 41 d8 1c  	blt	a6, a3, 0x14104 <_malloc_r+0x354>
   13f46: e3 c6 06 fe  	bltz	a3, 0x13f32 <_malloc_r+0x182>
   13f4a: 22 97        	add	a4, a4, s0
   13f4c: 14 67        	ld	a3, 0x8(a4)
   13f4e: 10 68        	ld	a2, 0x10(s0)
   13f50: 4a 85        	mv	a0, s2
   13f52: 93 e6 16 00  	ori	a3, a3, 0x1
   13f56: 14 e7        	sd	a3, 0x8(a4)
   13f58: 1c ee        	sd	a5, 0x18(a2)
   13f5a: 90 eb        	sd	a2, 0x10(a5)
   13f5c: ef 00 40 48  	jal	0x143e0 <__malloc_unlock>
   13f60: 13 05 04 01  	addi	a0, s0, 0x10
   13f64: 45 bd        	j	0x13e14 <_malloc_r+0x64>
   13f66: b1 47        	li	a5, 0xc
   13f68: 23 20 f9 00  	sw	a5, 0x0(s2)
   13f6c: 01 45        	li	a0, 0x0
   13f6e: 5d b5        	j	0x13e14 <_malloc_r+0x64>
   13f70: 13 06 00 40  	li	a2, 0x400
   13f74: 93 05 00 04  	li	a1, 0x40
   13f78: 13 08 f0 03  	li	a6, 0x3f
   13f7c: d5 b5        	j	0x13e60 <_malloc_r+0xb0>
   13f7e: 03 b4 09 01  	ld	s0, 0x10(s3)
   13f82: 56 f4        	sd	s5, 0x28(sp)
   13f84: 1c 64        	ld	a5, 0x8(s0)
   13f86: 93 fa c7 ff  	andi	s5, a5, -0x4
   13f8a: 63 e7 9a 00  	bltu	s5, s1, 0x13f98 <_malloc_r+0x1e8>
   13f8e: 33 87 9a 40  	sub	a4, s5, s1
   13f92: fd 47        	li	a5, 0x1f
   13f94: 63 ce e7 0a  	blt	a5, a4, 0x14050 <_malloc_r+0x2a0>
   13f98: 66 e4        	sd	s9, 0x8(sp)
   13f9a: 97 cc 00 00  	auipc	s9, 0xc
   13f9e: 93 8c 6c bc  	addi	s9, s9, -0x43a
   13fa2: 03 b7 0c 00  	ld	a4, 0x0(s9)
   13fa6: 52 f8        	sd	s4, 0x30(sp)
   13fa8: 5e ec        	sd	s7, 0x18(sp)
   13faa: 17 ca 00 00  	auipc	s4, 0xc
   13fae: 03 3a 6a 44  	ld	s4, 0x446(s4)
   13fb2: 5a f0        	sd	s6, 0x20(sp)
   13fb4: fd 57        	li	a5, -0x1
   13fb6: b3 0b 54 01  	add	s7, s0, s5
   13fba: 26 9a        	add	s4, s4, s1
   13fbc: 63 00 f7 30  	beq	a4, a5, 0x142bc <_malloc_r+0x50c>
   13fc0: 85 67        	lui	a5, 0x1
   13fc2: fd 07        	addi	a5, a5, 0x1f
   13fc4: 3e 9a        	add	s4, s4, a5
   13fc6: fd 77        	lui	a5, 0xfffff
   13fc8: 33 7a fa 00  	and	s4, s4, a5
   13fcc: d2 85        	mv	a1, s4
   13fce: 4a 85        	mv	a0, s2
   13fd0: ef 80 a0 48  	jal	0x1c45a <_sbrk_r>
   13fd4: fd 57        	li	a5, -0x1
   13fd6: 2a 8b        	mv	s6, a0
   13fd8: 63 08 f5 36  	beq	a0, a5, 0x14348 <_malloc_r+0x598>
   13fdc: 62 e8        	sd	s8, 0x10(sp)
   13fde: 63 62 75 1d  	bltu	a0, s7, 0x141a2 <_malloc_r+0x3f2>
   13fe2: 17 cc 00 00  	auipc	s8, 0xc
   13fe6: 13 0c ec 11  	addi	s8, s8, 0x11e
   13fea: 83 27 0c 00  	lw	a5, 0x0(s8)
   13fee: 3b 87 47 01  	addw	a4, a5, s4
   13ff2: 23 20 ec 00  	sw	a4, 0x0(s8)
   13ff6: ba 86        	mv	a3, a4
   13ff8: 63 9d ab 20  	bne	s7, a0, 0x14212 <_malloc_r+0x462>
   13ffc: 93 17 45 03  	slli	a5, a0, 0x34
   14000: 63 99 07 20  	bnez	a5, 0x14212 <_malloc_r+0x462>
   14004: 03 bb 09 01  	ld	s6, 0x10(s3)
   14008: b3 87 4a 01  	add	a5, s5, s4
   1400c: 93 e7 17 00  	ori	a5, a5, 0x1
   14010: 23 34 fb 00  	sd	a5, 0x8(s6)
   14014: 97 c6 00 00  	auipc	a3, 0xc
   14018: 93 86 46 3d  	addi	a3, a3, 0x3d4
   1401c: 90 62        	ld	a2, 0x0(a3)
   1401e: 63 73 e6 00  	bgeu	a2, a4, 0x14024 <_malloc_r+0x274>
   14022: 98 e2        	sd	a4, 0x0(a3)
   14024: 97 c6 00 00  	auipc	a3, 0xc
   14028: 93 86 c6 3b  	addi	a3, a3, 0x3bc
   1402c: 90 62        	ld	a2, 0x0(a3)
   1402e: 63 73 e6 00  	bgeu	a2, a4, 0x14034 <_malloc_r+0x284>
   14032: 98 e2        	sd	a4, 0x0(a3)
   14034: 42 6c        	ld	s8, 0x10(sp)
   14036: 5a 84        	mv	s0, s6
   14038: f1 9b        	andi	a5, a5, -0x4
   1403a: 33 87 97 40  	sub	a4, a5, s1
   1403e: 63 ef 97 2a  	bltu	a5, s1, 0x142fc <_malloc_r+0x54c>
   14042: fd 47        	li	a5, 0x1f
   14044: 63 dc e7 2a  	bge	a5, a4, 0x142fc <_malloc_r+0x54c>
   14048: 42 7a        	ld	s4, 0x30(sp)
   1404a: 02 7b        	ld	s6, 0x20(sp)
   1404c: e2 6b        	ld	s7, 0x18(sp)
   1404e: a2 6c        	ld	s9, 0x8(sp)
   14050: 93 e7 14 00  	ori	a5, s1, 0x1
   14054: 1c e4        	sd	a5, 0x8(s0)
   14056: a2 94        	add	s1, s1, s0
   14058: 23 b8 99 00  	sd	s1, 0x10(s3)
   1405c: 13 67 17 00  	ori	a4, a4, 0x1
   14060: 4a 85        	mv	a0, s2
   14062: 98 e4        	sd	a4, 0x8(s1)
   14064: ef 00 c0 37  	jal	0x143e0 <__malloc_unlock>
   14068: e6 60        	ld	ra, 0x58(sp)
   1406a: 13 05 04 01  	addi	a0, s0, 0x10
   1406e: 46 64        	ld	s0, 0x50(sp)
   14070: a2 7a        	ld	s5, 0x28(sp)
   14072: a6 64        	ld	s1, 0x48(sp)
   14074: 06 69        	ld	s2, 0x40(sp)
   14076: e2 79        	ld	s3, 0x38(sp)
   14078: 25 61        	addi	sp, sp, 0x60
   1407a: 82 80        	ret
   1407c: 03 b5 89 00  	ld	a0, 0x8(s3)
   14080: 8d bd        	j	0x13ef2 <_malloc_r+0x142>
   14082: 10 68        	ld	a2, 0x10(s0)
   14084: a5 bb        	j	0x13dfc <_malloc_r+0x4c>
   14086: 80 6f        	ld	s0, 0x18(a5)
   14088: 89 25        	addiw	a1, a1, 0x2
   1408a: e3 83 87 e0  	beq	a5, s0, 0x13e90 <_malloc_r+0xe0>
   1408e: 9d b3        	j	0x13df4 <_malloc_r+0x44>
   14090: 13 d7 97 00  	srli	a4, a5, 0x9
   14094: 91 46        	li	a3, 0x4
   14096: 63 fc e6 0e  	bgeu	a3, a4, 0x1418e <_malloc_r+0x3de>
   1409a: d1 46        	li	a3, 0x14
   1409c: 63 ea e6 26  	bltu	a3, a4, 0x14310 <_malloc_r+0x560>
   140a0: 1b 06 c7 05  	addiw	a2, a4, 0x5c
   140a4: 1b 16 16 00  	slliw	a2, a2, 0x1
   140a8: 9b 06 b7 05  	addiw	a3, a4, 0x5b
   140ac: 0e 06        	slli	a2, a2, 0x3
   140ae: 4e 96        	add	a2, a2, s3
   140b0: 18 62        	ld	a4, 0x0(a2)
   140b2: 41 16        	addi	a2, a2, -0x10
   140b4: 63 16 e6 00  	bne	a2, a4, 0x140c0 <_malloc_r+0x310>
   140b8: 29 a4        	j	0x142c2 <_malloc_r+0x512>
   140ba: 18 6b        	ld	a4, 0x10(a4)
   140bc: 63 06 e6 00  	beq	a2, a4, 0x140c8 <_malloc_r+0x318>
   140c0: 14 67        	ld	a3, 0x8(a4)
   140c2: f1 9a        	andi	a3, a3, -0x4
   140c4: e3 eb d7 fe  	bltu	a5, a3, 0x140ba <_malloc_r+0x30a>
   140c8: 10 6f        	ld	a2, 0x18(a4)
   140ca: 10 ec        	sd	a2, 0x18(s0)
   140cc: 18 e8        	sd	a4, 0x10(s0)
   140ce: 00 ea        	sd	s0, 0x10(a2)
   140d0: 00 ef        	sd	s0, 0x18(a4)
   140d2: 05 b5        	j	0x13ef2 <_malloc_r+0x142>
   140d4: 51 47        	li	a4, 0x14
   140d6: 63 7d f7 0c  	bgeu	a4, a5, 0x141b0 <_malloc_r+0x400>
   140da: 13 07 40 05  	li	a4, 0x54
   140de: 63 67 f7 24  	bltu	a4, a5, 0x1432c <_malloc_r+0x57c>
   140e2: 93 d7 c4 00  	srli	a5, s1, 0xc
   140e6: 9b 85 f7 06  	addiw	a1, a5, 0x6f
   140ea: 1b 96 15 00  	slliw	a2, a1, 0x1
   140ee: 1b 88 e7 06  	addiw	a6, a5, 0x6e
   140f2: 0e 06        	slli	a2, a2, 0x3
   140f4: b5 b3        	j	0x13e60 <_malloc_r+0xb0>
   140f6: 05 2e        	addiw	t3, t3, 0x1
   140f8: 93 77 3e 00  	andi	a5, t3, 0x3
   140fc: 41 05        	addi	a0, a0, 0x10
   140fe: f1 c7        	beqz	a5, 0x141ca <_malloc_r+0x41a>
   14100: 1c 6d        	ld	a5, 0x18(a0)
   14102: 05 bd        	j	0x13f32 <_malloc_r+0x182>
   14104: 10 68        	ld	a2, 0x10(s0)
   14106: 93 e5 14 00  	ori	a1, s1, 0x1
   1410a: 0c e4        	sd	a1, 0x8(s0)
   1410c: 1c ee        	sd	a5, 0x18(a2)
   1410e: 90 eb        	sd	a2, 0x10(a5)
   14110: a2 94        	add	s1, s1, s0
   14112: 23 b4 99 02  	sd	s1, 0x28(s3)
   14116: 23 b0 99 02  	sd	s1, 0x20(s3)
   1411a: 93 e7 16 00  	ori	a5, a3, 0x1
   1411e: 23 bc 14 01  	sd	a7, 0x18(s1)
   14122: 23 b8 14 01  	sd	a7, 0x10(s1)
   14126: 9c e4        	sd	a5, 0x8(s1)
   14128: 22 97        	add	a4, a4, s0
   1412a: 4a 85        	mv	a0, s2
   1412c: 14 e3        	sd	a3, 0x0(a4)
   1412e: ef 00 20 2b  	jal	0x143e0 <__malloc_unlock>
   14132: 13 05 04 01  	addi	a0, s0, 0x10
   14136: f9 b9        	j	0x13e14 <_malloc_r+0x64>
   14138: a2 97        	add	a5, a5, s0
   1413a: 98 67        	ld	a4, 0x8(a5)
   1413c: 4a 85        	mv	a0, s2
   1413e: 13 67 17 00  	ori	a4, a4, 0x1
   14142: 98 e7        	sd	a4, 0x8(a5)
   14144: ef 00 c0 29  	jal	0x143e0 <__malloc_unlock>
   14148: 13 05 04 01  	addi	a0, s0, 0x10
   1414c: e1 b1        	j	0x13e14 <_malloc_r+0x64>
   1414e: 93 e6 14 00  	ori	a3, s1, 0x1
   14152: 14 e4        	sd	a3, 0x8(s0)
   14154: a2 94        	add	s1, s1, s0
   14156: 23 b4 99 02  	sd	s1, 0x28(s3)
   1415a: 23 b0 99 02  	sd	s1, 0x20(s3)
   1415e: 93 66 17 00  	ori	a3, a4, 0x1
   14162: 23 bc 14 01  	sd	a7, 0x18(s1)
   14166: 23 b8 14 01  	sd	a7, 0x10(s1)
   1416a: 94 e4        	sd	a3, 0x8(s1)
   1416c: a2 97        	add	a5, a5, s0
   1416e: 4a 85        	mv	a0, s2
   14170: 98 e3        	sd	a4, 0x0(a5)
   14172: ef 00 e0 26  	jal	0x143e0 <__malloc_unlock>
   14176: 13 05 04 01  	addi	a0, s0, 0x10
   1417a: 69 b9        	j	0x13e14 <_malloc_r+0x64>
   1417c: 93 d5 34 00  	srli	a1, s1, 0x3
   14180: 9b 87 15 00  	addiw	a5, a1, 0x1
   14184: 9b 97 17 00  	slliw	a5, a5, 0x1
   14188: 81 25        	sext.w	a1, a1
   1418a: 8e 07        	slli	a5, a5, 0x3
   1418c: 91 b9        	j	0x13de0 <_malloc_r+0x30>
   1418e: 13 d7 67 00  	srli	a4, a5, 0x6
   14192: 1b 06 97 03  	addiw	a2, a4, 0x39
   14196: 1b 16 16 00  	slliw	a2, a2, 0x1
   1419a: 9b 06 87 03  	addiw	a3, a4, 0x38
   1419e: 0e 06        	slli	a2, a2, 0x3
   141a0: 39 b7        	j	0x140ae <_malloc_r+0x2fe>
   141a2: 63 0e 34 05  	beq	s0, s3, 0x141fe <_malloc_r+0x44e>
   141a6: 03 b4 09 01  	ld	s0, 0x10(s3)
   141aa: 42 6c        	ld	s8, 0x10(sp)
   141ac: 1c 64        	ld	a5, 0x8(s0)
   141ae: 69 b5        	j	0x14038 <_malloc_r+0x288>
   141b0: 9b 85 c7 05  	addiw	a1, a5, 0x5c
   141b4: 1b 96 15 00  	slliw	a2, a1, 0x1
   141b8: 1b 88 b7 05  	addiw	a6, a5, 0x5b
   141bc: 0e 06        	slli	a2, a2, 0x3
   141be: 4d b1        	j	0x13e60 <_malloc_r+0xb0>
   141c0: 83 37 03 01  	ld	a5, 0x10(t1)
   141c4: fd 35        	addiw	a1, a1, -0x1
   141c6: 63 94 67 20  	bne	a5, t1, 0x143ce <_malloc_r+0x61e>
   141ca: 93 f7 35 00  	andi	a5, a1, 0x3
   141ce: 41 13        	addi	t1, t1, -0x10
   141d0: e5 fb        	bnez	a5, 0x141c0 <_malloc_r+0x410>
   141d2: 03 b7 89 00  	ld	a4, 0x8(s3)
   141d6: 93 47 f6 ff  	not	a5, a2
   141da: f9 8f        	and	a5, a5, a4
   141dc: 23 b4 f9 00  	sd	a5, 0x8(s3)
   141e0: 06 06        	slli	a2, a2, 0x1
   141e2: e3 ee c7 d8  	bltu	a5, a2, 0x13f7e <_malloc_r+0x1ce>
   141e6: e3 0c 06 d8  	beqz	a2, 0x13f7e <_malloc_r+0x1ce>
   141ea: 33 77 f6 00  	and	a4, a2, a5
   141ee: 11 e7        	bnez	a4, 0x141fa <_malloc_r+0x44a>
   141f0: 06 06        	slli	a2, a2, 0x1
   141f2: 33 77 f6 00  	and	a4, a2, a5
   141f6: 11 2e        	addiw	t3, t3, 0x4
   141f8: 65 df        	beqz	a4, 0x141f0 <_malloc_r+0x440>
   141fa: f2 85        	mv	a1, t3
   141fc: 0d b3        	j	0x13f1e <_malloc_r+0x16e>
   141fe: 17 cc 00 00  	auipc	s8, 0xc
   14202: 13 0c 2c f0  	addi	s8, s8, -0xfe
   14206: 83 27 0c 00  	lw	a5, 0x0(s8)
   1420a: bb 86 47 01  	addw	a3, a5, s4
   1420e: 23 20 dc 00  	sw	a3, 0x0(s8)
   14212: 03 b7 0c 00  	ld	a4, 0x0(s9)
   14216: fd 57        	li	a5, -0x1
   14218: 63 0c f7 12  	beq	a4, a5, 0x14350 <_malloc_r+0x5a0>
   1421c: b3 07 7b 41  	sub	a5, s6, s7
   14220: b5 9f        	addw	a5, a5, a3
   14222: 23 20 fc 00  	sw	a5, 0x0(s8)
   14226: 93 7c fb 00  	andi	s9, s6, 0xf
   1422a: 63 85 0c 0a  	beqz	s9, 0x142d4 <_malloc_r+0x524>
   1422e: 33 0b 9b 41  	sub	s6, s6, s9
   14232: 05 67        	lui	a4, 0x1
   14234: 41 07        	addi	a4, a4, 0x10
   14236: 41 0b        	addi	s6, s6, 0x10
   14238: b3 0b 97 41  	sub	s7, a4, s9
   1423c: 5a 9a        	add	s4, s4, s6
   1423e: b3 8b 4b 41  	sub	s7, s7, s4
   14242: d2 1b        	slli	s7, s7, 0x34
   14244: 93 db 4b 03  	srli	s7, s7, 0x34
   14248: de 85        	mv	a1, s7
   1424a: 4a 85        	mv	a0, s2
   1424c: ef 80 e0 20  	jal	0x1c45a <_sbrk_r>
   14250: fd 57        	li	a5, -0x1
   14252: 63 0e f5 12  	beq	a0, a5, 0x1438e <_malloc_r+0x5de>
   14256: 33 05 65 41  	sub	a0, a0, s6
   1425a: 9b 86 0b 00  	sext.w	a3, s7
   1425e: 33 0a 75 01  	add	s4, a0, s7
   14262: 03 27 0c 00  	lw	a4, 0x0(s8)
   14266: 23 b8 69 01  	sd	s6, 0x10(s3)
   1426a: 93 67 1a 00  	ori	a5, s4, 0x1
   1426e: 35 9f        	addw	a4, a4, a3
   14270: 23 20 ec 00  	sw	a4, 0x0(s8)
   14274: 23 34 fb 00  	sd	a5, 0x8(s6)
   14278: e3 0e 34 d9  	beq	s0, s3, 0x14014 <_malloc_r+0x264>
   1427c: 7d 46        	li	a2, 0x1f
   1427e: 63 7b 56 07  	bgeu	a2, s5, 0x142f4 <_malloc_r+0x544>
   14282: 14 64        	ld	a3, 0x8(s0)
   14284: 93 87 8a fe  	addi	a5, s5, -0x18
   14288: c1 9b        	andi	a5, a5, -0x10
   1428a: 85 8a        	andi	a3, a3, 0x1
   1428c: dd 8e        	or	a3, a3, a5
   1428e: 14 e4        	sd	a3, 0x8(s0)
   14290: a5 45        	li	a1, 0x9
   14292: b3 06 f4 00  	add	a3, s0, a5
   14296: 8c e6        	sd	a1, 0x8(a3)
   14298: 8c ea        	sd	a1, 0x10(a3)
   1429a: 63 65 f6 00  	bltu	a2, a5, 0x142a4 <_malloc_r+0x4f4>
   1429e: 83 37 8b 00  	ld	a5, 0x8(s6)
   142a2: 8d bb        	j	0x14014 <_malloc_r+0x264>
   142a4: 93 05 04 01  	addi	a1, s0, 0x10
   142a8: 4a 85        	mv	a0, s2
   142aa: ef f0 5f 8b  	jal	0x13b5e <_free_r>
   142ae: 03 bb 09 01  	ld	s6, 0x10(s3)
   142b2: 03 27 0c 00  	lw	a4, 0x0(s8)
   142b6: 83 37 8b 00  	ld	a5, 0x8(s6)
   142ba: a9 bb        	j	0x14014 <_malloc_r+0x264>
   142bc: 13 0a 0a 02  	addi	s4, s4, 0x20
   142c0: 31 b3        	j	0x13fcc <_malloc_r+0x21c>
   142c2: 9b d6 26 40  	sraiw	a3, a3, 0x2
   142c6: 85 47        	li	a5, 0x1
   142c8: b3 97 d7 00  	sll	a5, a5, a3
   142cc: 5d 8d        	or	a0, a0, a5
   142ce: 23 b4 a9 00  	sd	a0, 0x8(s3)
   142d2: e5 bb        	j	0x140ca <_malloc_r+0x31a>
   142d4: b3 0b 4b 01  	add	s7, s6, s4
   142d8: b3 0b 70 41  	neg	s7, s7
   142dc: d2 1b        	slli	s7, s7, 0x34
   142de: 93 db 4b 03  	srli	s7, s7, 0x34
   142e2: de 85        	mv	a1, s7
   142e4: 4a 85        	mv	a0, s2
   142e6: ef 80 40 17  	jal	0x1c45a <_sbrk_r>
   142ea: fd 57        	li	a5, -0x1
   142ec: 81 46        	li	a3, 0x0
   142ee: e3 14 f5 f6  	bne	a0, a5, 0x14256 <_malloc_r+0x4a6>
   142f2: 85 bf        	j	0x14262 <_malloc_r+0x4b2>
   142f4: 42 6c        	ld	s8, 0x10(sp)
   142f6: 85 47        	li	a5, 0x1
   142f8: 23 34 fb 00  	sd	a5, 0x8(s6)
   142fc: 4a 85        	mv	a0, s2
   142fe: ef 00 20 0e  	jal	0x143e0 <__malloc_unlock>
   14302: 01 45        	li	a0, 0x0
   14304: 42 7a        	ld	s4, 0x30(sp)
   14306: a2 7a        	ld	s5, 0x28(sp)
   14308: 02 7b        	ld	s6, 0x20(sp)
   1430a: e2 6b        	ld	s7, 0x18(sp)
   1430c: a2 6c        	ld	s9, 0x8(sp)
   1430e: 19 b6        	j	0x13e14 <_malloc_r+0x64>
   14310: 93 06 40 05  	li	a3, 0x54
   14314: 63 e1 e6 04  	bltu	a3, a4, 0x14356 <_malloc_r+0x5a6>
   14318: 13 d7 c7 00  	srli	a4, a5, 0xc
   1431c: 1b 06 f7 06  	addiw	a2, a4, 0x6f
   14320: 1b 16 16 00  	slliw	a2, a2, 0x1
   14324: 9b 06 e7 06  	addiw	a3, a4, 0x6e
   14328: 0e 06        	slli	a2, a2, 0x3
   1432a: 51 b3        	j	0x140ae <_malloc_r+0x2fe>
   1432c: 13 07 40 15  	li	a4, 0x154
   14330: 63 61 f7 04  	bltu	a4, a5, 0x14372 <_malloc_r+0x5c2>
   14334: 93 d7 f4 00  	srli	a5, s1, 0xf
   14338: 9b 85 87 07  	addiw	a1, a5, 0x78
   1433c: 1b 96 15 00  	slliw	a2, a1, 0x1
   14340: 1b 88 77 07  	addiw	a6, a5, 0x77
   14344: 0e 06        	slli	a2, a2, 0x3
   14346: 29 be        	j	0x13e60 <_malloc_r+0xb0>
   14348: 03 b4 09 01  	ld	s0, 0x10(s3)
   1434c: 1c 64        	ld	a5, 0x8(s0)
   1434e: ed b1        	j	0x14038 <_malloc_r+0x288>
   14350: 23 b0 6c 01  	sd	s6, 0x0(s9)
   14354: c9 bd        	j	0x14226 <_malloc_r+0x476>
   14356: 93 06 40 15  	li	a3, 0x154
   1435a: 63 e0 e6 04  	bltu	a3, a4, 0x1439a <_malloc_r+0x5ea>
   1435e: 13 d7 f7 00  	srli	a4, a5, 0xf
   14362: 1b 06 87 07  	addiw	a2, a4, 0x78
   14366: 1b 16 16 00  	slliw	a2, a2, 0x1
   1436a: 9b 06 77 07  	addiw	a3, a4, 0x77
   1436e: 0e 06        	slli	a2, a2, 0x3
   14370: 3d bb        	j	0x140ae <_malloc_r+0x2fe>
   14372: 13 07 40 55  	li	a4, 0x554
   14376: 63 60 f7 04  	bltu	a4, a5, 0x143b6 <_malloc_r+0x606>
   1437a: 93 d7 24 01  	srli	a5, s1, 0x12
   1437e: 9b 85 d7 07  	addiw	a1, a5, 0x7d
   14382: 1b 96 15 00  	slliw	a2, a1, 0x1
   14386: 1b 88 c7 07  	addiw	a6, a5, 0x7c
   1438a: 0e 06        	slli	a2, a2, 0x3
   1438c: d1 bc        	j	0x13e60 <_malloc_r+0xb0>
   1438e: c1 1c        	addi	s9, s9, -0x10
   14390: 66 9a        	add	s4, s4, s9
   14392: 33 0a 6a 41  	sub	s4, s4, s6
   14396: 81 46        	li	a3, 0x0
   14398: e9 b5        	j	0x14262 <_malloc_r+0x4b2>
   1439a: 93 06 40 55  	li	a3, 0x554
   1439e: 63 e3 e6 02  	bltu	a3, a4, 0x143c4 <_malloc_r+0x614>
   143a2: 13 d7 27 01  	srli	a4, a5, 0x12
   143a6: 1b 06 d7 07  	addiw	a2, a4, 0x7d
   143aa: 1b 16 16 00  	slliw	a2, a2, 0x1
   143ae: 9b 06 c7 07  	addiw	a3, a4, 0x7c
   143b2: 0e 06        	slli	a2, a2, 0x3
   143b4: ed b9        	j	0x140ae <_malloc_r+0x2fe>
   143b6: 13 06 00 7f  	li	a2, 0x7f0
   143ba: 93 05 f0 07  	li	a1, 0x7f
   143be: 13 08 e0 07  	li	a6, 0x7e
   143c2: 79 bc        	j	0x13e60 <_malloc_r+0xb0>
   143c4: 13 06 00 7f  	li	a2, 0x7f0
   143c8: 93 06 e0 07  	li	a3, 0x7e
   143cc: cd b1        	j	0x140ae <_malloc_r+0x2fe>
   143ce: 83 b7 89 00  	ld	a5, 0x8(s3)
   143d2: 39 b5        	j	0x141e0 <_malloc_r+0x430>

00000000000143d4 <__malloc_lock>:
   143d4: 17 c5 00 00  	auipc	a0, 0xc
   143d8: 13 05 c5 05  	addi	a0, a0, 0x5c
   143dc: 6f 80 a0 1a  	j	0x1c586 <__retarget_lock_acquire_recursive>

00000000000143e0 <__malloc_unlock>:
   143e0: 17 c5 00 00  	auipc	a0, 0xc
   143e4: 13 05 05 05  	addi	a0, a0, 0x50
   143e8: 6f 80 a0 1a  	j	0x1c592 <__retarget_lock_release_recursive>

00000000000143ec <_fwalk_sglue>:
   143ec: 5d 71        	addi	sp, sp, -0x50
   143ee: 4a f8        	sd	s2, 0x30(sp)
   143f0: 4e f4        	sd	s3, 0x28(sp)
   143f2: 52 f0        	sd	s4, 0x20(sp)
   143f4: 56 ec        	sd	s5, 0x18(sp)
   143f6: 5a e8        	sd	s6, 0x10(sp)
   143f8: 5e e4        	sd	s7, 0x8(sp)
   143fa: 62 e0        	sd	s8, 0x0(sp)
   143fc: 86 e4        	sd	ra, 0x48(sp)
   143fe: a2 e0        	sd	s0, 0x40(sp)
   14400: 26 fc        	sd	s1, 0x38(sp)
   14402: 2a 8a        	mv	s4, a0
   14404: 2e 8b        	mv	s6, a1
   14406: b2 89        	mv	s3, a2
   14408: 01 49        	li	s2, 0x0
   1440a: 93 0b 80 0b  	li	s7, 0xb8
   1440e: 05 4c        	li	s8, 0x1
   14410: fd 5a        	li	s5, -0x1
   14412: 83 a4 89 00  	lw	s1, 0x8(s3)
   14416: 03 b4 09 01  	ld	s0, 0x10(s3)
   1441a: 63 59 90 02  	blez	s1, 0x1444c <_fwalk_sglue+0x60>
   1441e: 82 14        	slli	s1, s1, 0x20
   14420: 81 90        	srli	s1, s1, 0x20
   14422: b3 84 74 03  	mul	s1, s1, s7
   14426: a2 94        	add	s1, s1, s0
   14428: 83 57 04 01  	lhu	a5, 0x10(s0)
   1442c: 63 7c fc 00  	bgeu	s8, a5, 0x14444 <_fwalk_sglue+0x58>
   14430: 83 17 24 01  	lh	a5, 0x12(s0)
   14434: a2 85        	mv	a1, s0
   14436: 52 85        	mv	a0, s4
   14438: 63 86 57 01  	beq	a5, s5, 0x14444 <_fwalk_sglue+0x58>
   1443c: 02 9b        	jalr	s6
   1443e: 33 69 25 01  	or	s2, a0, s2
   14442: 01 29        	sext.w	s2, s2
   14444: 13 04 84 0b  	addi	s0, s0, 0xb8
   14448: e3 10 94 fe  	bne	s0, s1, 0x14428 <_fwalk_sglue+0x3c>
   1444c: 83 b9 09 00  	ld	s3, 0x0(s3)
   14450: e3 91 09 fc  	bnez	s3, 0x14412 <_fwalk_sglue+0x26>
   14454: a6 60        	ld	ra, 0x48(sp)
   14456: 06 64        	ld	s0, 0x40(sp)
   14458: e2 74        	ld	s1, 0x38(sp)
   1445a: a2 79        	ld	s3, 0x28(sp)
   1445c: 02 7a        	ld	s4, 0x20(sp)
   1445e: e2 6a        	ld	s5, 0x18(sp)
   14460: 42 6b        	ld	s6, 0x10(sp)
   14462: a2 6b        	ld	s7, 0x8(sp)
   14464: 02 6c        	ld	s8, 0x0(sp)
   14466: 4a 85        	mv	a0, s2
   14468: 42 79        	ld	s2, 0x30(sp)
   1446a: 61 61        	addi	sp, sp, 0x50
   1446c: 82 80        	ret

000000000001446e <_printf_r>:
   1446e: 5d 71        	addi	sp, sp, -0x50
   14470: 32 f0        	sd	a2, 0x20(sp)
   14472: 36 f4        	sd	a3, 0x28(sp)
   14474: 3a f8        	sd	a4, 0x30(sp)
   14476: 3e fc        	sd	a5, 0x38(sp)
   14478: c2 e0        	sd	a6, 0x40(sp)
   1447a: c6 e4        	sd	a7, 0x48(sp)
   1447c: 2e 86        	mv	a2, a1
   1447e: 0c 69        	ld	a1, 0x10(a0)
   14480: 14 10        	addi	a3, sp, 0x20
   14482: 06 ec        	sd	ra, 0x18(sp)
   14484: 36 e4        	sd	a3, 0x8(sp)
   14486: ef 00 a0 03  	jal	0x144c0 <_vfprintf_r>
   1448a: e2 60        	ld	ra, 0x18(sp)
   1448c: 61 61        	addi	sp, sp, 0x50
   1448e: 82 80        	ret

0000000000014490 <printf>:
   14490: 1d 71        	addi	sp, sp, -0x60
   14492: 32 f8        	sd	a2, 0x30(sp)
   14494: 36 fc        	sd	a3, 0x38(sp)
   14496: 17 b3 00 00  	auipc	t1, 0xb
   1449a: 03 33 23 6e  	ld	t1, 0x6e2(t1)
   1449e: 2e f4        	sd	a1, 0x28(sp)
   144a0: ba e0        	sd	a4, 0x40(sp)
   144a2: be e4        	sd	a5, 0x48(sp)
   144a4: c2 e8        	sd	a6, 0x50(sp)
   144a6: c6 ec        	sd	a7, 0x58(sp)
   144a8: 83 35 03 01  	ld	a1, 0x10(t1)
   144ac: 34 10        	addi	a3, sp, 0x28
   144ae: 2a 86        	mv	a2, a0
   144b0: 1a 85        	mv	a0, t1
   144b2: 06 ec        	sd	ra, 0x18(sp)
   144b4: 36 e4        	sd	a3, 0x8(sp)
   144b6: ef 00 a0 00  	jal	0x144c0 <_vfprintf_r>
   144ba: e2 60        	ld	ra, 0x18(sp)
   144bc: 25 61        	addi	sp, sp, 0x60
   144be: 82 80        	ret

00000000000144c0 <_vfprintf_r>:
   144c0: 13 01 01 da  	addi	sp, sp, -0x260
   144c4: 23 3c 11 24  	sd	ra, 0x258(sp)
   144c8: 23 34 91 24  	sd	s1, 0x248(sp)
   144cc: 23 3c 31 23  	sd	s3, 0x238(sp)
   144d0: 23 3c 71 21  	sd	s7, 0x218(sp)
   144d4: ae 89        	mv	s3, a1
   144d6: b2 8b        	mv	s7, a2
   144d8: aa 84        	mv	s1, a0
   144da: 36 e4        	sd	a3, 0x8(sp)
   144dc: ef 70 d0 58  	jal	0x1c268 <_localeconv_r>
   144e0: 1c 61        	ld	a5, 0x0(a0)
   144e2: 3e 85        	mv	a0, a5
   144e4: be e4        	sd	a5, 0x48(sp)
   144e6: ef 80 00 37  	jal	0x1c856 <strlen>
   144ea: 2a 87        	mv	a4, a0
   144ec: 21 46        	li	a2, 0x8
   144ee: 81 45        	li	a1, 0x0
   144f0: a8 01        	addi	a0, sp, 0xc8
   144f2: ba e0        	sd	a4, 0x40(sp)
   144f4: ef 80 20 17  	jal	0x1c666 <memset>
   144f8: 89 c4        	beqz	s1, 0x14502 <_vfprintf_r+0x42>
   144fa: b8 64        	ld	a4, 0x48(s1)
   144fc: 19 e3        	bnez	a4, 0x14502 <_vfprintf_r+0x42>
   144fe: 6f 10 40 31  	j	0x15812 <_vfprintf_r+0x1352>
   14502: 83 a6 09 0b  	lw	a3, 0xb0(s3)
   14506: 03 97 09 01  	lh	a4, 0x10(s3)
   1450a: 85 8a        	andi	a3, a3, 0x1
   1450c: 89 e6        	bnez	a3, 0x14516 <_vfprintf_r+0x56>
   1450e: 93 76 07 20  	andi	a3, a4, 0x200
   14512: e3 87 06 58  	beqz	a3, 0x152a0 <_vfprintf_r+0xde0>
   14516: 93 16 27 03  	slli	a3, a4, 0x32
   1451a: 63 c1 06 02  	bltz	a3, 0x1453c <_vfprintf_r+0x7c>
   1451e: 83 a6 09 0b  	lw	a3, 0xb0(s3)
   14522: 89 65        	lui	a1, 0x2
   14524: 79 76        	lui	a2, 0xffffe
   14526: 4d 8f        	or	a4, a4, a1
   14528: 7d 16        	addi	a2, a2, -0x1
   1452a: 1b 17 07 01  	slliw	a4, a4, 0x10
   1452e: 1b 57 07 41  	sraiw	a4, a4, 0x10
   14532: f1 8e        	and	a3, a3, a2
   14534: 23 98 e9 00  	sh	a4, 0x10(s3)
   14538: 23 a8 d9 0a  	sw	a3, 0xb0(s3)
   1453c: 93 76 87 00  	andi	a3, a4, 0x8
   14540: 63 82 06 20  	beqz	a3, 0x14744 <_vfprintf_r+0x284>
   14544: 83 b6 89 01  	ld	a3, 0x18(s3)
   14548: 63 8e 06 1e  	beqz	a3, 0x14744 <_vfprintf_r+0x284>
   1454c: 93 76 a7 01  	andi	a3, a4, 0x1a
   14550: 29 46        	li	a2, 0xa
   14552: 63 87 c6 20  	beq	a3, a2, 0x14760 <_vfprintf_r+0x2a0>
   14556: 23 34 51 23  	sd	s5, 0x228(sp)
   1455a: 93 0a 01 16  	addi	s5, sp, 0x160
   1455e: 23 38 81 24  	sd	s0, 0x250(sp)
   14562: 23 30 21 25  	sd	s2, 0x240(sp)
   14566: 23 38 41 23  	sd	s4, 0x230(sp)
   1456a: 23 30 a1 21  	sd	s10, 0x200(sp)
   1456e: 23 30 61 23  	sd	s6, 0x220(sp)
   14572: 23 38 81 21  	sd	s8, 0x210(sp)
   14576: 23 34 91 21  	sd	s9, 0x208(sp)
   1457a: ee ff        	sd	s11, 0x1f8(sp)
   1457c: 02 fc        	sd	zero, 0x38(sp)
   1457e: d6 f1        	sd	s5, 0xe0(sp)
   14580: 82 f9        	sd	zero, 0xf0(sp)
   14582: 82 d5        	sw	zero, 0xe8(sp)
   14584: 02 f0        	sd	zero, 0x20(sp)
   14586: 56 84        	mv	s0, s5
   14588: 82 e8        	sd	zero, 0x50(sp)
   1458a: 82 ec        	sd	zero, 0x58(sp)
   1458c: 82 fc        	sd	zero, 0x78(sp)
   1458e: 02 e1        	sd	zero, 0x80(sp)
   14590: 82 f8        	sd	zero, 0x70(sp)
   14592: 02 e0        	sd	zero, 0x0(sp)
   14594: 17 b9 00 00  	auipc	s2, 0xb
   14598: 13 09 c9 29  	addi	s2, s2, 0x29c
   1459c: 13 0a 50 02  	li	s4, 0x25
   145a0: 5e 8d        	mv	s10, s7
   145a2: 6a 8b        	mv	s6, s10
   145a4: 83 3b 89 0e  	ld	s7, 0xe8(s2)
   145a8: ef 60 b0 58  	jal	0x1b332 <__locale_mb_cur_max>
   145ac: aa 86        	mv	a3, a0
   145ae: b8 01        	addi	a4, sp, 0xc8
   145b0: 5a 86        	mv	a2, s6
   145b2: 6c 19        	addi	a1, sp, 0xbc
   145b4: 26 85        	mv	a0, s1
   145b6: 82 9b        	jalr	s7
   145b8: 63 0c 05 1e  	beqz	a0, 0x147b0 <_vfprintf_r+0x2f0>
   145bc: 63 42 05 1e  	bltz	a0, 0x147a0 <_vfprintf_r+0x2e0>
   145c0: fa 57        	lw	a5, 0xbc(sp)
   145c2: 63 84 47 01  	beq	a5, s4, 0x145ca <_vfprintf_r+0x10a>
   145c6: 2a 9b        	add	s6, s6, a0
   145c8: f1 bf        	j	0x145a4 <_vfprintf_r+0xe4>
   145ca: bb 0d ab 41  	subw	s11, s6, s10
   145ce: aa 8b        	mv	s7, a0
   145d0: 63 95 0d 1e  	bnez	s11, 0x147ba <_vfprintf_r+0x2fa>
   145d4: 7d 58        	li	a6, -0x1
   145d6: 01 43        	li	t1, 0x0
   145d8: 83 48 1b 00  	lbu	a7, 0x1(s6)
   145dc: a3 07 01 0a  	sb	zero, 0xaf(sp)
   145e0: 05 0b        	addi	s6, s6, 0x1
   145e2: 81 4c        	li	s9, 0x0
   145e4: 93 0b a0 05  	li	s7, 0x5a
   145e8: 1a 8c        	mv	s8, t1
   145ea: c2 8d        	mv	s11, a6
   145ec: 05 0b        	addi	s6, s6, 0x1
   145ee: 81 28        	sext.w	a7, a7
   145f0: 9b 87 08 fe  	addiw	a5, a7, -0x20
   145f4: 1b 87 07 00  	sext.w	a4, a5
   145f8: 63 e9 eb 04  	bltu	s7, a4, 0x1464a <_vfprintf_r+0x18a>
   145fc: 13 97 07 02  	slli	a4, a5, 0x20
   14600: 93 57 e7 01  	srli	a5, a4, 0x1e
   14604: 17 c7 ff ff  	auipc	a4, 0xffffc
   14608: 13 07 47 04  	addi	a4, a4, 0x44
   1460c: ba 97        	add	a5, a5, a4
   1460e: 9c 43        	lw	a5, 0x0(a5)
   14610: ba 97        	add	a5, a5, a4
   14612: 82 87        	jr	a5
   14614: 81 4c        	li	s9, 0x0
   14616: a5 46        	li	a3, 0x9
   14618: 03 47 0b 00  	lbu	a4, 0x0(s6)
   1461c: 9b 97 2c 00  	slliw	a5, s9, 0x2
   14620: bb 87 97 01  	addw	a5, a5, s9
   14624: 9b 88 08 fd  	addiw	a7, a7, -0x30
   14628: 9b 97 17 00  	slliw	a5, a5, 0x1
   1462c: 1b 06 07 fd  	addiw	a2, a4, -0x30
   14630: bb 8c f8 00  	addw	s9, a7, a5
   14634: 05 0b        	addi	s6, s6, 0x1
   14636: 9b 08 07 00  	sext.w	a7, a4
   1463a: e3 ff c6 fc  	bgeu	a3, a2, 0x14618 <_vfprintf_r+0x158>
   1463e: 9b 87 08 fe  	addiw	a5, a7, -0x20
   14642: 1b 87 07 00  	sext.w	a4, a5
   14646: e3 fb eb fa  	bgeu	s7, a4, 0x145fc <_vfprintf_r+0x13c>
   1464a: 62 83        	mv	t1, s8
   1464c: 63 8d 08 18  	beqz	a7, 0x147e6 <_vfprintf_r+0x326>
   14650: 23 0c 11 0f  	sb	a7, 0xf8(sp)
   14654: a3 07 01 0a  	sb	zero, 0xaf(sp)
   14658: 85 4d        	li	s11, 0x1
   1465a: 01 45        	li	a0, 0x0
   1465c: 02 e8        	sd	zero, 0x10(sp)
   1465e: 85 4b        	li	s7, 0x1
   14660: 01 48        	li	a6, 0x0
   14662: 02 f8        	sd	zero, 0x30(sp)
   14664: 02 f4        	sd	zero, 0x28(sp)
   14666: 02 ec        	sd	zero, 0x18(sp)
   14668: 13 0d 81 0f  	addi	s10, sp, 0xf8
   1466c: 93 72 23 00  	andi	t0, t1, 0x2
   14670: 63 83 02 00  	beqz	t0, 0x14676 <_vfprintf_r+0x1b6>
   14674: 89 2d        	addiw	s11, s11, 0x2
   14676: 93 7f 43 08  	andi	t6, t1, 0x84
   1467a: 4e 76        	ld	a2, 0xf0(sp)
   1467c: 63 96 0f 00  	bnez	t6, 0x14688 <_vfprintf_r+0x1c8>
   14680: bb 8e bc 41  	subw	t4, s9, s11
   14684: 63 45 d0 27  	bgtz	t4, 0x148ee <_vfprintf_r+0x42e>
   14688: 0d c1        	beqz	a0, 0x146aa <_vfprintf_r+0x1ea>
   1468a: ae 55        	lw	a1, 0xe8(sp)
   1468c: 13 05 f1 0a  	addi	a0, sp, 0xaf
   14690: 05 06        	addi	a2, a2, 0x1
   14692: 85 25        	addiw	a1, a1, 0x1
   14694: 85 47        	li	a5, 0x1
   14696: 08 e0        	sd	a0, 0x0(s0)
   14698: 1c e4        	sd	a5, 0x8(s0)
   1469a: 1b 85 05 00  	sext.w	a0, a1
   1469e: ae d5        	sw	a1, 0xe8(sp)
   146a0: b2 f9        	sd	a2, 0xf0(sp)
   146a2: 9d 45        	li	a1, 0x7
   146a4: 41 04        	addi	s0, s0, 0x10
   146a6: 63 cd a5 2c  	blt	a1, a0, 0x14980 <_vfprintf_r+0x4c0>
   146aa: 63 81 02 02  	beqz	t0, 0x146cc <_vfprintf_r+0x20c>
   146ae: ae 55        	lw	a1, 0xe8(sp)
   146b0: 08 19        	addi	a0, sp, 0xb0
   146b2: 08 e0        	sd	a0, 0x0(s0)
   146b4: 85 25        	addiw	a1, a1, 0x1
   146b6: 09 45        	li	a0, 0x2
   146b8: 09 06        	addi	a2, a2, 0x2
   146ba: 08 e4        	sd	a0, 0x8(s0)
   146bc: ae d5        	sw	a1, 0xe8(sp)
   146be: 1b 85 05 00  	sext.w	a0, a1
   146c2: b2 f9        	sd	a2, 0xf0(sp)
   146c4: 9d 45        	li	a1, 0x7
   146c6: 41 04        	addi	s0, s0, 0x10
   146c8: e3 cd a5 12  	blt	a1, a0, 0x15002 <_vfprintf_r+0xb42>
   146cc: 93 05 00 08  	li	a1, 0x80
   146d0: 63 82 bf 7c  	beq	t6, a1, 0x14e94 <_vfprintf_r+0x9d4>
   146d4: 3b 08 78 41  	subw	a6, a6, s7
   146d8: e3 46 00 07  	bgtz	a6, 0x14f44 <_vfprintf_r+0xa84>
   146dc: 93 75 03 10  	andi	a1, t1, 0x100
   146e0: 63 9a 05 66  	bnez	a1, 0x14d54 <_vfprintf_r+0x894>
   146e4: ae 55        	lw	a1, 0xe8(sp)
   146e6: 5e 96        	add	a2, a2, s7
   146e8: 23 30 a4 01  	sd	s10, 0x0(s0)
   146ec: 9b 86 15 00  	addiw	a3, a1, 0x1
   146f0: b6 87        	mv	a5, a3
   146f2: 23 34 74 01  	sd	s7, 0x8(s0)
   146f6: be d5        	sw	a5, 0xe8(sp)
   146f8: b2 f9        	sd	a2, 0xf0(sp)
   146fa: 9d 47        	li	a5, 0x7
   146fc: 63 cc d7 32  	blt	a5, a3, 0x14a34 <_vfprintf_r+0x574>
   14700: 41 04        	addi	s0, s0, 0x10
   14702: 13 73 43 00  	andi	t1, t1, 0x4
   14706: 63 06 03 00  	beqz	t1, 0x14712 <_vfprintf_r+0x252>
   1470a: bb 8b bc 41  	subw	s7, s9, s11
   1470e: e3 4d 70 11  	bgtz	s7, 0x15028 <_vfprintf_r+0xb68>
   14712: e6 87        	mv	a5, s9
   14714: 63 d3 bc 01  	bge	s9, s11, 0x1471a <_vfprintf_r+0x25a>
   14718: ee 87        	mv	a5, s11
   1471a: 02 67        	ld	a4, 0x0(sp)
   1471c: b9 9f        	addw	a5, a5, a4
   1471e: 3e e0        	sd	a5, 0x0(sp)
   14720: 7d e2        	bnez	a2, 0x14806 <_vfprintf_r+0x346>
   14722: c2 67        	ld	a5, 0x10(sp)
   14724: 82 d5        	sw	zero, 0xe8(sp)
   14726: 89 c7        	beqz	a5, 0x14730 <_vfprintf_r+0x270>
   14728: c2 65        	ld	a1, 0x10(sp)
   1472a: 26 85        	mv	a0, s1
   1472c: ef f0 2f c3  	jal	0x13b5e <_free_r>
   14730: 56 84        	mv	s0, s5
   14732: 5a 8d        	mv	s10, s6
   14734: bd b5        	j	0x145a2 <_vfprintf_r+0xe2>
   14736: 13 63 0c 01  	ori	t1, s8, 0x10
   1473a: 83 48 0b 00  	lbu	a7, 0x0(s6)
   1473e: 1b 0c 03 00  	sext.w	s8, t1
   14742: 6d b5        	j	0x145ec <_vfprintf_r+0x12c>
   14744: ce 85        	mv	a1, s3
   14746: 26 85        	mv	a0, s1
   14748: ef 50 f0 0a  	jal	0x19ff6 <__swsetup_r>
   1474c: 19 c1        	beqz	a0, 0x14752 <_vfprintf_r+0x292>
   1474e: 6f 10 f0 12  	j	0x1607c <_vfprintf_r+0x1bbc>
   14752: 03 97 09 01  	lh	a4, 0x10(s3)
   14756: 29 46        	li	a2, 0xa
   14758: 93 76 a7 01  	andi	a3, a4, 0x1a
   1475c: e3 9d c6 de  	bne	a3, a2, 0x14556 <_vfprintf_r+0x96>
   14760: 83 96 29 01  	lh	a3, 0x12(s3)
   14764: e3 c9 06 de  	bltz	a3, 0x14556 <_vfprintf_r+0x96>
   14768: 83 a6 09 0b  	lw	a3, 0xb0(s3)
   1476c: 85 8a        	andi	a3, a3, 0x1
   1476e: 91 e6        	bnez	a3, 0x1477a <_vfprintf_r+0x2ba>
   14770: 13 77 07 20  	andi	a4, a4, 0x200
   14774: 19 e3        	bnez	a4, 0x1477a <_vfprintf_r+0x2ba>
   14776: 6f 10 00 40  	j	0x15b76 <_vfprintf_r+0x16b6>
   1477a: a2 66        	ld	a3, 0x8(sp)
   1477c: 5e 86        	mv	a2, s7
   1477e: ce 85        	mv	a1, s3
   14780: 26 85        	mv	a0, s1
   14782: ef 10 d0 3b  	jal	0x1633e <__sbprintf>
   14786: 83 30 81 25  	ld	ra, 0x258(sp)
   1478a: 2a e0        	sd	a0, 0x0(sp)
   1478c: 02 65        	ld	a0, 0x0(sp)
   1478e: 83 34 81 24  	ld	s1, 0x248(sp)
   14792: 83 39 81 23  	ld	s3, 0x238(sp)
   14796: 83 3b 81 21  	ld	s7, 0x218(sp)
   1479a: 13 01 01 26  	addi	sp, sp, 0x260
   1479e: 82 80        	ret
   147a0: 21 46        	li	a2, 0x8
   147a2: 81 45        	li	a1, 0x0
   147a4: a8 01        	addi	a0, sp, 0xc8
   147a6: ef 70 10 6c  	jal	0x1c666 <memset>
   147aa: 05 45        	li	a0, 0x1
   147ac: 2a 9b        	add	s6, s6, a0
   147ae: dd bb        	j	0x145a4 <_vfprintf_r+0xe4>
   147b0: bb 0d ab 41  	subw	s11, s6, s10
   147b4: aa 8b        	mv	s7, a0
   147b6: 63 88 0d 02  	beqz	s11, 0x147e6 <_vfprintf_r+0x326>
   147ba: 2e 57        	lw	a4, 0xe8(sp)
   147bc: ce 76        	ld	a3, 0xf0(sp)
   147be: 23 30 a4 01  	sd	s10, 0x0(s0)
   147c2: 05 27        	addiw	a4, a4, 0x1
   147c4: ee 96        	add	a3, a3, s11
   147c6: 23 34 b4 01  	sd	s11, 0x8(s0)
   147ca: b6 f9        	sd	a3, 0xf0(sp)
   147cc: ba d5        	sw	a4, 0xe8(sp)
   147ce: 9b 06 07 00  	sext.w	a3, a4
   147d2: 1d 47        	li	a4, 0x7
   147d4: 41 04        	addi	s0, s0, 0x10
   147d6: 63 40 d7 02  	blt	a4, a3, 0x147f6 <_vfprintf_r+0x336>
   147da: 82 67        	ld	a5, 0x0(sp)
   147dc: bb 87 fd 00  	addw	a5, s11, a5
   147e0: 3e e0        	sd	a5, 0x0(sp)
   147e2: e3 99 0b de  	bnez	s7, 0x145d4 <_vfprintf_r+0x114>
   147e6: ce 77        	ld	a5, 0xf0(sp)
   147e8: 99 c3        	beqz	a5, 0x147ee <_vfprintf_r+0x32e>
   147ea: 6f 10 60 32  	j	0x15b10 <_vfprintf_r+0x1650>
   147ee: 83 97 09 01  	lh	a5, 0x10(s3)
   147f2: 82 d5        	sw	zero, 0xe8(sp)
   147f4: 05 a8        	j	0x14824 <_vfprintf_r+0x364>
   147f6: 90 11        	addi	a2, sp, 0xe0
   147f8: ce 85        	mv	a1, s3
   147fa: 26 85        	mv	a0, s1
   147fc: ef 10 b0 4b  	jal	0x164b6 <__sprint_r>
   14800: 05 e1        	bnez	a0, 0x14820 <_vfprintf_r+0x360>
   14802: 56 84        	mv	s0, s5
   14804: d9 bf        	j	0x147da <_vfprintf_r+0x31a>
   14806: 90 11        	addi	a2, sp, 0xe0
   14808: ce 85        	mv	a1, s3
   1480a: 26 85        	mv	a0, s1
   1480c: ef 10 b0 4a  	jal	0x164b6 <__sprint_r>
   14810: e3 09 05 f0  	beqz	a0, 0x14722 <_vfprintf_r+0x262>
   14814: c2 67        	ld	a5, 0x10(sp)
   14816: 89 c7        	beqz	a5, 0x14820 <_vfprintf_r+0x360>
   14818: c2 65        	ld	a1, 0x10(sp)
   1481a: 26 85        	mv	a0, s1
   1481c: ef f0 2f b4  	jal	0x13b5e <_free_r>
   14820: 83 97 09 01  	lh	a5, 0x10(s3)
   14824: 03 a7 09 0b  	lw	a4, 0xb0(s3)
   14828: 05 8b        	andi	a4, a4, 0x1
   1482a: 63 01 07 22  	beqz	a4, 0x14a4c <_vfprintf_r+0x58c>
   1482e: 93 f7 07 04  	andi	a5, a5, 0x40
   14832: 03 34 01 25  	ld	s0, 0x250(sp)
   14836: 03 39 01 24  	ld	s2, 0x240(sp)
   1483a: 03 3a 01 23  	ld	s4, 0x230(sp)
   1483e: 83 3a 81 22  	ld	s5, 0x228(sp)
   14842: 03 3b 01 22  	ld	s6, 0x220(sp)
   14846: 03 3c 01 21  	ld	s8, 0x210(sp)
   1484a: 83 3c 81 20  	ld	s9, 0x208(sp)
   1484e: 03 3d 01 20  	ld	s10, 0x200(sp)
   14852: fe 7d        	ld	s11, 0x1f8(sp)
   14854: 99 c3        	beqz	a5, 0x1485a <_vfprintf_r+0x39a>
   14856: 6f 10 10 04  	j	0x16096 <_vfprintf_r+0x1bd6>
   1485a: 83 30 81 25  	ld	ra, 0x258(sp)
   1485e: 02 65        	ld	a0, 0x0(sp)
   14860: 83 34 81 24  	ld	s1, 0x248(sp)
   14864: 83 39 81 23  	ld	s3, 0x238(sp)
   14868: 83 3b 81 21  	ld	s7, 0x218(sp)
   1486c: 13 01 01 26  	addi	sp, sp, 0x260
   14870: 82 80        	ret
   14872: 13 77 8c 00  	andi	a4, s8, 0x8
   14876: 62 83        	mv	t1, s8
   14878: 6e 88        	mv	a6, s11
   1487a: e3 17 07 2e  	bnez	a4, 0x15368 <_vfprintf_r+0xea8>
   1487e: a2 67        	ld	a5, 0x8(sp)
   14880: 9c 23        	fld	fa5, 0x0(a5)
   14882: a1 07        	addi	a5, a5, 0x8
   14884: 3e e4        	sd	a5, 0x8(sp)
   14886: 97 c7 ff ff  	auipc	a5, 0xffffc
   1488a: 07 b7 27 73  	fld	fa4, 0x732(a5)
   1488e: 3e bc        	fsd	fa5, 0x38(sp)
   14890: f3 26 10 00  	frflags	a3
   14894: e2 37        	fld	fa5, 0x38(sp)
   14896: d3 a7 f7 22  	fabs.d	fa5, fa5
   1489a: 53 17 f7 a2  	flt.d	a4, fa4, fa5
   1489e: 73 90 16 00  	fsflags	a3
   148a2: e3 02 07 30  	beqz	a4, 0x153a6 <_vfprintf_r+0xee6>
   148a6: d3 07 00 f2  	fmv.d.x	fa5, zero
   148aa: 62 37        	fld	fa4, 0x38(sp)
   148ac: d3 17 f7 a2  	flt.d	a5, fa4, fa5
   148b0: 99 c3        	beqz	a5, 0x148b6 <_vfprintf_r+0x3f6>
   148b2: 6f 10 c0 36  	j	0x15c1e <_vfprintf_r+0x175e>
   148b6: 03 45 f1 0a  	lbu	a0, 0xaf(sp)
   148ba: 13 07 70 04  	li	a4, 0x47
   148be: 17 cd ff ff  	auipc	s10, 0xffffc
   148c2: 13 0d ad b9  	addi	s10, s10, -0x466
   148c6: 63 46 17 01  	blt	a4, a7, 0x148d2 <_vfprintf_r+0x412>
   148ca: 17 cd ff ff  	auipc	s10, 0xffffc
   148ce: 13 0d ed bc  	addi	s10, s10, -0x432
   148d2: 13 73 f3 f7  	andi	t1, t1, -0x81
   148d6: 02 e8        	sd	zero, 0x10(sp)
   148d8: 02 f8        	sd	zero, 0x30(sp)
   148da: 02 f4        	sd	zero, 0x28(sp)
   148dc: 02 ec        	sd	zero, 0x18(sp)
   148de: 01 23        	sext.w	t1, t1
   148e0: 8d 4d        	li	s11, 0x3
   148e2: 8d 4b        	li	s7, 0x3
   148e4: 01 48        	li	a6, 0x0
   148e6: e3 03 05 d8  	beqz	a0, 0x1466c <_vfprintf_r+0x1ac>
   148ea: 85 2d        	addiw	s11, s11, 0x1
   148ec: 41 b3        	j	0x1466c <_vfprintf_r+0x1ac>
   148ee: 41 45        	li	a0, 0x10
   148f0: ae 55        	lw	a1, 0xe8(sp)
   148f2: 17 c7 ff ff  	auipc	a4, 0xffffc
   148f6: 13 07 67 ed  	addi	a4, a4, -0x12a
   148fa: 63 54 d5 07  	bge	a0, t4, 0x14962 <_vfprintf_r+0x4a2>
   148fe: 5a e5        	sd	s6, 0x88(sp)
   14900: a2 87        	mv	a5, s0
   14902: 41 4f        	li	t5, 0x10
   14904: 9d 43        	li	t2, 0x7
   14906: 96 f0        	sd	t0, 0x60(sp)
   14908: fe f4        	sd	t6, 0x68(sp)
   1490a: 1a e9        	sd	t1, 0x90(sp)
   1490c: 46 8c        	mv	s8, a7
   1490e: 42 ed        	sd	a6, 0x98(sp)
   14910: 76 84        	mv	s0, t4
   14912: 3a 8b        	mv	s6, a4
   14914: 21 a0        	j	0x1491c <_vfprintf_r+0x45c>
   14916: 41 34        	addiw	s0, s0, -0x10
   14918: 63 5c 8f 02  	bge	t5, s0, 0x14950 <_vfprintf_r+0x490>
   1491c: 85 25        	addiw	a1, a1, 0x1
   1491e: 41 06        	addi	a2, a2, 0x10
   14920: 23 b0 67 01  	sd	s6, 0x0(a5)
   14924: 23 b4 e7 01  	sd	t5, 0x8(a5)
   14928: b2 f9        	sd	a2, 0xf0(sp)
   1492a: ae d5        	sw	a1, 0xe8(sp)
   1492c: c1 07        	addi	a5, a5, 0x10
   1492e: e3 d4 b3 fe  	bge	t2, a1, 0x14916 <_vfprintf_r+0x456>
   14932: 90 11        	addi	a2, sp, 0xe0
   14934: ce 85        	mv	a1, s3
   14936: 26 85        	mv	a0, s1
   14938: ef 10 f0 37  	jal	0x164b6 <__sprint_r>
   1493c: e3 1c 05 ec  	bnez	a0, 0x14814 <_vfprintf_r+0x354>
   14940: 41 4f        	li	t5, 0x10
   14942: 41 34        	addiw	s0, s0, -0x10
   14944: 4e 76        	ld	a2, 0xf0(sp)
   14946: ae 55        	lw	a1, 0xe8(sp)
   14948: d6 87        	mv	a5, s5
   1494a: 9d 43        	li	t2, 0x7
   1494c: e3 48 8f fc  	blt	t5, s0, 0x1491c <_vfprintf_r+0x45c>
   14950: 5a 87        	mv	a4, s6
   14952: 86 72        	ld	t0, 0x60(sp)
   14954: a6 7f        	ld	t6, 0x68(sp)
   14956: 4a 63        	ld	t1, 0x90(sp)
   14958: 6a 68        	ld	a6, 0x98(sp)
   1495a: 2a 6b        	ld	s6, 0x88(sp)
   1495c: a2 8e        	mv	t4, s0
   1495e: e2 88        	mv	a7, s8
   14960: 3e 84        	mv	s0, a5
   14962: 1b 85 15 00  	addiw	a0, a1, 0x1
   14966: 76 96        	add	a2, a2, t4
   14968: 18 e0        	sd	a4, 0x0(s0)
   1496a: 23 34 d4 01  	sd	t4, 0x8(s0)
   1496e: b2 f9        	sd	a2, 0xf0(sp)
   14970: aa d5        	sw	a0, 0xe8(sp)
   14972: 9d 45        	li	a1, 0x7
   14974: e3 c7 a5 66  	blt	a1, a0, 0x157e2 <_vfprintf_r+0x1322>
   14978: 03 45 f1 0a  	lbu	a0, 0xaf(sp)
   1497c: 41 04        	addi	s0, s0, 0x10
   1497e: 29 b3        	j	0x14688 <_vfprintf_r+0x1c8>
   14980: 90 11        	addi	a2, sp, 0xe0
   14982: ce 85        	mv	a1, s3
   14984: 26 85        	mv	a0, s1
   14986: 42 ed        	sd	a6, 0x98(sp)
   14988: 46 e9        	sd	a7, 0x90(sp)
   1498a: 1a e5        	sd	t1, 0x88(sp)
   1498c: fe f4        	sd	t6, 0x68(sp)
   1498e: 96 f0        	sd	t0, 0x60(sp)
   14990: ef 10 70 32  	jal	0x164b6 <__sprint_r>
   14994: e3 10 05 e8  	bnez	a0, 0x14814 <_vfprintf_r+0x354>
   14998: 4e 76        	ld	a2, 0xf0(sp)
   1499a: 6a 68        	ld	a6, 0x98(sp)
   1499c: ca 68        	ld	a7, 0x90(sp)
   1499e: 2a 63        	ld	t1, 0x88(sp)
   149a0: a6 7f        	ld	t6, 0x68(sp)
   149a2: 86 72        	ld	t0, 0x60(sp)
   149a4: 56 84        	mv	s0, s5
   149a6: 11 b3        	j	0x146aa <_vfprintf_r+0x1ea>
   149a8: 2e 55        	lw	a0, 0xe8(sp)
   149aa: 82 77        	ld	a5, 0x20(sp)
   149ac: 05 48        	li	a6, 0x1
   149ae: 9b 06 15 00  	addiw	a3, a0, 0x1
   149b2: 23 30 a4 01  	sd	s10, 0x0(s0)
   149b6: 05 06        	addi	a2, a2, 0x1
   149b8: 36 85        	mv	a0, a3
   149ba: 93 05 04 01  	addi	a1, s0, 0x10
   149be: 63 56 f8 7e  	bge	a6, a5, 0x151aa <_vfprintf_r+0xcea>
   149c2: 05 48        	li	a6, 0x1
   149c4: aa d5        	sw	a0, 0xe8(sp)
   149c6: 23 34 04 01  	sd	a6, 0x8(s0)
   149ca: b2 f9        	sd	a2, 0xf0(sp)
   149cc: 1d 45        	li	a0, 0x7
   149ce: e3 40 d5 5a  	blt	a0, a3, 0x1576e <_vfprintf_r+0x12ae>
   149d2: 86 67        	ld	a5, 0x40(sp)
   149d4: 26 67        	ld	a4, 0x48(sp)
   149d6: 85 26        	addiw	a3, a3, 0x1
   149d8: 3e 96        	add	a2, a2, a5
   149da: 98 e1        	sd	a4, 0x0(a1)
   149dc: 9c e5        	sd	a5, 0x8(a1)
   149de: b2 f9        	sd	a2, 0xf0(sp)
   149e0: b6 d5        	sw	a3, 0xe8(sp)
   149e2: 1d 45        	li	a0, 0x7
   149e4: c1 05        	addi	a1, a1, 0x10
   149e6: e3 46 d5 56  	blt	a0, a3, 0x15752 <_vfprintf_r+0x1292>
   149ea: d3 07 00 f2  	fmv.d.x	fa5, zero
   149ee: 62 37        	fld	fa4, 0x38(sp)
   149f0: 82 77        	ld	a5, 0x20(sp)
   149f2: 53 25 f7 a2  	feq.d	a0, fa4, fa5
   149f6: 1b 88 f7 ff  	addiw	a6, a5, -0x1
   149fa: 63 10 05 7e  	bnez	a0, 0x151da <_vfprintf_r+0xd1a>
   149fe: 93 07 1d 00  	addi	a5, s10, 0x1
   14a02: 85 26        	addiw	a3, a3, 0x1
   14a04: 42 96        	add	a2, a2, a6
   14a06: 9c e1        	sd	a5, 0x0(a1)
   14a08: 23 b4 05 01  	sd	a6, 0x8(a1)
   14a0c: b2 f9        	sd	a2, 0xf0(sp)
   14a0e: b6 d5        	sw	a3, 0xe8(sp)
   14a10: 9d 47        	li	a5, 0x7
   14a12: 63 c7 d7 7a  	blt	a5, a3, 0x151c0 <_vfprintf_r+0xd00>
   14a16: c1 05        	addi	a1, a1, 0x10
   14a18: 66 67        	ld	a4, 0x58(sp)
   14a1a: 9c 01        	addi	a5, sp, 0xc0
   14a1c: 1b 85 16 00  	addiw	a0, a3, 0x1
   14a20: 3a 96        	add	a2, a2, a4
   14a22: 9c e1        	sd	a5, 0x0(a1)
   14a24: 98 e5        	sd	a4, 0x8(a1)
   14a26: b2 f9        	sd	a2, 0xf0(sp)
   14a28: aa d5        	sw	a0, 0xe8(sp)
   14a2a: 9d 47        	li	a5, 0x7
   14a2c: 13 84 05 01  	addi	s0, a1, 0x10
   14a30: e3 d9 a7 cc  	bge	a5, a0, 0x14702 <_vfprintf_r+0x242>
   14a34: 90 11        	addi	a2, sp, 0xe0
   14a36: ce 85        	mv	a1, s3
   14a38: 26 85        	mv	a0, s1
   14a3a: 1a ec        	sd	t1, 0x18(sp)
   14a3c: ef 10 b0 27  	jal	0x164b6 <__sprint_r>
   14a40: e3 1a 05 dc  	bnez	a0, 0x14814 <_vfprintf_r+0x354>
   14a44: 4e 76        	ld	a2, 0xf0(sp)
   14a46: 62 63        	ld	t1, 0x18(sp)
   14a48: 56 84        	mv	s0, s5
   14a4a: 65 b9        	j	0x14702 <_vfprintf_r+0x242>
   14a4c: 13 f7 07 20  	andi	a4, a5, 0x200
   14a50: e3 1f 07 dc  	bnez	a4, 0x1482e <_vfprintf_r+0x36e>
   14a54: 03 b5 09 0a  	ld	a0, 0xa0(s3)
   14a58: ef 70 b0 33  	jal	0x1c592 <__retarget_lock_release_recursive>
   14a5c: 83 97 09 01  	lh	a5, 0x10(s3)
   14a60: f9 b3        	j	0x1482e <_vfprintf_r+0x36e>
   14a62: 22 67        	ld	a4, 0x8(sp)
   14a64: 93 07 30 04  	li	a5, 0x43
   14a68: 62 83        	mv	t1, s8
   14a6a: 13 0c 87 00  	addi	s8, a4, 0x8
   14a6e: e3 89 f8 44  	beq	a7, a5, 0x156c0 <_vfprintf_r+0x1200>
   14a72: 93 77 03 01  	andi	a5, t1, 0x10
   14a76: e3 95 07 44  	bnez	a5, 0x156c0 <_vfprintf_r+0x1200>
   14a7a: a2 67        	ld	a5, 0x8(sp)
   14a7c: 85 4d        	li	s11, 0x1
   14a7e: 85 4b        	li	s7, 0x1
   14a80: 9c 43        	lw	a5, 0x0(a5)
   14a82: 13 0d 81 0f  	addi	s10, sp, 0xf8
   14a86: 23 0c f1 0e  	sb	a5, 0xf8(sp)
   14a8a: a3 07 01 0a  	sb	zero, 0xaf(sp)
   14a8e: 62 e4        	sd	s8, 0x8(sp)
   14a90: 01 45        	li	a0, 0x0
   14a92: 02 e8        	sd	zero, 0x10(sp)
   14a94: 01 48        	li	a6, 0x0
   14a96: 02 f8        	sd	zero, 0x30(sp)
   14a98: 02 f4        	sd	zero, 0x28(sp)
   14a9a: 02 ec        	sd	zero, 0x18(sp)
   14a9c: c1 be        	j	0x1466c <_vfprintf_r+0x1ac>
   14a9e: a2 67        	ld	a5, 0x8(sp)
   14aa0: a3 07 01 0a  	sb	zero, 0xaf(sp)
   14aa4: 62 83        	mv	t1, s8
   14aa6: 03 bd 07 00  	ld	s10, 0x0(a5)
   14aaa: 6e 88        	mv	a6, s11
   14aac: 13 8c 87 00  	addi	s8, a5, 0x8
   14ab0: e3 04 0d 3e  	beqz	s10, 0x15698 <_vfprintf_r+0x11d8>
   14ab4: 13 07 30 05  	li	a4, 0x53
   14ab8: e3 8a e8 5c  	beq	a7, a4, 0x1588c <_vfprintf_r+0x13cc>
   14abc: 93 77 03 01  	andi	a5, t1, 0x10
   14ac0: 3e ec        	sd	a5, 0x18(sp)
   14ac2: e3 95 07 5c  	bnez	a5, 0x1588c <_vfprintf_r+0x13cc>
   14ac6: 63 d4 0d 00  	bgez	s11, 0x14ace <_vfprintf_r+0x60e>
   14aca: 6f 10 a0 05  	j	0x15b24 <_vfprintf_r+0x1664>
   14ace: 6e 86        	mv	a2, s11
   14ad0: 81 45        	li	a1, 0x0
   14ad2: 6a 85        	mv	a0, s10
   14ad4: 1a f4        	sd	t1, 0x28(sp)
   14ad6: 6e e4        	sd	s11, 0x8(sp)
   14ad8: ef 50 f0 19  	jal	0x1a476 <memchr>
   14adc: 2a e8        	sd	a0, 0x10(sp)
   14ade: 22 68        	ld	a6, 0x8(sp)
   14ae0: 22 73        	ld	t1, 0x28(sp)
   14ae2: 19 e1        	bnez	a0, 0x14ae8 <_vfprintf_r+0x628>
   14ae4: 6f 10 60 67  	j	0x1615a <_vfprintf_r+0x1c9a>
   14ae8: c2 67        	ld	a5, 0x10(sp)
   14aea: 03 45 f1 0a  	lbu	a0, 0xaf(sp)
   14aee: 62 e4        	sd	s8, 0x8(sp)
   14af0: bb 8b a7 41  	subw	s7, a5, s10
   14af4: 13 c7 fb ff  	not	a4, s7
   14af8: 7d 97        	srai	a4, a4, 0x3f
   14afa: 02 f8        	sd	zero, 0x30(sp)
   14afc: 02 f4        	sd	zero, 0x28(sp)
   14afe: 02 e8        	sd	zero, 0x10(sp)
   14b00: b3 7d 77 01  	and	s11, a4, s7
   14b04: 01 48        	li	a6, 0x0
   14b06: 93 08 30 07  	li	a7, 0x73
   14b0a: e3 01 05 b6  	beqz	a0, 0x1466c <_vfprintf_r+0x1ac>
   14b0e: f1 bb        	j	0x148ea <_vfprintf_r+0x42a>
   14b10: a2 67        	ld	a5, 0x8(sp)
   14b12: 83 ac 07 00  	lw	s9, 0x0(a5)
   14b16: a1 07        	addi	a5, a5, 0x8
   14b18: 63 d4 0c 7a  	bgez	s9, 0x152c0 <_vfprintf_r+0xe00>
   14b1c: bb 0c 90 41  	negw	s9, s9
   14b20: 3e e4        	sd	a5, 0x8(sp)
   14b22: 13 63 4c 00  	ori	t1, s8, 0x4
   14b26: 83 48 0b 00  	lbu	a7, 0x0(s6)
   14b2a: 1b 0c 03 00  	sext.w	s8, t1
   14b2e: 7d bc        	j	0x145ec <_vfprintf_r+0x12c>
   14b30: 22 67        	ld	a4, 0x8(sp)
   14b32: 93 77 0c 02  	andi	a5, s8, 0x20
   14b36: 18 63        	ld	a4, 0x0(a4)
   14b38: 63 89 07 7e  	beqz	a5, 0x1532a <_vfprintf_r+0xe6a>
   14b3c: 82 67        	ld	a5, 0x0(sp)
   14b3e: 1c e3        	sd	a5, 0x0(a4)
   14b40: a2 67        	ld	a5, 0x8(sp)
   14b42: 5a 8d        	mv	s10, s6
   14b44: a1 07        	addi	a5, a5, 0x8
   14b46: 3e e4        	sd	a5, 0x8(sp)
   14b48: a9 bc        	j	0x145a2 <_vfprintf_r+0xe2>
   14b4a: 83 48 0b 00  	lbu	a7, 0x0(s6)
   14b4e: 93 07 c0 06  	li	a5, 0x6c
   14b52: e3 81 f8 30  	beq	a7, a5, 0x15654 <_vfprintf_r+0x1194>
   14b56: 13 63 0c 01  	ori	t1, s8, 0x10
   14b5a: 1b 0c 03 00  	sext.w	s8, t1
   14b5e: 79 b4        	j	0x145ec <_vfprintf_r+0x12c>
   14b60: 83 48 0b 00  	lbu	a7, 0x0(s6)
   14b64: 93 07 80 06  	li	a5, 0x68
   14b68: e3 8d f8 2c  	beq	a7, a5, 0x15642 <_vfprintf_r+0x1182>
   14b6c: 13 63 0c 04  	ori	t1, s8, 0x40
   14b70: 1b 0c 03 00  	sext.w	s8, t1
   14b74: a5 bc        	j	0x145ec <_vfprintf_r+0x12c>
   14b76: 93 07 b0 02  	li	a5, 0x2b
   14b7a: 83 48 0b 00  	lbu	a7, 0x0(s6)
   14b7e: a3 07 f1 0a  	sb	a5, 0xaf(sp)
   14b82: ad b4        	j	0x145ec <_vfprintf_r+0x12c>
   14b84: 13 63 0c 08  	ori	t1, s8, 0x80
   14b88: 83 48 0b 00  	lbu	a7, 0x0(s6)
   14b8c: 1b 0c 03 00  	sext.w	s8, t1
   14b90: b1 bc        	j	0x145ec <_vfprintf_r+0x12c>
   14b92: 83 48 0b 00  	lbu	a7, 0x0(s6)
   14b96: 93 07 a0 02  	li	a5, 0x2a
   14b9a: 13 06 1b 00  	addi	a2, s6, 0x1
   14b9e: 63 94 f8 00  	bne	a7, a5, 0x14ba6 <_vfprintf_r+0x6e6>
   14ba2: 6f 10 c0 6d  	j	0x1627e <_vfprintf_r+0x1dbe>
   14ba6: 9b 86 08 fd  	addiw	a3, a7, -0x30
   14baa: 25 47        	li	a4, 0x9
   14bac: 81 47        	li	a5, 0x0
   14bae: a5 45        	li	a1, 0x9
   14bb0: 32 8b        	mv	s6, a2
   14bb2: 81 4d        	li	s11, 0x0
   14bb4: e3 6e d7 a2  	bltu	a4, a3, 0x145f0 <_vfprintf_r+0x130>
   14bb8: 03 47 06 00  	lbu	a4, 0x0(a2)
   14bbc: 9b 9d 27 00  	slliw	s11, a5, 0x2
   14bc0: bb 8d fd 00  	addw	s11, s11, a5
   14bc4: 9b 9d 1d 00  	slliw	s11, s11, 0x1
   14bc8: bb 87 dd 00  	addw	a5, s11, a3
   14bcc: 9b 06 07 fd  	addiw	a3, a4, -0x30
   14bd0: be 8d        	mv	s11, a5
   14bd2: 05 06        	addi	a2, a2, 0x1
   14bd4: e3 f2 d5 fe  	bgeu	a1, a3, 0x14bb8 <_vfprintf_r+0x6f8>
   14bd8: ba 88        	mv	a7, a4
   14bda: e3 c7 07 20  	bltz	a5, 0x155e8 <_vfprintf_r+0x1128>
   14bde: 32 8b        	mv	s6, a2
   14be0: 01 bc        	j	0x145f0 <_vfprintf_r+0x130>
   14be2: 26 85        	mv	a0, s1
   14be4: ef 70 40 68  	jal	0x1c268 <_localeconv_r>
   14be8: 1c 65        	ld	a5, 0x8(a0)
   14bea: 3e 85        	mv	a0, a5
   14bec: be f8        	sd	a5, 0x70(sp)
   14bee: ef 70 90 46  	jal	0x1c856 <strlen>
   14bf2: aa 87        	mv	a5, a0
   14bf4: 26 85        	mv	a0, s1
   14bf6: 3e e1        	sd	a5, 0x80(sp)
   14bf8: ef 70 00 67  	jal	0x1c268 <_localeconv_r>
   14bfc: 18 69        	ld	a4, 0x10(a0)
   14bfe: 8a 67        	ld	a5, 0x80(sp)
   14c00: 83 48 0b 00  	lbu	a7, 0x0(s6)
   14c04: ba fc        	sd	a4, 0x78(sp)
   14c06: e3 83 07 9e  	beqz	a5, 0x145ec <_vfprintf_r+0x12c>
   14c0a: e3 01 07 9e  	beqz	a4, 0x145ec <_vfprintf_r+0x12c>
   14c0e: 83 47 07 00  	lbu	a5, 0x0(a4)
   14c12: e3 8d 07 9c  	beqz	a5, 0x145ec <_vfprintf_r+0x12c>
   14c16: 13 63 0c 40  	ori	t1, s8, 0x400
   14c1a: 1b 0c 03 00  	sext.w	s8, t1
   14c1e: f9 b2        	j	0x145ec <_vfprintf_r+0x12c>
   14c20: 13 63 1c 00  	ori	t1, s8, 0x1
   14c24: 83 48 0b 00  	lbu	a7, 0x0(s6)
   14c28: 1b 0c 03 00  	sext.w	s8, t1
   14c2c: c1 b2        	j	0x145ec <_vfprintf_r+0x12c>
   14c2e: 83 47 f1 0a  	lbu	a5, 0xaf(sp)
   14c32: 83 48 0b 00  	lbu	a7, 0x0(s6)
   14c36: e3 9b 07 9a  	bnez	a5, 0x145ec <_vfprintf_r+0x12c>
   14c3a: 93 07 00 02  	li	a5, 0x20
   14c3e: a3 07 f1 0a  	sb	a5, 0xaf(sp)
   14c42: 6d b2        	j	0x145ec <_vfprintf_r+0x12c>
   14c44: 13 63 0c 01  	ori	t1, s8, 0x10
   14c48: 6e 88        	mv	a6, s11
   14c4a: 01 23        	sext.w	t1, t1
   14c4c: a2 66        	ld	a3, 0x8(sp)
   14c4e: 93 77 03 02  	andi	a5, t1, 0x20
   14c52: 13 87 86 00  	addi	a4, a3, 0x8
   14c56: 63 87 07 62  	beqz	a5, 0x15284 <_vfprintf_r+0xdc4>
   14c5a: 83 bb 06 00  	ld	s7, 0x0(a3)
   14c5e: 93 7d f3 bf  	andi	s11, t1, -0x401
   14c62: 81 2d        	sext.w	s11, s11
   14c64: 3a e4        	sd	a4, 0x8(sp)
   14c66: 81 47        	li	a5, 0x0
   14c68: 01 47        	li	a4, 0x0
   14c6a: a3 07 e1 0a  	sb	a4, 0xaf(sp)
   14c6e: 63 42 08 1a  	bltz	a6, 0x14e12 <_vfprintf_r+0x952>
   14c72: 13 f3 fd f7  	andi	t1, s11, -0x81
   14c76: 01 23        	sext.w	t1, t1
   14c78: 63 9c 0b 18  	bnez	s7, 0x14e10 <_vfprintf_r+0x950>
   14c7c: 63 1f 08 1c  	bnez	a6, 0x14e5a <_vfprintf_r+0x99a>
   14c80: e3 94 07 2c  	bnez	a5, 0x15748 <_vfprintf_r+0x1288>
   14c84: 93 fb 1d 00  	andi	s7, s11, 0x1
   14c88: 13 0d c1 15  	addi	s10, sp, 0x15c
   14c8c: 63 98 0b 68  	bnez	s7, 0x1531c <_vfprintf_r+0xe5c>
   14c90: 03 45 f1 0a  	lbu	a0, 0xaf(sp)
   14c94: 42 87        	mv	a4, a6
   14c96: 63 53 78 01  	bge	a6, s7, 0x14c9c <_vfprintf_r+0x7dc>
   14c9a: 5e 87        	mv	a4, s7
   14c9c: 02 e8        	sd	zero, 0x10(sp)
   14c9e: 02 f8        	sd	zero, 0x30(sp)
   14ca0: 02 f4        	sd	zero, 0x28(sp)
   14ca2: 02 ec        	sd	zero, 0x18(sp)
   14ca4: 9b 0d 07 00  	sext.w	s11, a4
   14ca8: e3 02 05 9c  	beqz	a0, 0x1466c <_vfprintf_r+0x1ac>
   14cac: 3d b9        	j	0x148ea <_vfprintf_r+0x42a>
   14cae: 6e 88        	mv	a6, s11
   14cb0: 93 6d 0c 01  	ori	s11, s8, 0x10
   14cb4: 81 2d        	sext.w	s11, s11
   14cb6: a2 66        	ld	a3, 0x8(sp)
   14cb8: 93 f7 0d 02  	andi	a5, s11, 0x20
   14cbc: 13 87 86 00  	addi	a4, a3, 0x8
   14cc0: 63 87 07 56  	beqz	a5, 0x1522e <_vfprintf_r+0xd6e>
   14cc4: 83 bb 06 00  	ld	s7, 0x0(a3)
   14cc8: 85 47        	li	a5, 0x1
   14cca: 3a e4        	sd	a4, 0x8(sp)
   14ccc: 71 bf        	j	0x14c68 <_vfprintf_r+0x7a8>
   14cce: 13 63 8c 00  	ori	t1, s8, 0x8
   14cd2: 83 48 0b 00  	lbu	a7, 0x0(s6)
   14cd6: 1b 0c 03 00  	sext.w	s8, t1
   14cda: 09 ba        	j	0x145ec <_vfprintf_r+0x12c>
   14cdc: 13 63 0c 01  	ori	t1, s8, 0x10
   14ce0: 6e 88        	mv	a6, s11
   14ce2: 01 23        	sext.w	t1, t1
   14ce4: a2 66        	ld	a3, 0x8(sp)
   14ce6: 93 77 03 02  	andi	a5, t1, 0x20
   14cea: 13 87 86 00  	addi	a4, a3, 0x8
   14cee: 63 81 07 56  	beqz	a5, 0x15250 <_vfprintf_r+0xd90>
   14cf2: 9c 62        	ld	a5, 0x0(a3)
   14cf4: be 8b        	mv	s7, a5
   14cf6: 63 cf 07 56  	bltz	a5, 0x15274 <_vfprintf_r+0xdb4>
   14cfa: 63 46 08 2e  	bltz	a6, 0x14fe6 <_vfprintf_r+0xb26>
   14cfe: 93 7d f3 f7  	andi	s11, t1, -0x81
   14d02: 3a e4        	sd	a4, 0x8(sp)
   14d04: 81 2d        	sext.w	s11, s11
   14d06: 63 92 0b 2e  	bnez	s7, 0x14fea <_vfprintf_r+0xb2a>
   14d0a: 63 13 08 2e  	bnez	a6, 0x14ff0 <_vfprintf_r+0xb30>
   14d0e: 6e 83        	mv	t1, s11
   14d10: 13 0d c1 15  	addi	s10, sp, 0x15c
   14d14: b5 bf        	j	0x14c90 <_vfprintf_r+0x7d0>
   14d16: 13 63 0c 02  	ori	t1, s8, 0x20
   14d1a: 83 48 0b 00  	lbu	a7, 0x0(s6)
   14d1e: 1b 0c 03 00  	sext.w	s8, t1
   14d22: e9 b0        	j	0x145ec <_vfprintf_r+0x12c>
   14d24: 22 67        	ld	a4, 0x8(sp)
   14d26: a1 67        	lui	a5, 0x8
   14d28: 93 87 07 83  	addi	a5, a5, -0x7d0
   14d2c: 23 18 f1 0a  	sh	a5, 0xb0(sp)
   14d30: 93 07 87 00  	addi	a5, a4, 0x8
   14d34: 6e 88        	mv	a6, s11
   14d36: 3e e4        	sd	a5, 0x8(sp)
   14d38: 93 6d 2c 00  	ori	s11, s8, 0x2
   14d3c: 97 c7 ff ff  	auipc	a5, 0xffffc
   14d40: 93 87 47 8c  	addi	a5, a5, -0x73c
   14d44: be e8        	sd	a5, 0x50(sp)
   14d46: 83 3b 07 00  	ld	s7, 0x0(a4)
   14d4a: 81 2d        	sext.w	s11, s11
   14d4c: 89 47        	li	a5, 0x2
   14d4e: 93 08 80 07  	li	a7, 0x78
   14d52: 19 bf        	j	0x14c68 <_vfprintf_r+0x7a8>
   14d54: 93 06 50 06  	li	a3, 0x65
   14d58: e3 d8 16 c5  	bge	a3, a7, 0x149a8 <_vfprintf_r+0x4e8>
   14d5c: d3 07 00 f2  	fmv.d.x	fa5, zero
   14d60: 62 37        	fld	fa4, 0x38(sp)
   14d62: d3 26 f7 a2  	feq.d	a3, fa4, fa5
   14d66: 63 80 06 34  	beqz	a3, 0x150a6 <_vfprintf_r+0xbe6>
   14d6a: ae 57        	lw	a5, 0xe8(sp)
   14d6c: 97 c6 ff ff  	auipc	a3, 0xffffc
   14d70: 93 86 46 82  	addi	a3, a3, -0x7dc
   14d74: 14 e0        	sd	a3, 0x0(s0)
   14d76: 85 27        	addiw	a5, a5, 0x1
   14d78: 85 46        	li	a3, 0x1
   14d7a: 05 06        	addi	a2, a2, 0x1
   14d7c: 14 e4        	sd	a3, 0x8(s0)
   14d7e: be d5        	sw	a5, 0xe8(sp)
   14d80: 9b 86 07 00  	sext.w	a3, a5
   14d84: b2 f9        	sd	a2, 0xf0(sp)
   14d86: 9d 47        	li	a5, 0x7
   14d88: 41 04        	addi	s0, s0, 0x10
   14d8a: e3 c3 d7 2e  	blt	a5, a3, 0x15870 <_vfprintf_r+0x13b0>
   14d8e: ea 57        	lw	a5, 0xb8(sp)
   14d90: 02 77        	ld	a4, 0x20(sp)
   14d92: 63 df e7 50  	bge	a5, a4, 0x152b0 <_vfprintf_r+0xdf0>
   14d96: ae 57        	lw	a5, 0xe8(sp)
   14d98: 06 67        	ld	a4, 0x40(sp)
   14d9a: a6 66        	ld	a3, 0x48(sp)
   14d9c: 41 04        	addi	s0, s0, 0x10
   14d9e: 3a 96        	add	a2, a2, a4
   14da0: 23 38 d4 fe  	sd	a3, -0x10(s0)
   14da4: 9b 86 17 00  	addiw	a3, a5, 0x1
   14da8: 23 3c e4 fe  	sd	a4, -0x8(s0)
   14dac: b2 f9        	sd	a2, 0xf0(sp)
   14dae: b6 d5        	sw	a3, 0xe8(sp)
   14db0: 9d 47        	li	a5, 0x7
   14db2: e3 ca d7 0a  	blt	a5, a3, 0x15666 <_vfprintf_r+0x11a6>
   14db6: 82 77        	ld	a5, 0x20(sp)
   14db8: 9b 8b f7 ff  	addiw	s7, a5, -0x1
   14dbc: e3 53 70 95  	blez	s7, 0x14702 <_vfprintf_r+0x242>
   14dc0: c1 46        	li	a3, 0x10
   14dc2: ae 57        	lw	a5, 0xe8(sp)
   14dc4: 97 c2 ff ff  	auipc	t0, 0xffffc
   14dc8: 93 82 42 9f  	addi	t0, t0, -0x60c
   14dcc: e3 d6 76 3b  	bge	a3, s7, 0x15978 <_vfprintf_r+0x14b8>
   14dd0: 5a ec        	sd	s6, 0x18(sp)
   14dd2: 41 48        	li	a6, 0x10
   14dd4: 1d 4d        	li	s10, 0x7
   14dd6: 1a 8c        	mv	s8, t1
   14dd8: 16 8b        	mv	s6, t0
   14dda: 21 a0        	j	0x14de2 <_vfprintf_r+0x922>
   14ddc: c1 3b        	addiw	s7, s7, -0x10
   14dde: e3 5a 78 39  	bge	a6, s7, 0x15972 <_vfprintf_r+0x14b2>
   14de2: 85 27        	addiw	a5, a5, 0x1
   14de4: 41 06        	addi	a2, a2, 0x10
   14de6: 23 30 64 01  	sd	s6, 0x0(s0)
   14dea: 23 34 04 01  	sd	a6, 0x8(s0)
   14dee: b2 f9        	sd	a2, 0xf0(sp)
   14df0: be d5        	sw	a5, 0xe8(sp)
   14df2: 41 04        	addi	s0, s0, 0x10
   14df4: e3 54 fd fe  	bge	s10, a5, 0x14ddc <_vfprintf_r+0x91c>
   14df8: 90 11        	addi	a2, sp, 0xe0
   14dfa: ce 85        	mv	a1, s3
   14dfc: 26 85        	mv	a0, s1
   14dfe: ef 10 80 6b  	jal	0x164b6 <__sprint_r>
   14e02: e3 19 05 a0  	bnez	a0, 0x14814 <_vfprintf_r+0x354>
   14e06: 4e 76        	ld	a2, 0xf0(sp)
   14e08: ae 57        	lw	a5, 0xe8(sp)
   14e0a: 56 84        	mv	s0, s5
   14e0c: 41 48        	li	a6, 0x10
   14e0e: f9 b7        	j	0x14ddc <_vfprintf_r+0x91c>
   14e10: 9a 8d        	mv	s11, t1
   14e12: 05 47        	li	a4, 0x1
   14e14: 63 8b e7 1c  	beq	a5, a4, 0x14fea <_vfprintf_r+0xb2a>
   14e18: 09 47        	li	a4, 0x2
   14e1a: 63 89 e7 04  	beq	a5, a4, 0x14e6c <_vfprintf_r+0x9ac>
   14e1e: 13 0c c1 15  	addi	s8, sp, 0x15c
   14e22: 62 8d        	mv	s10, s8
   14e24: 13 f7 7b 00  	andi	a4, s7, 0x7
   14e28: 13 07 07 03  	addi	a4, a4, 0x30
   14e2c: a3 0f ed fe  	sb	a4, -0x1(s10)
   14e30: 93 db 3b 00  	srli	s7, s7, 0x3
   14e34: 6a 86        	mv	a2, s10
   14e36: 7d 1d        	addi	s10, s10, -0x1
   14e38: e3 96 0b fe  	bnez	s7, 0x14e24 <_vfprintf_r+0x964>
   14e3c: 93 f5 1d 00  	andi	a1, s11, 0x1
   14e40: b1 c5        	beqz	a1, 0x14e8c <_vfprintf_r+0x9cc>
   14e42: 93 05 00 03  	li	a1, 0x30
   14e46: 63 03 b7 04  	beq	a4, a1, 0x14e8c <_vfprintf_r+0x9cc>
   14e4a: 79 16        	addi	a2, a2, -0x2
   14e4c: a3 0f bd fe  	sb	a1, -0x1(s10)
   14e50: bb 0b cc 40  	subw	s7, s8, a2
   14e54: 6e 83        	mv	t1, s11
   14e56: 32 8d        	mv	s10, a2
   14e58: 25 bd        	j	0x14c90 <_vfprintf_r+0x7d0>
   14e5a: 05 47        	li	a4, 0x1
   14e5c: 63 94 e7 00  	bne	a5, a4, 0x14e64 <_vfprintf_r+0x9a4>
   14e60: 6f 10 e0 23  	j	0x1609e <_vfprintf_r+0x1bde>
   14e64: 09 47        	li	a4, 0x2
   14e66: 9a 8d        	mv	s11, t1
   14e68: e3 9b e7 fa  	bne	a5, a4, 0x14e1e <_vfprintf_r+0x95e>
   14e6c: 46 67        	ld	a4, 0x50(sp)
   14e6e: 13 0c c1 15  	addi	s8, sp, 0x15c
   14e72: 62 8d        	mv	s10, s8
   14e74: 93 f7 fb 00  	andi	a5, s7, 0xf
   14e78: ba 97        	add	a5, a5, a4
   14e7a: 83 c7 07 00  	lbu	a5, 0x0(a5)
   14e7e: 93 db 4b 00  	srli	s7, s7, 0x4
   14e82: 7d 1d        	addi	s10, s10, -0x1
   14e84: 23 00 fd 00  	sb	a5, 0x0(s10)
   14e88: e3 96 0b fe  	bnez	s7, 0x14e74 <_vfprintf_r+0x9b4>
   14e8c: bb 0b ac 41  	subw	s7, s8, s10
   14e90: 6e 83        	mv	t1, s11
   14e92: fd bb        	j	0x14c90 <_vfprintf_r+0x7d0>
   14e94: bb 8e bc 41  	subw	t4, s9, s11
   14e98: e3 5e d0 83  	blez	t4, 0x146d4 <_vfprintf_r+0x214>
   14e9c: 41 45        	li	a0, 0x10
   14e9e: ae 55        	lw	a1, 0xe8(sp)
   14ea0: 97 c2 ff ff  	auipc	t0, 0xffffc
   14ea4: 93 82 82 91  	addi	t0, t0, -0x6e8
   14ea8: 63 50 d5 07  	bge	a0, t4, 0x14f08 <_vfprintf_r+0xa48>
   14eac: da f0        	sd	s6, 0x60(sp)
   14eae: a2 87        	mv	a5, s0
   14eb0: 41 4f        	li	t5, 0x10
   14eb2: 9d 4f        	li	t6, 0x7
   14eb4: 9a f4        	sd	t1, 0x68(sp)
   14eb6: 46 8c        	mv	s8, a7
   14eb8: 42 e5        	sd	a6, 0x88(sp)
   14eba: 76 84        	mv	s0, t4
   14ebc: 16 8b        	mv	s6, t0
   14ebe: 21 a0        	j	0x14ec6 <_vfprintf_r+0xa06>
   14ec0: 41 34        	addiw	s0, s0, -0x10
   14ec2: 63 5c 8f 02  	bge	t5, s0, 0x14efa <_vfprintf_r+0xa3a>
   14ec6: 85 25        	addiw	a1, a1, 0x1
   14ec8: 41 06        	addi	a2, a2, 0x10
   14eca: 23 b0 67 01  	sd	s6, 0x0(a5)
   14ece: 23 b4 e7 01  	sd	t5, 0x8(a5)
   14ed2: b2 f9        	sd	a2, 0xf0(sp)
   14ed4: ae d5        	sw	a1, 0xe8(sp)
   14ed6: c1 07        	addi	a5, a5, 0x10
   14ed8: e3 d4 bf fe  	bge	t6, a1, 0x14ec0 <_vfprintf_r+0xa00>
   14edc: 90 11        	addi	a2, sp, 0xe0
   14ede: ce 85        	mv	a1, s3
   14ee0: 26 85        	mv	a0, s1
   14ee2: ef 10 40 5d  	jal	0x164b6 <__sprint_r>
   14ee6: e3 17 05 92  	bnez	a0, 0x14814 <_vfprintf_r+0x354>
   14eea: 41 4f        	li	t5, 0x10
   14eec: 41 34        	addiw	s0, s0, -0x10
   14eee: 4e 76        	ld	a2, 0xf0(sp)
   14ef0: ae 55        	lw	a1, 0xe8(sp)
   14ef2: d6 87        	mv	a5, s5
   14ef4: 9d 4f        	li	t6, 0x7
   14ef6: e3 48 8f fc  	blt	t5, s0, 0x14ec6 <_vfprintf_r+0xa06>
   14efa: da 82        	mv	t0, s6
   14efc: 26 73        	ld	t1, 0x68(sp)
   14efe: 2a 68        	ld	a6, 0x88(sp)
   14f00: 06 7b        	ld	s6, 0x60(sp)
   14f02: a2 8e        	mv	t4, s0
   14f04: e2 88        	mv	a7, s8
   14f06: 3e 84        	mv	s0, a5
   14f08: 1b 85 15 00  	addiw	a0, a1, 0x1
   14f0c: 76 96        	add	a2, a2, t4
   14f0e: 23 30 54 00  	sd	t0, 0x0(s0)
   14f12: 23 34 d4 01  	sd	t4, 0x8(s0)
   14f16: b2 f9        	sd	a2, 0xf0(sp)
   14f18: aa d5        	sw	a0, 0xe8(sp)
   14f1a: 9d 45        	li	a1, 0x7
   14f1c: 41 04        	addi	s0, s0, 0x10
   14f1e: 63 db a5 fa  	bge	a1, a0, 0x146d4 <_vfprintf_r+0x214>
   14f22: 90 11        	addi	a2, sp, 0xe0
   14f24: ce 85        	mv	a1, s3
   14f26: 26 85        	mv	a0, s1
   14f28: 42 e5        	sd	a6, 0x88(sp)
   14f2a: c6 f4        	sd	a7, 0x68(sp)
   14f2c: 9a f0        	sd	t1, 0x60(sp)
   14f2e: ef 10 80 58  	jal	0x164b6 <__sprint_r>
   14f32: e3 11 05 8e  	bnez	a0, 0x14814 <_vfprintf_r+0x354>
   14f36: 4e 76        	ld	a2, 0xf0(sp)
   14f38: 2a 68        	ld	a6, 0x88(sp)
   14f3a: a6 78        	ld	a7, 0x68(sp)
   14f3c: 06 73        	ld	t1, 0x60(sp)
   14f3e: 56 84        	mv	s0, s5
   14f40: 6f f0 4f f9  	j	0x146d4 <_vfprintf_r+0x214>
   14f44: 41 45        	li	a0, 0x10
   14f46: ae 55        	lw	a1, 0xe8(sp)
   14f48: 97 c2 ff ff  	auipc	t0, 0xffffc
   14f4c: 93 82 02 87  	addi	t0, t0, -0x790
   14f50: 63 5f 05 05  	bge	a0, a6, 0x14fae <_vfprintf_r+0xaee>
   14f54: a2 87        	mv	a5, s0
   14f56: c1 4e        	li	t4, 0x10
   14f58: 1d 4f        	li	t5, 0x7
   14f5a: 9a f0        	sd	t1, 0x60(sp)
   14f5c: 46 8c        	mv	s8, a7
   14f5e: 42 84        	mv	s0, a6
   14f60: 96 f4        	sd	t0, 0x68(sp)
   14f62: 21 a0        	j	0x14f6a <_vfprintf_r+0xaaa>
   14f64: 41 34        	addiw	s0, s0, -0x10
   14f66: 63 df 8e 02  	bge	t4, s0, 0x14fa4 <_vfprintf_r+0xae4>
   14f6a: 85 25        	addiw	a1, a1, 0x1
   14f6c: 41 06        	addi	a2, a2, 0x10
   14f6e: 97 c6 ff ff  	auipc	a3, 0xffffc
   14f72: 93 86 a6 84  	addi	a3, a3, -0x7b6
   14f76: 94 e3        	sd	a3, 0x0(a5)
   14f78: 23 b4 d7 01  	sd	t4, 0x8(a5)
   14f7c: b2 f9        	sd	a2, 0xf0(sp)
   14f7e: ae d5        	sw	a1, 0xe8(sp)
   14f80: c1 07        	addi	a5, a5, 0x10
   14f82: e3 51 bf fe  	bge	t5, a1, 0x14f64 <_vfprintf_r+0xaa4>
   14f86: 90 11        	addi	a2, sp, 0xe0
   14f88: ce 85        	mv	a1, s3
   14f8a: 26 85        	mv	a0, s1
   14f8c: ef 10 a0 52  	jal	0x164b6 <__sprint_r>
   14f90: e3 12 05 88  	bnez	a0, 0x14814 <_vfprintf_r+0x354>
   14f94: c1 4e        	li	t4, 0x10
   14f96: 41 34        	addiw	s0, s0, -0x10
   14f98: 4e 76        	ld	a2, 0xf0(sp)
   14f9a: ae 55        	lw	a1, 0xe8(sp)
   14f9c: d6 87        	mv	a5, s5
   14f9e: 1d 4f        	li	t5, 0x7
   14fa0: e3 c5 8e fc  	blt	t4, s0, 0x14f6a <_vfprintf_r+0xaaa>
   14fa4: 06 73        	ld	t1, 0x60(sp)
   14fa6: a6 72        	ld	t0, 0x68(sp)
   14fa8: 22 88        	mv	a6, s0
   14faa: e2 88        	mv	a7, s8
   14fac: 3e 84        	mv	s0, a5
   14fae: 1b 85 15 00  	addiw	a0, a1, 0x1
   14fb2: 42 96        	add	a2, a2, a6
   14fb4: 23 30 54 00  	sd	t0, 0x0(s0)
   14fb8: 23 34 04 01  	sd	a6, 0x8(s0)
   14fbc: b2 f9        	sd	a2, 0xf0(sp)
   14fbe: aa d5        	sw	a0, 0xe8(sp)
   14fc0: 9d 45        	li	a1, 0x7
   14fc2: 41 04        	addi	s0, s0, 0x10
   14fc4: 63 dc a5 f0  	bge	a1, a0, 0x146dc <_vfprintf_r+0x21c>
   14fc8: 90 11        	addi	a2, sp, 0xe0
   14fca: ce 85        	mv	a1, s3
   14fcc: 26 85        	mv	a0, s1
   14fce: c6 f4        	sd	a7, 0x68(sp)
   14fd0: 9a f0        	sd	t1, 0x60(sp)
   14fd2: ef 10 40 4e  	jal	0x164b6 <__sprint_r>
   14fd6: e3 1f 05 82  	bnez	a0, 0x14814 <_vfprintf_r+0x354>
   14fda: 4e 76        	ld	a2, 0xf0(sp)
   14fdc: a6 78        	ld	a7, 0x68(sp)
   14fde: 06 73        	ld	t1, 0x60(sp)
   14fe0: 56 84        	mv	s0, s5
   14fe2: 6f f0 af ef  	j	0x146dc <_vfprintf_r+0x21c>
   14fe6: 9a 8d        	mv	s11, t1
   14fe8: 3a e4        	sd	a4, 0x8(sp)
   14fea: a5 47        	li	a5, 0x9
   14fec: 63 ef 77 79  	bltu	a5, s7, 0x1578a <_vfprintf_r+0x12ca>
   14ff0: 9b 8b 0b 03  	addiw	s7, s7, 0x30
   14ff4: a3 0d 71 15  	sb	s7, 0x15b(sp)
   14ff8: 6e 83        	mv	t1, s11
   14ffa: 85 4b        	li	s7, 0x1
   14ffc: 13 0d b1 15  	addi	s10, sp, 0x15b
   15000: 41 b9        	j	0x14c90 <_vfprintf_r+0x7d0>
   15002: 90 11        	addi	a2, sp, 0xe0
   15004: ce 85        	mv	a1, s3
   15006: 26 85        	mv	a0, s1
   15008: 42 e9        	sd	a6, 0x90(sp)
   1500a: 46 e5        	sd	a7, 0x88(sp)
   1500c: 9a f4        	sd	t1, 0x68(sp)
   1500e: fe f0        	sd	t6, 0x60(sp)
   15010: ef 10 60 4a  	jal	0x164b6 <__sprint_r>
   15014: e3 10 05 80  	bnez	a0, 0x14814 <_vfprintf_r+0x354>
   15018: 4e 76        	ld	a2, 0xf0(sp)
   1501a: 4a 68        	ld	a6, 0x90(sp)
   1501c: aa 68        	ld	a7, 0x88(sp)
   1501e: 26 73        	ld	t1, 0x68(sp)
   15020: 86 7f        	ld	t6, 0x60(sp)
   15022: 56 84        	mv	s0, s5
   15024: 6f f0 8f ea  	j	0x146cc <_vfprintf_r+0x20c>
   15028: c1 46        	li	a3, 0x10
   1502a: ae 57        	lw	a5, 0xe8(sp)
   1502c: 17 b7 ff ff  	auipc	a4, 0xffffb
   15030: 13 07 c7 79  	addi	a4, a4, 0x79c
   15034: 63 d4 76 05  	bge	a3, s7, 0x1507c <_vfprintf_r+0xbbc>
   15038: 5a ec        	sd	s6, 0x18(sp)
   1503a: 41 4d        	li	s10, 0x10
   1503c: 1d 4c        	li	s8, 0x7
   1503e: 3a 8b        	mv	s6, a4
   15040: 21 a0        	j	0x15048 <_vfprintf_r+0xb88>
   15042: c1 3b        	addiw	s7, s7, -0x10
   15044: 63 5a 7d 03  	bge	s10, s7, 0x15078 <_vfprintf_r+0xbb8>
   15048: 85 27        	addiw	a5, a5, 0x1
   1504a: 41 06        	addi	a2, a2, 0x10
   1504c: 23 30 64 01  	sd	s6, 0x0(s0)
   15050: 23 34 a4 01  	sd	s10, 0x8(s0)
   15054: b2 f9        	sd	a2, 0xf0(sp)
   15056: be d5        	sw	a5, 0xe8(sp)
   15058: 41 04        	addi	s0, s0, 0x10
   1505a: e3 54 fc fe  	bge	s8, a5, 0x15042 <_vfprintf_r+0xb82>
   1505e: 90 11        	addi	a2, sp, 0xe0
   15060: ce 85        	mv	a1, s3
   15062: 26 85        	mv	a0, s1
   15064: ef 10 20 45  	jal	0x164b6 <__sprint_r>
   15068: 63 16 05 fa  	bnez	a0, 0x14814 <_vfprintf_r+0x354>
   1506c: c1 3b        	addiw	s7, s7, -0x10
   1506e: 4e 76        	ld	a2, 0xf0(sp)
   15070: ae 57        	lw	a5, 0xe8(sp)
   15072: 56 84        	mv	s0, s5
   15074: e3 4a 7d fd  	blt	s10, s7, 0x15048 <_vfprintf_r+0xb88>
   15078: 5a 87        	mv	a4, s6
   1507a: 62 6b        	ld	s6, 0x18(sp)
   1507c: 9b 86 17 00  	addiw	a3, a5, 0x1
   15080: 5e 96        	add	a2, a2, s7
   15082: 18 e0        	sd	a4, 0x0(s0)
   15084: 23 34 74 01  	sd	s7, 0x8(s0)
   15088: b2 f9        	sd	a2, 0xf0(sp)
   1508a: b6 d5        	sw	a3, 0xe8(sp)
   1508c: 9d 47        	li	a5, 0x7
   1508e: 63 d2 d7 e8  	bge	a5, a3, 0x14712 <_vfprintf_r+0x252>
   15092: 90 11        	addi	a2, sp, 0xe0
   15094: ce 85        	mv	a1, s3
   15096: 26 85        	mv	a0, s1
   15098: ef 10 e0 41  	jal	0x164b6 <__sprint_r>
   1509c: 63 1c 05 f6  	bnez	a0, 0x14814 <_vfprintf_r+0x354>
   150a0: 4e 76        	ld	a2, 0xf0(sp)
   150a2: 6f f0 0f e7  	j	0x14712 <_vfprintf_r+0x252>
   150a6: ea 55        	lw	a1, 0xb8(sp)
   150a8: 63 51 b0 22  	blez	a1, 0x152ca <_vfprintf_r+0xe0a>
   150ac: e2 67        	ld	a5, 0x18(sp)
   150ae: 02 77        	ld	a4, 0x20(sp)
   150b0: be 86        	mv	a3, a5
   150b2: 63 53 f7 00  	bge	a4, a5, 0x150b8 <_vfprintf_r+0xbf8>
   150b6: ba 86        	mv	a3, a4
   150b8: 9b 8b 06 00  	sext.w	s7, a3
   150bc: 63 50 70 03  	blez	s7, 0x150dc <_vfprintf_r+0xc1c>
   150c0: ae 55        	lw	a1, 0xe8(sp)
   150c2: 5e 96        	add	a2, a2, s7
   150c4: 23 30 a4 01  	sd	s10, 0x0(s0)
   150c8: 1b 85 15 00  	addiw	a0, a1, 0x1
   150cc: 23 34 74 01  	sd	s7, 0x8(s0)
   150d0: b2 f9        	sd	a2, 0xf0(sp)
   150d2: aa d5        	sw	a0, 0xe8(sp)
   150d4: 9d 45        	li	a1, 0x7
   150d6: 41 04        	addi	s0, s0, 0x10
   150d8: e3 c0 a5 66  	blt	a1, a0, 0x15f38 <_vfprintf_r+0x1a78>
   150dc: 93 c5 fb ff  	not	a1, s7
   150e0: e2 67        	ld	a5, 0x18(sp)
   150e2: fd 95        	srai	a1, a1, 0x3f
   150e4: b3 f6 bb 00  	and	a3, s7, a1
   150e8: bb 8b d7 40  	subw	s7, a5, a3
   150ec: e3 41 70 11  	bgtz	s7, 0x159ee <_vfprintf_r+0x152e>
   150f0: e2 67        	ld	a5, 0x18(sp)
   150f2: 93 76 03 40  	andi	a3, t1, 0x400
   150f6: b3 0e fd 00  	add	t4, s10, a5
   150fa: e3 9a 06 32  	bnez	a3, 0x15c2e <_vfprintf_r+0x176e>
   150fe: ea 56        	lw	a3, 0xb8(sp)
   15100: 82 77        	ld	a5, 0x20(sp)
   15102: 63 cf f6 5e  	blt	a3, a5, 0x15700 <_vfprintf_r+0x1240>
   15106: 93 75 13 00  	andi	a1, t1, 0x1
   1510a: 63 9b 05 5e  	bnez	a1, 0x15700 <_vfprintf_r+0x1240>
   1510e: 02 77        	ld	a4, 0x20(sp)
   15110: b3 07 ed 00  	add	a5, s10, a4
   15114: b3 8b d7 41  	sub	s7, a5, t4
   15118: bb 05 d7 40  	subw	a1, a4, a3
   1511c: 9b 87 0b 00  	sext.w	a5, s7
   15120: 63 d3 f5 00  	bge	a1, a5, 0x15126 <_vfprintf_r+0xc66>
   15124: ae 8b        	mv	s7, a1
   15126: 81 2b        	sext.w	s7, s7
   15128: 63 50 70 03  	blez	s7, 0x15148 <_vfprintf_r+0xc88>
   1512c: ae 57        	lw	a5, 0xe8(sp)
   1512e: 5e 96        	add	a2, a2, s7
   15130: 23 30 d4 01  	sd	t4, 0x0(s0)
   15134: 9b 86 17 00  	addiw	a3, a5, 0x1
   15138: 23 34 74 01  	sd	s7, 0x8(s0)
   1513c: b2 f9        	sd	a2, 0xf0(sp)
   1513e: b6 d5        	sw	a3, 0xe8(sp)
   15140: 9d 47        	li	a5, 0x7
   15142: 41 04        	addi	s0, s0, 0x10
   15144: e3 cd d7 66  	blt	a5, a3, 0x15fbe <_vfprintf_r+0x1afe>
   15148: 93 c7 fb ff  	not	a5, s7
   1514c: fd 97        	srai	a5, a5, 0x3f
   1514e: b3 fb fb 00  	and	s7, s7, a5
   15152: bb 8b 75 41  	subw	s7, a1, s7
   15156: 63 56 70 db  	blez	s7, 0x14702 <_vfprintf_r+0x242>
   1515a: c1 46        	li	a3, 0x10
   1515c: ae 57        	lw	a5, 0xe8(sp)
   1515e: 97 b2 ff ff  	auipc	t0, 0xffffb
   15162: 93 82 a2 65  	addi	t0, t0, 0x65a
   15166: e3 d9 76 01  	bge	a3, s7, 0x15978 <_vfprintf_r+0x14b8>
   1516a: 5a ec        	sd	s6, 0x18(sp)
   1516c: 41 48        	li	a6, 0x10
   1516e: 1d 4d        	li	s10, 0x7
   15170: 1a 8c        	mv	s8, t1
   15172: 16 8b        	mv	s6, t0
   15174: 21 a0        	j	0x1517c <_vfprintf_r+0xcbc>
   15176: c1 3b        	addiw	s7, s7, -0x10
   15178: 63 5d 78 7f  	bge	a6, s7, 0x15972 <_vfprintf_r+0x14b2>
   1517c: 85 27        	addiw	a5, a5, 0x1
   1517e: 41 06        	addi	a2, a2, 0x10
   15180: 23 30 64 01  	sd	s6, 0x0(s0)
   15184: 23 34 04 01  	sd	a6, 0x8(s0)
   15188: b2 f9        	sd	a2, 0xf0(sp)
   1518a: be d5        	sw	a5, 0xe8(sp)
   1518c: 41 04        	addi	s0, s0, 0x10
   1518e: e3 54 fd fe  	bge	s10, a5, 0x15176 <_vfprintf_r+0xcb6>
   15192: 90 11        	addi	a2, sp, 0xe0
   15194: ce 85        	mv	a1, s3
   15196: 26 85        	mv	a0, s1
   15198: ef 10 e0 31  	jal	0x164b6 <__sprint_r>
   1519c: 63 1c 05 e6  	bnez	a0, 0x14814 <_vfprintf_r+0x354>
   151a0: 4e 76        	ld	a2, 0xf0(sp)
   151a2: ae 57        	lw	a5, 0xe8(sp)
   151a4: 56 84        	mv	s0, s5
   151a6: 41 48        	li	a6, 0x10
   151a8: f9 b7        	j	0x15176 <_vfprintf_r+0xcb6>
   151aa: 93 78 13 00  	andi	a7, t1, 0x1
   151ae: e3 9a 08 80  	bnez	a7, 0x149c2 <_vfprintf_r+0x502>
   151b2: 23 34 04 01  	sd	a6, 0x8(s0)
   151b6: b2 f9        	sd	a2, 0xf0(sp)
   151b8: b6 d5        	sw	a3, 0xe8(sp)
   151ba: 9d 47        	li	a5, 0x7
   151bc: e3 de d7 84  	bge	a5, a3, 0x14a18 <_vfprintf_r+0x558>
   151c0: 90 11        	addi	a2, sp, 0xe0
   151c2: ce 85        	mv	a1, s3
   151c4: 26 85        	mv	a0, s1
   151c6: 1a ec        	sd	t1, 0x18(sp)
   151c8: ef 10 e0 2e  	jal	0x164b6 <__sprint_r>
   151cc: 63 14 05 e4  	bnez	a0, 0x14814 <_vfprintf_r+0x354>
   151d0: 4e 76        	ld	a2, 0xf0(sp)
   151d2: ae 56        	lw	a3, 0xe8(sp)
   151d4: 62 63        	ld	t1, 0x18(sp)
   151d6: d6 85        	mv	a1, s5
   151d8: 81 b0        	j	0x14a18 <_vfprintf_r+0x558>
   151da: 02 77        	ld	a4, 0x20(sp)
   151dc: 85 47        	li	a5, 0x1
   151de: e3 dd e7 82  	bge	a5, a4, 0x14a18 <_vfprintf_r+0x558>
   151e2: c5 47        	li	a5, 0x11
   151e4: 97 b2 ff ff  	auipc	t0, 0xffffb
   151e8: 93 82 42 5d  	addi	t0, t0, 0x5d4
   151ec: 63 d2 e7 7a  	bge	a5, a4, 0x15990 <_vfprintf_r+0x14d0>
   151f0: 5a ec        	sd	s6, 0x18(sp)
   151f2: 41 44        	li	s0, 0x10
   151f4: 9d 4b        	li	s7, 0x7
   151f6: 1a 8c        	mv	s8, t1
   151f8: 42 8d        	mv	s10, a6
   151fa: 16 8b        	mv	s6, t0
   151fc: 21 a0        	j	0x15204 <_vfprintf_r+0xd44>
   151fe: 41 3d        	addiw	s10, s10, -0x10
   15200: 63 54 a4 79  	bge	s0, s10, 0x15988 <_vfprintf_r+0x14c8>
   15204: 85 26        	addiw	a3, a3, 0x1
   15206: 41 06        	addi	a2, a2, 0x10
   15208: 23 b0 65 01  	sd	s6, 0x0(a1)
   1520c: 80 e5        	sd	s0, 0x8(a1)
   1520e: b2 f9        	sd	a2, 0xf0(sp)
   15210: b6 d5        	sw	a3, 0xe8(sp)
   15212: c1 05        	addi	a1, a1, 0x10
   15214: e3 d5 db fe  	bge	s7, a3, 0x151fe <_vfprintf_r+0xd3e>
   15218: 90 11        	addi	a2, sp, 0xe0
   1521a: ce 85        	mv	a1, s3
   1521c: 26 85        	mv	a0, s1
   1521e: ef 10 80 29  	jal	0x164b6 <__sprint_r>
   15222: 63 19 05 de  	bnez	a0, 0x14814 <_vfprintf_r+0x354>
   15226: 4e 76        	ld	a2, 0xf0(sp)
   15228: ae 56        	lw	a3, 0xe8(sp)
   1522a: d6 85        	mv	a1, s5
   1522c: c9 bf        	j	0x151fe <_vfprintf_r+0xd3e>
   1522e: 93 f7 0d 01  	andi	a5, s11, 0x10
   15232: 63 9d 07 10  	bnez	a5, 0x1534c <_vfprintf_r+0xe8c>
   15236: a2 66        	ld	a3, 0x8(sp)
   15238: 93 f7 0d 04  	andi	a5, s11, 0x40
   1523c: 83 ab 06 00  	lw	s7, 0x0(a3)
   15240: e3 82 07 02  	beqz	a5, 0x15a64 <_vfprintf_r+0x15a4>
   15244: c2 1b        	slli	s7, s7, 0x30
   15246: 93 db 0b 03  	srli	s7, s7, 0x30
   1524a: 3a e4        	sd	a4, 0x8(sp)
   1524c: 85 47        	li	a5, 0x1
   1524e: 29 bc        	j	0x14c68 <_vfprintf_r+0x7a8>
   15250: 93 77 03 01  	andi	a5, t1, 0x10
   15254: 63 96 07 10  	bnez	a5, 0x15360 <_vfprintf_r+0xea0>
   15258: a2 66        	ld	a3, 0x8(sp)
   1525a: 93 77 03 04  	andi	a5, t1, 0x40
   1525e: 83 ab 06 00  	lw	s7, 0x0(a3)
   15262: 63 80 07 7e  	beqz	a5, 0x15a42 <_vfprintf_r+0x1582>
   15266: 9b 9b 0b 01  	slliw	s7, s7, 0x10
   1526a: 9b db 0b 41  	sraiw	s7, s7, 0x10
   1526e: de 87        	mv	a5, s7
   15270: e3 d5 07 a8  	bgez	a5, 0x14cfa <_vfprintf_r+0x83a>
   15274: 3a e4        	sd	a4, 0x8(sp)
   15276: b3 0b 70 41  	neg	s7, s7
   1527a: 9a 8d        	mv	s11, t1
   1527c: 13 07 d0 02  	li	a4, 0x2d
   15280: 85 47        	li	a5, 0x1
   15282: e5 b2        	j	0x14c6a <_vfprintf_r+0x7aa>
   15284: 93 77 03 01  	andi	a5, t1, 0x10
   15288: e1 eb        	bnez	a5, 0x15358 <_vfprintf_r+0xe98>
   1528a: a2 66        	ld	a3, 0x8(sp)
   1528c: 93 77 03 04  	andi	a5, t1, 0x40
   15290: 83 ab 06 00  	lw	s7, 0x0(a3)
   15294: 63 81 07 7c  	beqz	a5, 0x15a56 <_vfprintf_r+0x1596>
   15298: c2 1b        	slli	s7, s7, 0x30
   1529a: 93 db 0b 03  	srli	s7, s7, 0x30
   1529e: c1 b2        	j	0x14c5e <_vfprintf_r+0x79e>
   152a0: 03 b5 09 0a  	ld	a0, 0xa0(s3)
   152a4: ef 70 20 2e  	jal	0x1c586 <__retarget_lock_acquire_recursive>
   152a8: 03 97 09 01  	lh	a4, 0x10(s3)
   152ac: 6f f0 af a6  	j	0x14516 <_vfprintf_r+0x56>
   152b0: 93 77 13 00  	andi	a5, t1, 0x1
   152b4: 63 87 07 c4  	beqz	a5, 0x14702 <_vfprintf_r+0x242>
   152b8: f9 bc        	j	0x14d96 <_vfprintf_r+0x8d6>
   152ba: 62 83        	mv	t1, s8
   152bc: 6e 88        	mv	a6, s11
   152be: 1d b4        	j	0x14ce4 <_vfprintf_r+0x824>
   152c0: 83 48 0b 00  	lbu	a7, 0x0(s6)
   152c4: 3e e4        	sd	a5, 0x8(sp)
   152c6: 6f f0 6f b2  	j	0x145ec <_vfprintf_r+0x12c>
   152ca: ae 56        	lw	a3, 0xe8(sp)
   152cc: 17 b5 ff ff  	auipc	a0, 0xffffb
   152d0: 13 05 45 2c  	addi	a0, a0, 0x2c4
   152d4: 08 e0        	sd	a0, 0x0(s0)
   152d6: 85 26        	addiw	a3, a3, 0x1
   152d8: 05 45        	li	a0, 0x1
   152da: 05 06        	addi	a2, a2, 0x1
   152dc: 08 e4        	sd	a0, 0x8(s0)
   152de: b6 d5        	sw	a3, 0xe8(sp)
   152e0: 1b 85 06 00  	sext.w	a0, a3
   152e4: b2 f9        	sd	a2, 0xf0(sp)
   152e6: 9d 46        	li	a3, 0x7
   152e8: 41 04        	addi	s0, s0, 0x10
   152ea: 63 ca a6 7c  	blt	a3, a0, 0x15abe <_vfprintf_r+0x15fe>
   152ee: 63 90 05 6c  	bnez	a1, 0x159ae <_vfprintf_r+0x14ee>
   152f2: 82 77        	ld	a5, 0x20(sp)
   152f4: 93 76 13 00  	andi	a3, t1, 0x1
   152f8: dd 8e        	or	a3, a3, a5
   152fa: 63 84 06 c0  	beqz	a3, 0x14702 <_vfprintf_r+0x242>
   152fe: ae 55        	lw	a1, 0xe8(sp)
   15300: 86 67        	ld	a5, 0x40(sp)
   15302: 26 67        	ld	a4, 0x48(sp)
   15304: 9b 86 15 00  	addiw	a3, a1, 0x1
   15308: 3e 96        	add	a2, a2, a5
   1530a: 18 e0        	sd	a4, 0x0(s0)
   1530c: 1c e4        	sd	a5, 0x8(s0)
   1530e: b2 f9        	sd	a2, 0xf0(sp)
   15310: b6 d5        	sw	a3, 0xe8(sp)
   15312: 9d 45        	li	a1, 0x7
   15314: e3 c2 d5 04  	blt	a1, a3, 0x15b58 <_vfprintf_r+0x1698>
   15318: 41 04        	addi	s0, s0, 0x10
   1531a: 55 ad        	j	0x159ce <_vfprintf_r+0x150e>
   1531c: 93 07 00 03  	li	a5, 0x30
   15320: a3 0d f1 14  	sb	a5, 0x15b(sp)
   15324: 13 0d b1 15  	addi	s10, sp, 0x15b
   15328: a5 b2        	j	0x14c90 <_vfprintf_r+0x7d0>
   1532a: 93 77 0c 01  	andi	a5, s8, 0x10
   1532e: e3 97 07 80  	bnez	a5, 0x14b3c <_vfprintf_r+0x67c>
   15332: 93 77 0c 04  	andi	a5, s8, 0x40
   15336: 63 98 07 7c  	bnez	a5, 0x15b06 <_vfprintf_r+0x1646>
   1533a: 13 73 0c 20  	andi	t1, s8, 0x200
   1533e: 82 67        	ld	a5, 0x0(sp)
   15340: e3 09 03 5c  	beqz	t1, 0x16112 <_vfprintf_r+0x1c52>
   15344: 23 00 f7 00  	sb	a5, 0x0(a4)
   15348: 6f f0 8f ff  	j	0x14b40 <_vfprintf_r+0x680>
   1534c: a2 67        	ld	a5, 0x8(sp)
   1534e: 3a e4        	sd	a4, 0x8(sp)
   15350: 83 bb 07 00  	ld	s7, 0x0(a5)
   15354: 85 47        	li	a5, 0x1
   15356: 09 ba        	j	0x14c68 <_vfprintf_r+0x7a8>
   15358: a2 67        	ld	a5, 0x8(sp)
   1535a: 83 bb 07 00  	ld	s7, 0x0(a5)
   1535e: 01 b2        	j	0x14c5e <_vfprintf_r+0x79e>
   15360: a2 67        	ld	a5, 0x8(sp)
   15362: 9c 63        	ld	a5, 0x0(a5)
   15364: be 8b        	mv	s7, a5
   15366: 41 ba        	j	0x14cf6 <_vfprintf_r+0x836>
   15368: a2 67        	ld	a5, 0x8(sp)
   1536a: 46 ec        	sd	a7, 0x18(sp)
   1536c: 6e f4        	sd	s11, 0x28(sp)
   1536e: bd 07        	addi	a5, a5, 0xf
   15370: c1 9b        	andi	a5, a5, -0x10
   15372: 88 63        	ld	a0, 0x0(a5)
   15374: 8c 67        	ld	a1, 0x8(a5)
   15376: c1 07        	addi	a5, a5, 0x10
   15378: 3e e4        	sd	a5, 0x8(sp)
   1537a: 62 e8        	sd	s8, 0x10(sp)
   1537c: ef 70 70 18  	jal	0x1cd02 <__trunctfdf2>
   15380: e2 68        	ld	a7, 0x18(sp)
   15382: 62 83        	mv	t1, s8
   15384: 6e 88        	mv	a6, s11
   15386: 97 c7 ff ff  	auipc	a5, 0xffffc
   1538a: 07 b7 27 c3  	fld	fa4, -0x3ce(a5)
   1538e: 2a bc        	fsd	fa0, 0x38(sp)
   15390: f3 26 10 00  	frflags	a3
   15394: e2 37        	fld	fa5, 0x38(sp)
   15396: d3 a7 f7 22  	fabs.d	fa5, fa5
   1539a: 53 17 f7 a2  	flt.d	a4, fa4, fa5
   1539e: 73 90 16 00  	fsflags	a3
   153a2: 63 12 07 d0  	bnez	a4, 0x148a6 <_vfprintf_r+0x3e6>
   153a6: e2 37        	fld	fa5, 0x38(sp)
   153a8: 53 a7 f7 a2  	feq.d	a4, fa5, fa5
   153ac: e3 00 07 68  	beqz	a4, 0x1622c <_vfprintf_r+0x1d6c>
   153b0: a2 b7        	fsd	fs0, 0x1e8(sp)
   153b2: 13 07 10 06  	li	a4, 0x61
   153b6: 63 8e e8 46  	beq	a7, a4, 0x15832 <_vfprintf_r+0x1372>
   153ba: 13 07 10 04  	li	a4, 0x41
   153be: 93 07 80 05  	li	a5, 0x58
   153c2: 63 8a e8 46  	beq	a7, a4, 0x15836 <_vfprintf_r+0x1376>
   153c6: 7d 57        	li	a4, -0x1
   153c8: e3 02 e8 56  	beq	a6, a4, 0x1612c <_vfprintf_r+0x1c6c>
   153cc: 13 f7 f8 fd  	andi	a4, a7, -0x21
   153d0: 93 06 70 04  	li	a3, 0x47
   153d4: 02 e8        	sd	zero, 0x10(sp)
   153d6: e3 07 d7 4c  	beq	a4, a3, 0x160a4 <_vfprintf_r+0x1be4>
   153da: e2 77        	ld	a5, 0x38(sp)
   153dc: 13 67 03 10  	ori	a4, t1, 0x100
   153e0: 9b 0e 07 00  	sext.w	t4, a4
   153e4: 53 84 07 f2  	fmv.d.x	fs0, a5
   153e8: 01 4c        	li	s8, 0x0
   153ea: e3 cf 07 30  	bltz	a5, 0x15f08 <_vfprintf_r+0x1a48>
   153ee: 9b 86 f8 fb  	addiw	a3, a7, -0x41
   153f2: 13 07 50 02  	li	a4, 0x25
   153f6: e3 6f d7 34  	bltu	a4, a3, 0x15f54 <_vfprintf_r+0x1a94>
   153fa: 05 47        	li	a4, 0x1
   153fc: 85 4b        	li	s7, 0x1
   153fe: 16 17        	slli	a4, a4, 0x25
   15400: b3 96 db 00  	sll	a3, s7, a3
   15404: 13 07 07 02  	addi	a4, a4, 0x20
   15408: 75 8f        	and	a4, a4, a3
   1540a: e3 11 07 22  	bnez	a4, 0x15e2c <_vfprintf_r+0x196c>
   1540e: 05 47        	li	a4, 0x1
   15410: 12 17        	slli	a4, a4, 0x24
   15412: 41 07        	addi	a4, a4, 0x10
   15414: 75 8f        	and	a4, a4, a3
   15416: e3 1f 07 44  	bnez	a4, 0x16074 <_vfprintf_r+0x1bb4>
   1541a: 05 47        	li	a4, 0x1
   1541c: 02 17        	slli	a4, a4, 0x20
   1541e: 05 07        	addi	a4, a4, 0x1
   15420: f9 8e        	and	a3, a3, a4
   15422: 63 80 06 78  	beqz	a3, 0x15ba2 <_vfprintf_r+0x16e2>
   15426: 53 05 84 22  	fmv.d	fa0, fs0
   1542a: 28 19        	addi	a0, sp, 0xb8
   1542c: 42 f4        	sd	a6, 0x28(sp)
   1542e: 46 f0        	sd	a7, 0x20(sp)
   15430: 1a ec        	sd	t1, 0x18(sp)
   15432: ef 70 e0 65  	jal	0x1ca90 <frexp>
   15436: 97 c7 ff ff  	auipc	a5, 0xffffc
   1543a: 87 b7 a7 b9  	fld	fa5, -0x466(a5)
   1543e: d3 77 f5 12  	fmul.d	fa5, fa0, fa5
   15442: 53 07 00 f2  	fmv.d.x	fa4, zero
   15446: 62 63        	ld	t1, 0x18(sp)
   15448: 82 78        	ld	a7, 0x20(sp)
   1544a: 22 78        	ld	a6, 0x28(sp)
   1544c: 53 a7 e7 a2  	feq.d	a4, fa5, fa4
   15450: 11 c3        	beqz	a4, 0x15454 <_vfprintf_r+0xf94>
   15452: 5e dd        	sw	s7, 0xb8(sp)
   15454: 13 07 10 06  	li	a4, 0x61
   15458: 97 b5 ff ff  	auipc	a1, 0xffffb
   1545c: 93 85 85 e9  	addi	a1, a1, -0x168
   15460: 63 96 e8 00  	bne	a7, a4, 0x1546c <_vfprintf_r+0xfac>
   15464: 97 b5 ff ff  	auipc	a1, 0xffffb
   15468: 93 85 c5 19  	addi	a1, a1, 0x19c
   1546c: 13 16 08 02  	slli	a2, a6, 0x20
   15470: 01 92        	srli	a2, a2, 0x20
   15472: 05 06        	addi	a2, a2, 0x1
   15474: 53 06 00 f2  	fmv.d.x	fa2, zero
   15478: 1b 07 08 00  	sext.w	a4, a6
   1547c: 6a 96        	add	a2, a2, s10
   1547e: ea 87        	mv	a5, s10
   15480: 97 c6 ff ff  	auipc	a3, 0xffffc
   15484: 87 b6 86 b4  	fld	fa3, -0x4b8(a3)
   15488: 29 a0        	j	0x15492 <_vfprintf_r+0xfd2>
   1548a: d3 a6 c7 a2  	feq.d	a3, fa5, fa2
   1548e: e3 9f 06 4e  	bnez	a3, 0x1618c <_vfprintf_r+0x1ccc>
   15492: d3 f7 d7 12  	fmul.d	fa5, fa5, fa3
   15496: 3e 88        	mv	a6, a5
   15498: 85 07        	addi	a5, a5, 0x1
   1549a: 53 95 07 c2  	fcvt.w.d	a0, fa5, rtz
   1549e: 9b 06 05 00  	sext.w	a3, a0
   154a2: 33 8e d5 00  	add	t3, a1, a3
   154a6: 03 4e 0e 00  	lbu	t3, 0x0(t3)
   154aa: 53 07 05 d2  	fcvt.d.w	fa4, a0
   154ae: a3 8f c7 ff  	sb	t3, -0x1(a5)
   154b2: d3 f7 e7 0a  	fsub.d	fa5, fa5, fa4
   154b6: e3 1a f6 fc  	bne	a2, a5, 0x1548a <_vfprintf_r+0xfca>
   154ba: 17 c7 ff ff  	auipc	a4, 0xffffc
   154be: 07 37 67 b3  	fld	fa4, -0x4ca(a4)
   154c2: 53 17 f7 a2  	flt.d	a4, fa4, fa5
   154c6: e3 0b 07 5c  	beqz	a4, 0x1629c <_vfprintf_r+0x1ddc>
   154ca: c2 ed        	sd	a6, 0xd8(sp)
   154cc: 83 c6 f7 ff  	lbu	a3, -0x1(a5)
   154d0: 03 c6 f5 00  	lbu	a2, 0xf(a1)
   154d4: 3e 87        	mv	a4, a5
   154d6: 63 9e c6 00  	bne	a3, a2, 0x154f2 <_vfprintf_r+0x1032>
   154da: 13 05 00 03  	li	a0, 0x30
   154de: a3 0f a7 fe  	sb	a0, -0x1(a4)
   154e2: 6e 67        	ld	a4, 0xd8(sp)
   154e4: 93 06 f7 ff  	addi	a3, a4, -0x1
   154e8: b6 ed        	sd	a3, 0xd8(sp)
   154ea: 83 46 f7 ff  	lbu	a3, -0x1(a4)
   154ee: e3 08 d6 fe  	beq	a2, a3, 0x154de <_vfprintf_r+0x101e>
   154f2: 1b 86 16 00  	addiw	a2, a3, 0x1
   154f6: 13 05 90 03  	li	a0, 0x39
   154fa: 13 76 f6 0f  	andi	a2, a2, 0xff
   154fe: 63 82 a6 70  	beq	a3, a0, 0x15c02 <_vfprintf_r+0x1742>
   15502: a3 0f c7 fe  	sb	a2, -0x1(a4)
   15506: 6a 57        	lw	a4, 0xb8(sp)
   15508: bb 87 a7 41  	subw	a5, a5, s10
   1550c: 93 06 10 06  	li	a3, 0x61
   15510: 3a ec        	sd	a4, 0x18(sp)
   15512: 7d 37        	addiw	a4, a4, -0x1
   15514: 3e f0        	sd	a5, 0x20(sp)
   15516: 3a dd        	sw	a4, 0xb8(sp)
   15518: e3 8f d8 52  	beq	a7, a3, 0x16256 <_vfprintf_r+0x1d96>
   1551c: 13 06 10 04  	li	a2, 0x41
   15520: 93 06 00 05  	li	a3, 0x50
   15524: 63 9b c8 6c  	bne	a7, a2, 0x15bfa <_vfprintf_r+0x173a>
   15528: 05 46        	li	a2, 0x1
   1552a: 23 00 d1 0c  	sb	a3, 0xc0(sp)
   1552e: 93 06 b0 02  	li	a3, 0x2b
   15532: 63 57 07 00  	bgez	a4, 0x15540 <_vfprintf_r+0x1080>
   15536: e2 67        	ld	a5, 0x18(sp)
   15538: 05 47        	li	a4, 0x1
   1553a: 93 06 d0 02  	li	a3, 0x2d
   1553e: 1d 9f        	subw	a4, a4, a5
   15540: a3 00 d1 0c  	sb	a3, 0xc1(sp)
   15544: a5 46        	li	a3, 0x9
   15546: e3 d4 e6 36  	bge	a3, a4, 0x160ae <_vfprintf_r+0x1bee>
   1554a: 13 08 f1 0d  	addi	a6, sp, 0xdf
   1554e: c2 8e        	mv	t4, a6
   15550: 29 4f        	li	t5, 0xa
   15552: 93 0f 30 06  	li	t6, 0x63
   15556: bb 67 e7 03  	remw	a5, a4, t5
   1555a: 76 85        	mv	a0, t4
   1555c: ba 86        	mv	a3, a4
   1555e: fd 1e        	addi	t4, t4, -0x1
   15560: 9b 87 07 03  	addiw	a5, a5, 0x30
   15564: a3 0f f5 fe  	sb	a5, -0x1(a0)
   15568: 3b 47 e7 03  	divw	a4, a4, t5
   1556c: e3 c5 df fe  	blt	t6, a3, 0x15556 <_vfprintf_r+0x1096>
   15570: 9b 05 07 03  	addiw	a1, a4, 0x30
   15574: a3 8f be fe  	sb	a1, -0x1(t4)
   15578: 13 07 e5 ff  	addi	a4, a0, -0x2
   1557c: e3 7d 07 4f  	bgeu	a4, a6, 0x16276 <_vfprintf_r+0x1db6>
   15580: 93 06 21 0c  	addi	a3, sp, 0xc2
   15584: 83 47 07 00  	lbu	a5, 0x0(a4)
   15588: 05 07        	addi	a4, a4, 0x1
   1558a: 85 06        	addi	a3, a3, 0x1
   1558c: a3 8f f6 fe  	sb	a5, -0x1(a3)
   15590: e3 1a 07 ff  	bne	a4, a6, 0x15584 <_vfprintf_r+0x10c4>
   15594: 9c 13        	addi	a5, sp, 0x1e0
   15596: 33 87 a7 40  	sub	a4, a5, a0
   1559a: 9b 07 37 f0  	addiw	a5, a4, -0xfd
   1559e: be ec        	sd	a5, 0x58(sp)
   155a0: 66 67        	ld	a4, 0x58(sp)
   155a2: 82 77        	ld	a5, 0x20(sp)
   155a4: 05 46        	li	a2, 0x1
   155a6: bb 8b e7 00  	addw	s7, a5, a4
   155aa: 5e 87        	mv	a4, s7
   155ac: e3 54 f6 38  	bge	a2, a5, 0x16134 <_vfprintf_r+0x1c74>
   155b0: 86 67        	ld	a5, 0x40(sp)
   155b2: bb 0b f7 00  	addw	s7, a4, a5
   155b6: 13 c7 fb ff  	not	a4, s7
   155ba: 13 73 f3 bf  	andi	t1, t1, -0x401
   155be: 7d 97        	srai	a4, a4, 0x3f
   155c0: 01 23        	sext.w	t1, t1
   155c2: 33 f7 eb 00  	and	a4, s7, a4
   155c6: 13 63 03 10  	ori	t1, t1, 0x100
   155ca: 9b 0d 07 00  	sext.w	s11, a4
   155ce: 02 f8        	sd	zero, 0x30(sp)
   155d0: 02 f4        	sd	zero, 0x28(sp)
   155d2: 02 ec        	sd	zero, 0x18(sp)
   155d4: 63 1a 0c 62  	bnez	s8, 0x15c08 <_vfprintf_r+0x1748>
   155d8: 03 45 f1 0a  	lbu	a0, 0xaf(sp)
   155dc: 3e 34        	fld	fs0, 0x1e8(sp)
   155de: 01 48        	li	a6, 0x0
   155e0: 63 06 05 88  	beqz	a0, 0x1466c <_vfprintf_r+0x1ac>
   155e4: 6f f0 6f b0  	j	0x148ea <_vfprintf_r+0x42a>
   155e8: fd 5d        	li	s11, -0x1
   155ea: 32 8b        	mv	s6, a2
   155ec: 6f f0 4f 80  	j	0x145f0 <_vfprintf_r+0x130>
   155f0: 97 b7 ff ff  	auipc	a5, 0xffffb
   155f4: 93 87 07 d0  	addi	a5, a5, -0x300
   155f8: 62 83        	mv	t1, s8
   155fa: 6e 88        	mv	a6, s11
   155fc: be e8        	sd	a5, 0x50(sp)
   155fe: a2 66        	ld	a3, 0x8(sp)
   15600: 93 77 03 02  	andi	a5, t1, 0x20
   15604: 13 87 86 00  	addi	a4, a3, 0x8
   15608: 63 89 07 12  	beqz	a5, 0x1573a <_vfprintf_r+0x127a>
   1560c: 83 bb 06 00  	ld	s7, 0x0(a3)
   15610: 93 77 13 00  	andi	a5, t1, 0x1
   15614: 81 cf        	beqz	a5, 0x1562c <_vfprintf_r+0x116c>
   15616: 63 8b 0b 00  	beqz	s7, 0x1562c <_vfprintf_r+0x116c>
   1561a: 13 63 23 00  	ori	t1, t1, 0x2
   1561e: 93 07 00 03  	li	a5, 0x30
   15622: 23 08 f1 0a  	sb	a5, 0xb0(sp)
   15626: a3 08 11 0b  	sb	a7, 0xb1(sp)
   1562a: 01 23        	sext.w	t1, t1
   1562c: 93 7d f3 bf  	andi	s11, t1, -0x401
   15630: 81 2d        	sext.w	s11, s11
   15632: 3a e4        	sd	a4, 0x8(sp)
   15634: 89 47        	li	a5, 0x2
   15636: 6f f0 2f e3  	j	0x14c68 <_vfprintf_r+0x7a8>
   1563a: 6e 88        	mv	a6, s11
   1563c: e2 8d        	mv	s11, s8
   1563e: 6f f0 8f e7  	j	0x14cb6 <_vfprintf_r+0x7f6>
   15642: 13 63 0c 20  	ori	t1, s8, 0x200
   15646: 83 48 1b 00  	lbu	a7, 0x1(s6)
   1564a: 1b 0c 03 00  	sext.w	s8, t1
   1564e: 05 0b        	addi	s6, s6, 0x1
   15650: 6f e0 df f9  	j	0x145ec <_vfprintf_r+0x12c>
   15654: 13 63 0c 02  	ori	t1, s8, 0x20
   15658: 83 48 1b 00  	lbu	a7, 0x1(s6)
   1565c: 1b 0c 03 00  	sext.w	s8, t1
   15660: 05 0b        	addi	s6, s6, 0x1
   15662: 6f e0 bf f8  	j	0x145ec <_vfprintf_r+0x12c>
   15666: 90 11        	addi	a2, sp, 0xe0
   15668: ce 85        	mv	a1, s3
   1566a: 26 85        	mv	a0, s1
   1566c: 1a ec        	sd	t1, 0x18(sp)
   1566e: ef 00 90 64  	jal	0x164b6 <__sprint_r>
   15672: 63 11 05 9a  	bnez	a0, 0x14814 <_vfprintf_r+0x354>
   15676: 4e 76        	ld	a2, 0xf0(sp)
   15678: 62 63        	ld	t1, 0x18(sp)
   1567a: 56 84        	mv	s0, s5
   1567c: 6f f0 af f3  	j	0x14db6 <_vfprintf_r+0x8f6>
   15680: 97 b7 ff ff  	auipc	a5, 0xffffb
   15684: 93 87 07 f8  	addi	a5, a5, -0x80
   15688: 62 83        	mv	t1, s8
   1568a: 6e 88        	mv	a6, s11
   1568c: be e8        	sd	a5, 0x50(sp)
   1568e: 85 bf        	j	0x155fe <_vfprintf_r+0x113e>
   15690: 62 83        	mv	t1, s8
   15692: 6e 88        	mv	a6, s11
   15694: 6f f0 8f db  	j	0x14c4c <_vfprintf_r+0x78c>
   15698: 99 47        	li	a5, 0x6
   1569a: 6e 87        	mv	a4, s11
   1569c: 63 e0 b7 45  	bltu	a5, s11, 0x15adc <_vfprintf_r+0x161c>
   156a0: 9b 0d 07 00  	sext.w	s11, a4
   156a4: 62 e4        	sd	s8, 0x8(sp)
   156a6: 02 e8        	sd	zero, 0x10(sp)
   156a8: ee 8b        	mv	s7, s11
   156aa: 01 45        	li	a0, 0x0
   156ac: 01 48        	li	a6, 0x0
   156ae: 02 f8        	sd	zero, 0x30(sp)
   156b0: 02 f4        	sd	zero, 0x28(sp)
   156b2: 02 ec        	sd	zero, 0x18(sp)
   156b4: 17 bd ff ff  	auipc	s10, 0xffffb
   156b8: 13 0d cd f8  	addi	s10, s10, -0x74
   156bc: 6f e0 1f fb  	j	0x1466c <_vfprintf_r+0x1ac>
   156c0: 21 46        	li	a2, 0x8
   156c2: 81 45        	li	a1, 0x0
   156c4: a8 09        	addi	a0, sp, 0xd8
   156c6: 46 ec        	sd	a7, 0x18(sp)
   156c8: 1a e8        	sd	t1, 0x10(sp)
   156ca: ef 60 d0 79  	jal	0x1c666 <memset>
   156ce: a2 67        	ld	a5, 0x8(sp)
   156d0: 13 0d 81 0f  	addi	s10, sp, 0xf8
   156d4: b4 09        	addi	a3, sp, 0xd8
   156d6: 90 43        	lw	a2, 0x0(a5)
   156d8: ea 85        	mv	a1, s10
   156da: 26 85        	mv	a0, s1
   156dc: ef 20 c0 5f  	jal	0x17cd8 <_wcrtomb_r>
   156e0: 9b 0b 05 00  	sext.w	s7, a0
   156e4: 7d 57        	li	a4, -0x1
   156e6: 42 63        	ld	t1, 0x10(sp)
   156e8: e2 68        	ld	a7, 0x18(sp)
   156ea: e3 82 eb 3c  	beq	s7, a4, 0x162ae <_vfprintf_r+0x1dee>
   156ee: 13 c7 fb ff  	not	a4, s7
   156f2: 7d 97        	srai	a4, a4, 0x3f
   156f4: 33 f7 eb 00  	and	a4, s7, a4
   156f8: 9b 0d 07 00  	sext.w	s11, a4
   156fc: 6f f0 ef b8  	j	0x14a8a <_vfprintf_r+0x5ca>
   15700: ae 55        	lw	a1, 0xe8(sp)
   15702: 86 67        	ld	a5, 0x40(sp)
   15704: 26 67        	ld	a4, 0x48(sp)
   15706: 1b 85 15 00  	addiw	a0, a1, 0x1
   1570a: 3e 96        	add	a2, a2, a5
   1570c: 18 e0        	sd	a4, 0x0(s0)
   1570e: 1c e4        	sd	a5, 0x8(s0)
   15710: b2 f9        	sd	a2, 0xf0(sp)
   15712: aa d5        	sw	a0, 0xe8(sp)
   15714: 9d 45        	li	a1, 0x7
   15716: 41 04        	addi	s0, s0, 0x10
   15718: e3 db a5 9e  	bge	a1, a0, 0x1510e <_vfprintf_r+0xc4e>
   1571c: 90 11        	addi	a2, sp, 0xe0
   1571e: ce 85        	mv	a1, s3
   15720: 26 85        	mv	a0, s1
   15722: 76 f4        	sd	t4, 0x28(sp)
   15724: 1a ec        	sd	t1, 0x18(sp)
   15726: ef 00 10 59  	jal	0x164b6 <__sprint_r>
   1572a: 63 15 05 8e  	bnez	a0, 0x14814 <_vfprintf_r+0x354>
   1572e: ea 56        	lw	a3, 0xb8(sp)
   15730: 4e 76        	ld	a2, 0xf0(sp)
   15732: a2 7e        	ld	t4, 0x28(sp)
   15734: 62 63        	ld	t1, 0x18(sp)
   15736: 56 84        	mv	s0, s5
   15738: d9 ba        	j	0x1510e <_vfprintf_r+0xc4e>
   1573a: 93 77 03 01  	andi	a5, t1, 0x10
   1573e: f9 cf        	beqz	a5, 0x1581c <_vfprintf_r+0x135c>
   15740: a2 67        	ld	a5, 0x8(sp)
   15742: 83 bb 07 00  	ld	s7, 0x0(a5)
   15746: e9 b5        	j	0x15610 <_vfprintf_r+0x1150>
   15748: 81 4b        	li	s7, 0x0
   1574a: 13 0d c1 15  	addi	s10, sp, 0x15c
   1574e: 6f f0 2f d4  	j	0x14c90 <_vfprintf_r+0x7d0>
   15752: 90 11        	addi	a2, sp, 0xe0
   15754: ce 85        	mv	a1, s3
   15756: 26 85        	mv	a0, s1
   15758: 1a ec        	sd	t1, 0x18(sp)
   1575a: ef 00 d0 55  	jal	0x164b6 <__sprint_r>
   1575e: 63 1b 05 8a  	bnez	a0, 0x14814 <_vfprintf_r+0x354>
   15762: 4e 76        	ld	a2, 0xf0(sp)
   15764: ae 56        	lw	a3, 0xe8(sp)
   15766: 62 63        	ld	t1, 0x18(sp)
   15768: d6 85        	mv	a1, s5
   1576a: 6f f0 0f a8  	j	0x149ea <_vfprintf_r+0x52a>
   1576e: 90 11        	addi	a2, sp, 0xe0
   15770: ce 85        	mv	a1, s3
   15772: 26 85        	mv	a0, s1
   15774: 1a ec        	sd	t1, 0x18(sp)
   15776: ef 00 10 54  	jal	0x164b6 <__sprint_r>
   1577a: 63 1d 05 88  	bnez	a0, 0x14814 <_vfprintf_r+0x354>
   1577e: 4e 76        	ld	a2, 0xf0(sp)
   15780: ae 56        	lw	a3, 0xe8(sp)
   15782: 62 63        	ld	t1, 0x18(sp)
   15784: d6 85        	mv	a1, s5
   15786: 6f f0 cf a4  	j	0x149d2 <_vfprintf_r+0x512>
   1578a: 13 0c c1 15  	addi	s8, sp, 0x15c
   1578e: 66 7e        	ld	t3, 0x78(sp)
   15790: 93 fe 0d 40  	andi	t4, s11, 0x400
   15794: 81 46        	li	a3, 0x0
   15796: e2 85        	mv	a1, s8
   15798: 29 47        	li	a4, 0xa
   1579a: 25 43        	li	t1, 0x9
   1579c: 13 0f f0 0f  	li	t5, 0xff
   157a0: 39 a0        	j	0x157ae <_vfprintf_r+0x12ee>
   157a2: b3 d7 eb 02  	divu	a5, s7, a4
   157a6: 63 77 73 03  	bgeu	t1, s7, 0x157d4 <_vfprintf_r+0x1314>
   157aa: be 8b        	mv	s7, a5
   157ac: ea 85        	mv	a1, s10
   157ae: 13 8d f5 ff  	addi	s10, a1, -0x1
   157b2: 85 26        	addiw	a3, a3, 0x1
   157b4: b3 f7 eb 02  	remu	a5, s7, a4
   157b8: 9b 87 07 03  	addiw	a5, a5, 0x30
   157bc: a3 8f f5 fe  	sb	a5, -0x1(a1)
   157c0: e3 81 0e fe  	beqz	t4, 0x157a2 <_vfprintf_r+0x12e2>
   157c4: 83 47 0e 00  	lbu	a5, 0x0(t3)
   157c8: e3 9d f6 fc  	bne	a3, a5, 0x157a2 <_vfprintf_r+0x12e2>
   157cc: e3 8b e7 fd  	beq	a5, t5, 0x157a2 <_vfprintf_r+0x12e2>
   157d0: 63 60 73 5f  	bltu	t1, s7, 0x15db0 <_vfprintf_r+0x18f0>
   157d4: 36 f0        	sd	a3, 0x20(sp)
   157d6: f2 fc        	sd	t3, 0x78(sp)
   157d8: bb 0b ac 41  	subw	s7, s8, s10
   157dc: 6e 83        	mv	t1, s11
   157de: 6f f0 2f cb  	j	0x14c90 <_vfprintf_r+0x7d0>
   157e2: 90 11        	addi	a2, sp, 0xe0
   157e4: ce 85        	mv	a1, s3
   157e6: 26 85        	mv	a0, s1
   157e8: 42 ed        	sd	a6, 0x98(sp)
   157ea: 46 e9        	sd	a7, 0x90(sp)
   157ec: 1a e5        	sd	t1, 0x88(sp)
   157ee: fe f4        	sd	t6, 0x68(sp)
   157f0: 96 f0        	sd	t0, 0x60(sp)
   157f2: ef 00 50 4c  	jal	0x164b6 <__sprint_r>
   157f6: 19 c1        	beqz	a0, 0x157fc <_vfprintf_r+0x133c>
   157f8: 6f f0 cf 81  	j	0x14814 <_vfprintf_r+0x354>
   157fc: 03 45 f1 0a  	lbu	a0, 0xaf(sp)
   15800: 4e 76        	ld	a2, 0xf0(sp)
   15802: 6a 68        	ld	a6, 0x98(sp)
   15804: ca 68        	ld	a7, 0x90(sp)
   15806: 2a 63        	ld	t1, 0x88(sp)
   15808: a6 7f        	ld	t6, 0x68(sp)
   1580a: 86 72        	ld	t0, 0x60(sp)
   1580c: 56 84        	mv	s0, s5
   1580e: 6f e0 bf e7  	j	0x14688 <_vfprintf_r+0x1c8>
   15812: 26 85        	mv	a0, s1
   15814: ef d0 1f e0  	jal	0x13614 <__sinit>
   15818: 6f e0 bf ce  	j	0x14502 <_vfprintf_r+0x42>
   1581c: a2 66        	ld	a3, 0x8(sp)
   1581e: 93 77 03 04  	andi	a5, t1, 0x40
   15822: 83 ab 06 00  	lw	s7, 0x0(a3)
   15826: 63 88 07 24  	beqz	a5, 0x15a76 <_vfprintf_r+0x15b6>
   1582a: c2 1b        	slli	s7, s7, 0x30
   1582c: 93 db 0b 03  	srli	s7, s7, 0x30
   15830: c5 b3        	j	0x15610 <_vfprintf_r+0x1150>
   15832: 93 07 80 07  	li	a5, 0x78
   15836: 13 07 00 03  	li	a4, 0x30
   1583a: 93 6b 23 00  	ori	s7, t1, 0x2
   1583e: a3 08 f1 0a  	sb	a5, 0xb1(sp)
   15842: 23 08 e1 0a  	sb	a4, 0xb0(sp)
   15846: 93 07 30 06  	li	a5, 0x63
   1584a: 81 2b        	sext.w	s7, s7
   1584c: 63 cb 07 33  	blt	a5, a6, 0x15b82 <_vfprintf_r+0x16c2>
   15850: e2 77        	ld	a5, 0x38(sp)
   15852: 13 63 23 10  	ori	t1, t1, 0x102
   15856: 9b 0e 03 00  	sext.w	t4, t1
   1585a: 63 c3 07 6a  	bltz	a5, 0x15f00 <_vfprintf_r+0x1a40>
   1585e: 62 34        	fld	fs0, 0x38(sp)
   15860: 9b 86 f8 fb  	addiw	a3, a7, -0x41
   15864: 5e 83        	mv	t1, s7
   15866: 01 4c        	li	s8, 0x0
   15868: 02 e8        	sd	zero, 0x10(sp)
   1586a: 13 0d 81 0f  	addi	s10, sp, 0xf8
   1586e: 71 b6        	j	0x153fa <_vfprintf_r+0xf3a>
   15870: 90 11        	addi	a2, sp, 0xe0
   15872: ce 85        	mv	a1, s3
   15874: 26 85        	mv	a0, s1
   15876: 1a ec        	sd	t1, 0x18(sp)
   15878: ef 00 f0 43  	jal	0x164b6 <__sprint_r>
   1587c: 19 c1        	beqz	a0, 0x15882 <_vfprintf_r+0x13c2>
   1587e: 6f e0 7f f9  	j	0x14814 <_vfprintf_r+0x354>
   15882: 4e 76        	ld	a2, 0xf0(sp)
   15884: 62 63        	ld	t1, 0x18(sp)
   15886: 56 84        	mv	s0, s5
   15888: 6f f0 6f d0  	j	0x14d8e <_vfprintf_r+0x8ce>
   1588c: 21 46        	li	a2, 0x8
   1588e: 81 45        	li	a1, 0x0
   15890: 88 09        	addi	a0, sp, 0xd0
   15892: 42 ec        	sd	a6, 0x18(sp)
   15894: 46 e8        	sd	a7, 0x10(sp)
   15896: 1a e4        	sd	t1, 0x8(sp)
   15898: ea ed        	sd	s10, 0xd8(sp)
   1589a: ef 60 d0 5c  	jal	0x1c666 <memset>
   1589e: 62 68        	ld	a6, 0x18(sp)
   158a0: 22 63        	ld	t1, 0x8(sp)
   158a2: c2 68        	ld	a7, 0x10(sp)
   158a4: 63 44 08 54  	bltz	a6, 0x15dec <_vfprintf_r+0x192c>
   158a8: 81 4d        	li	s11, 0x0
   158aa: 81 4b        	li	s7, 0x0
   158ac: 5a e4        	sd	s6, 0x8(sp)
   158ae: 1a e8        	sd	t1, 0x10(sp)
   158b0: 6e 8b        	mv	s6, s11
   158b2: 46 ec        	sd	a7, 0x18(sp)
   158b4: ea 8d        	mv	s11, s10
   158b6: 4e 8d        	mv	s10, s3
   158b8: de 89        	mv	s3, s7
   158ba: a2 8b        	mv	s7, s0
   158bc: 42 84        	mv	s0, a6
   158be: 1d a0        	j	0x158e4 <_vfprintf_r+0x1424>
   158c0: 94 09        	addi	a3, sp, 0xd0
   158c2: ac 19        	addi	a1, sp, 0xf8
   158c4: 26 85        	mv	a0, s1
   158c6: ef 20 20 41  	jal	0x17cd8 <_wcrtomb_r>
   158ca: 9b 07 05 00  	sext.w	a5, a0
   158ce: 7d 57        	li	a4, -0x1
   158d0: e3 84 e7 04  	beq	a5, a4, 0x16118 <_vfprintf_r+0x1c58>
   158d4: bb 87 f9 00  	addw	a5, s3, a5
   158d8: 63 4a f4 00  	blt	s0, a5, 0x158ec <_vfprintf_r+0x142c>
   158dc: 11 0b        	addi	s6, s6, 0x4
   158de: e3 8d 87 08  	beq	a5, s0, 0x16178 <_vfprintf_r+0x1cb8>
   158e2: be 89        	mv	s3, a5
   158e4: ee 67        	ld	a5, 0xd8(sp)
   158e6: da 97        	add	a5, a5, s6
   158e8: 90 43        	lw	a2, 0x0(a5)
   158ea: 79 fa        	bnez	a2, 0x158c0 <_vfprintf_r+0x1400>
   158ec: 22 6b        	ld	s6, 0x8(sp)
   158ee: 42 63        	ld	t1, 0x10(sp)
   158f0: e2 68        	ld	a7, 0x18(sp)
   158f2: 5e 84        	mv	s0, s7
   158f4: ce 8b        	mv	s7, s3
   158f6: ea 89        	mv	s3, s10
   158f8: 6e 8d        	mv	s10, s11
   158fa: 63 8b 0b 50  	beqz	s7, 0x15e10 <_vfprintf_r+0x1950>
   158fe: 93 07 30 06  	li	a5, 0x63
   15902: 63 d5 77 77  	bge	a5, s7, 0x1606c <_vfprintf_r+0x1bac>
   15906: 9b 85 1b 00  	addiw	a1, s7, 0x1
   1590a: 26 85        	mv	a0, s1
   1590c: 46 e8        	sd	a7, 0x10(sp)
   1590e: 1a e4        	sd	t1, 0x8(sp)
   15910: ef e0 0f ca  	jal	0x13db0 <_malloc_r>
   15914: 22 63        	ld	t1, 0x8(sp)
   15916: c2 68        	ld	a7, 0x10(sp)
   15918: 2a 8d        	mv	s10, a0
   1591a: e3 00 05 20  	beqz	a0, 0x1631a <_vfprintf_r+0x1e5a>
   1591e: 2a e8        	sd	a0, 0x10(sp)
   15920: 21 46        	li	a2, 0x8
   15922: 81 45        	li	a1, 0x0
   15924: 88 09        	addi	a0, sp, 0xd0
   15926: 46 ec        	sd	a7, 0x18(sp)
   15928: 1a e4        	sd	t1, 0x8(sp)
   1592a: ef 60 d0 53  	jal	0x1c666 <memset>
   1592e: 98 09        	addi	a4, sp, 0xd0
   15930: de 86        	mv	a3, s7
   15932: b0 09        	addi	a2, sp, 0xd8
   15934: ea 85        	mv	a1, s10
   15936: 26 85        	mv	a0, s1
   15938: ef 20 e0 45  	jal	0x17d96 <_wcsrtombs_r>
   1593c: 22 63        	ld	t1, 0x8(sp)
   1593e: e2 68        	ld	a7, 0x18(sp)
   15940: e3 95 ab 1c  	bne	s7, a0, 0x1630a <_vfprintf_r+0x1e4a>
   15944: 33 06 7d 01  	add	a2, s10, s7
   15948: 23 00 06 00  	sb	zero, 0x0(a2)
   1594c: 13 c7 fb ff  	not	a4, s7
   15950: 03 45 f1 0a  	lbu	a0, 0xaf(sp)
   15954: 7d 97        	srai	a4, a4, 0x3f
   15956: 33 f7 eb 00  	and	a4, s7, a4
   1595a: 62 e4        	sd	s8, 0x8(sp)
   1595c: 02 f8        	sd	zero, 0x30(sp)
   1595e: 02 f4        	sd	zero, 0x28(sp)
   15960: 02 ec        	sd	zero, 0x18(sp)
   15962: 9b 0d 07 00  	sext.w	s11, a4
   15966: 01 48        	li	a6, 0x0
   15968: 19 e1        	bnez	a0, 0x1596e <_vfprintf_r+0x14ae>
   1596a: 6f e0 3f d0  	j	0x1466c <_vfprintf_r+0x1ac>
   1596e: 6f e0 df f7  	j	0x148ea <_vfprintf_r+0x42a>
   15972: da 82        	mv	t0, s6
   15974: 62 6b        	ld	s6, 0x18(sp)
   15976: 62 83        	mv	t1, s8
   15978: 9b 86 17 00  	addiw	a3, a5, 0x1
   1597c: b6 87        	mv	a5, a3
   1597e: 5e 96        	add	a2, a2, s7
   15980: 23 30 54 00  	sd	t0, 0x0(s0)
   15984: 6f e0 ff d6  	j	0x146f2 <_vfprintf_r+0x232>
   15988: da 82        	mv	t0, s6
   1598a: 62 6b        	ld	s6, 0x18(sp)
   1598c: 62 83        	mv	t1, s8
   1598e: 6a 88        	mv	a6, s10
   15990: 85 26        	addiw	a3, a3, 0x1
   15992: 42 96        	add	a2, a2, a6
   15994: 23 b0 55 00  	sd	t0, 0x0(a1)
   15998: 23 b4 05 01  	sd	a6, 0x8(a1)
   1599c: b2 f9        	sd	a2, 0xf0(sp)
   1599e: b6 d5        	sw	a3, 0xe8(sp)
   159a0: 9d 47        	li	a5, 0x7
   159a2: 63 c4 d7 00  	blt	a5, a3, 0x159aa <_vfprintf_r+0x14ea>
   159a6: 6f f0 0f 87  	j	0x14a16 <_vfprintf_r+0x556>
   159aa: 6f f0 7f 81  	j	0x151c0 <_vfprintf_r+0xd00>
   159ae: 2e 55        	lw	a0, 0xe8(sp)
   159b0: 86 67        	ld	a5, 0x40(sp)
   159b2: 26 67        	ld	a4, 0x48(sp)
   159b4: 9b 06 15 00  	addiw	a3, a0, 0x1
   159b8: 3e 96        	add	a2, a2, a5
   159ba: 18 e0        	sd	a4, 0x0(s0)
   159bc: 1c e4        	sd	a5, 0x8(s0)
   159be: b2 f9        	sd	a2, 0xf0(sp)
   159c0: b6 d5        	sw	a3, 0xe8(sp)
   159c2: 1d 45        	li	a0, 0x7
   159c4: 41 04        	addi	s0, s0, 0x10
   159c6: 63 49 d5 18  	blt	a0, a3, 0x15b58 <_vfprintf_r+0x1698>
   159ca: 63 c6 05 64  	bltz	a1, 0x16016 <_vfprintf_r+0x1b56>
   159ce: 82 77        	ld	a5, 0x20(sp)
   159d0: 9b 85 16 00  	addiw	a1, a3, 0x1
   159d4: 23 30 a4 01  	sd	s10, 0x0(s0)
   159d8: 3e 96        	add	a2, a2, a5
   159da: 1c e4        	sd	a5, 0x8(s0)
   159dc: b2 f9        	sd	a2, 0xf0(sp)
   159de: ae d5        	sw	a1, 0xe8(sp)
   159e0: 9d 47        	li	a5, 0x7
   159e2: 63 c4 b7 00  	blt	a5, a1, 0x159ea <_vfprintf_r+0x152a>
   159e6: 6f e0 bf d1  	j	0x14700 <_vfprintf_r+0x240>
   159ea: 6f f0 af 84  	j	0x14a34 <_vfprintf_r+0x574>
   159ee: 41 45        	li	a0, 0x10
   159f0: ae 55        	lw	a1, 0xe8(sp)
   159f2: 97 b2 ff ff  	auipc	t0, 0xffffb
   159f6: 93 82 62 dc  	addi	t0, t0, -0x23a
   159fa: 63 57 75 09  	bge	a0, s7, 0x15a88 <_vfprintf_r+0x15c8>
   159fe: da f0        	sd	s6, 0x60(sp)
   15a00: 41 48        	li	a6, 0x10
   15a02: 9d 48        	li	a7, 0x7
   15a04: 1a 8c        	mv	s8, t1
   15a06: 16 8b        	mv	s6, t0
   15a08: 21 a0        	j	0x15a10 <_vfprintf_r+0x1550>
   15a0a: c1 3b        	addiw	s7, s7, -0x10
   15a0c: 63 5b 78 07  	bge	a6, s7, 0x15a82 <_vfprintf_r+0x15c2>
   15a10: 85 25        	addiw	a1, a1, 0x1
   15a12: 41 06        	addi	a2, a2, 0x10
   15a14: 23 30 64 01  	sd	s6, 0x0(s0)
   15a18: 23 34 04 01  	sd	a6, 0x8(s0)
   15a1c: b2 f9        	sd	a2, 0xf0(sp)
   15a1e: ae d5        	sw	a1, 0xe8(sp)
   15a20: 41 04        	addi	s0, s0, 0x10
   15a22: e3 d4 b8 fe  	bge	a7, a1, 0x15a0a <_vfprintf_r+0x154a>
   15a26: 90 11        	addi	a2, sp, 0xe0
   15a28: ce 85        	mv	a1, s3
   15a2a: 26 85        	mv	a0, s1
   15a2c: ef 00 b0 28  	jal	0x164b6 <__sprint_r>
   15a30: 19 c1        	beqz	a0, 0x15a36 <_vfprintf_r+0x1576>
   15a32: 6f e0 3f de  	j	0x14814 <_vfprintf_r+0x354>
   15a36: 4e 76        	ld	a2, 0xf0(sp)
   15a38: ae 55        	lw	a1, 0xe8(sp)
   15a3a: 56 84        	mv	s0, s5
   15a3c: 9d 48        	li	a7, 0x7
   15a3e: 41 48        	li	a6, 0x10
   15a40: e9 b7        	j	0x15a0a <_vfprintf_r+0x154a>
   15a42: 93 77 03 20  	andi	a5, t1, 0x200
   15a46: cd cb        	beqz	a5, 0x15af8 <_vfprintf_r+0x1638>
   15a48: 9b 9b 8b 01  	slliw	s7, s7, 0x18
   15a4c: 9b db 8b 41  	sraiw	s7, s7, 0x18
   15a50: de 87        	mv	a5, s7
   15a52: 6f f0 4f aa  	j	0x14cf6 <_vfprintf_r+0x836>
   15a56: 93 77 03 20  	andi	a5, t1, 0x200
   15a5a: d1 cb        	beqz	a5, 0x15aee <_vfprintf_r+0x162e>
   15a5c: 93 fb fb 0f  	andi	s7, s7, 0xff
   15a60: 6f f0 ef 9f  	j	0x14c5e <_vfprintf_r+0x79e>
   15a64: 93 f7 0d 20  	andi	a5, s11, 0x200
   15a68: a5 cf        	beqz	a5, 0x15ae0 <_vfprintf_r+0x1620>
   15a6a: 93 fb fb 0f  	andi	s7, s7, 0xff
   15a6e: 3a e4        	sd	a4, 0x8(sp)
   15a70: 85 47        	li	a5, 0x1
   15a72: 6f f0 6f 9f  	j	0x14c68 <_vfprintf_r+0x7a8>
   15a76: 93 77 03 20  	andi	a5, t1, 0x200
   15a7a: d1 c3        	beqz	a5, 0x15afe <_vfprintf_r+0x163e>
   15a7c: 93 fb fb 0f  	andi	s7, s7, 0xff
   15a80: 41 be        	j	0x15610 <_vfprintf_r+0x1150>
   15a82: da 82        	mv	t0, s6
   15a84: 06 7b        	ld	s6, 0x60(sp)
   15a86: 62 83        	mv	t1, s8
   15a88: 1b 85 15 00  	addiw	a0, a1, 0x1
   15a8c: 5e 96        	add	a2, a2, s7
   15a8e: 23 30 54 00  	sd	t0, 0x0(s0)
   15a92: 23 34 74 01  	sd	s7, 0x8(s0)
   15a96: b2 f9        	sd	a2, 0xf0(sp)
   15a98: aa d5        	sw	a0, 0xe8(sp)
   15a9a: 9d 46        	li	a3, 0x7
   15a9c: 41 04        	addi	s0, s0, 0x10
   15a9e: 63 d9 a6 e4  	bge	a3, a0, 0x150f0 <_vfprintf_r+0xc30>
   15aa2: 90 11        	addi	a2, sp, 0xe0
   15aa4: ce 85        	mv	a1, s3
   15aa6: 26 85        	mv	a0, s1
   15aa8: 9a f0        	sd	t1, 0x60(sp)
   15aaa: ef 00 d0 20  	jal	0x164b6 <__sprint_r>
   15aae: 19 c1        	beqz	a0, 0x15ab4 <_vfprintf_r+0x15f4>
   15ab0: 6f e0 5f d6  	j	0x14814 <_vfprintf_r+0x354>
   15ab4: 4e 76        	ld	a2, 0xf0(sp)
   15ab6: 06 73        	ld	t1, 0x60(sp)
   15ab8: 56 84        	mv	s0, s5
   15aba: 6f f0 6f e3  	j	0x150f0 <_vfprintf_r+0xc30>
   15abe: 90 11        	addi	a2, sp, 0xe0
   15ac0: ce 85        	mv	a1, s3
   15ac2: 26 85        	mv	a0, s1
   15ac4: 1a ec        	sd	t1, 0x18(sp)
   15ac6: ef 00 10 1f  	jal	0x164b6 <__sprint_r>
   15aca: 19 c1        	beqz	a0, 0x15ad0 <_vfprintf_r+0x1610>
   15acc: 6f e0 9f d4  	j	0x14814 <_vfprintf_r+0x354>
   15ad0: ea 55        	lw	a1, 0xb8(sp)
   15ad2: 4e 76        	ld	a2, 0xf0(sp)
   15ad4: 62 63        	ld	t1, 0x18(sp)
   15ad6: 56 84        	mv	s0, s5
   15ad8: 6f f0 7f 81  	j	0x152ee <_vfprintf_r+0xe2e>
   15adc: 19 47        	li	a4, 0x6
   15ade: c9 b6        	j	0x156a0 <_vfprintf_r+0x11e0>
   15ae0: 82 1b        	slli	s7, s7, 0x20
   15ae2: 93 db 0b 02  	srli	s7, s7, 0x20
   15ae6: 3a e4        	sd	a4, 0x8(sp)
   15ae8: 85 47        	li	a5, 0x1
   15aea: 6f f0 ef 97  	j	0x14c68 <_vfprintf_r+0x7a8>
   15aee: 82 1b        	slli	s7, s7, 0x20
   15af0: 93 db 0b 02  	srli	s7, s7, 0x20
   15af4: 6f f0 af 96  	j	0x14c5e <_vfprintf_r+0x79e>
   15af8: de 87        	mv	a5, s7
   15afa: 6f f0 cf 9f  	j	0x14cf6 <_vfprintf_r+0x836>
   15afe: 82 1b        	slli	s7, s7, 0x20
   15b00: 93 db 0b 02  	srli	s7, s7, 0x20
   15b04: 31 b6        	j	0x15610 <_vfprintf_r+0x1150>
   15b06: 82 67        	ld	a5, 0x0(sp)
   15b08: 23 10 f7 00  	sh	a5, 0x0(a4)
   15b0c: 6f f0 4f 83  	j	0x14b40 <_vfprintf_r+0x680>
   15b10: 90 11        	addi	a2, sp, 0xe0
   15b12: ce 85        	mv	a1, s3
   15b14: 26 85        	mv	a0, s1
   15b16: ef 00 10 1a  	jal	0x164b6 <__sprint_r>
   15b1a: 19 e1        	bnez	a0, 0x15b20 <_vfprintf_r+0x1660>
   15b1c: 6f e0 3f cd  	j	0x147ee <_vfprintf_r+0x32e>
   15b20: 6f e0 1f d0  	j	0x14820 <_vfprintf_r+0x360>
   15b24: 6a 85        	mv	a0, s10
   15b26: 9a f0        	sd	t1, 0x60(sp)
   15b28: ef 60 f0 52  	jal	0x1c856 <strlen>
   15b2c: 9b 0b 05 00  	sext.w	s7, a0
   15b30: 03 45 f1 0a  	lbu	a0, 0xaf(sp)
   15b34: 13 c7 fb ff  	not	a4, s7
   15b38: 7d 97        	srai	a4, a4, 0x3f
   15b3a: 62 e4        	sd	s8, 0x8(sp)
   15b3c: 02 f8        	sd	zero, 0x30(sp)
   15b3e: 02 f4        	sd	zero, 0x28(sp)
   15b40: 02 e8        	sd	zero, 0x10(sp)
   15b42: 06 73        	ld	t1, 0x60(sp)
   15b44: b3 7d 77 01  	and	s11, a4, s7
   15b48: 01 48        	li	a6, 0x0
   15b4a: 93 08 30 07  	li	a7, 0x73
   15b4e: 19 e1        	bnez	a0, 0x15b54 <_vfprintf_r+0x1694>
   15b50: 6f e0 df b1  	j	0x1466c <_vfprintf_r+0x1ac>
   15b54: 6f e0 7f d9  	j	0x148ea <_vfprintf_r+0x42a>
   15b58: 90 11        	addi	a2, sp, 0xe0
   15b5a: ce 85        	mv	a1, s3
   15b5c: 26 85        	mv	a0, s1
   15b5e: 1a ec        	sd	t1, 0x18(sp)
   15b60: ef 00 70 15  	jal	0x164b6 <__sprint_r>
   15b64: 19 c1        	beqz	a0, 0x15b6a <_vfprintf_r+0x16aa>
   15b66: 6f e0 ff ca  	j	0x14814 <_vfprintf_r+0x354>
   15b6a: ea 55        	lw	a1, 0xb8(sp)
   15b6c: 4e 76        	ld	a2, 0xf0(sp)
   15b6e: ae 56        	lw	a3, 0xe8(sp)
   15b70: 62 63        	ld	t1, 0x18(sp)
   15b72: 56 84        	mv	s0, s5
   15b74: 99 bd        	j	0x159ca <_vfprintf_r+0x150a>
   15b76: 03 b5 09 0a  	ld	a0, 0xa0(s3)
   15b7a: ef 60 90 21  	jal	0x1c592 <__retarget_lock_release_recursive>
   15b7e: 6f e0 df bf  	j	0x1477a <_vfprintf_r+0x2ba>
   15b82: 9b 05 18 00  	addiw	a1, a6, 0x1
   15b86: 26 85        	mv	a0, s1
   15b88: 46 ec        	sd	a7, 0x18(sp)
   15b8a: 42 e8        	sd	a6, 0x10(sp)
   15b8c: ef e0 4f a2  	jal	0x13db0 <_malloc_r>
   15b90: 42 68        	ld	a6, 0x10(sp)
   15b92: e2 68        	ld	a7, 0x18(sp)
   15b94: 2a 8d        	mv	s10, a0
   15b96: 63 01 05 76  	beqz	a0, 0x162f8 <_vfprintf_r+0x1e38>
   15b9a: 2a e8        	sd	a0, 0x10(sp)
   15b9c: 5e 83        	mv	t1, s7
   15b9e: 6f f0 df 83  	j	0x153da <_vfprintf_r+0xf1a>
   15ba2: 53 05 84 22  	fmv.d	fa0, fs0
   15ba6: 98 09        	addi	a4, sp, 0xd0
   15ba8: 42 86        	mv	a2, a6
   15baa: bc 09        	addi	a5, sp, 0xd8
   15bac: 34 19        	addi	a3, sp, 0xb8
   15bae: 89 45        	li	a1, 0x2
   15bb0: 26 85        	mv	a0, s1
   15bb2: 76 f8        	sd	t4, 0x30(sp)
   15bb4: 46 f4        	sd	a7, 0x28(sp)
   15bb6: 1a f0        	sd	t1, 0x20(sp)
   15bb8: 42 ec        	sd	a6, 0x18(sp)
   15bba: ef 20 80 4a  	jal	0x18062 <_dtoa_r>
   15bbe: a2 78        	ld	a7, 0x28(sp)
   15bc0: 13 07 70 04  	li	a4, 0x47
   15bc4: 62 68        	ld	a6, 0x18(sp)
   15bc6: 02 73        	ld	t1, 0x20(sp)
   15bc8: c2 7e        	ld	t4, 0x30(sp)
   15bca: 2a 8d        	mv	s10, a0
   15bcc: 63 94 e8 72  	bne	a7, a4, 0x162f4 <_vfprintf_r+0x1e34>
   15bd0: 13 77 13 00  	andi	a4, t1, 0x1
   15bd4: 63 17 07 3a  	bnez	a4, 0x15f82 <_vfprintf_r+0x1ac2>
   15bd8: ea 57        	lw	a5, 0xb8(sp)
   15bda: 3e ec        	sd	a5, 0x18(sp)
   15bdc: ee 67        	ld	a5, 0xd8(sp)
   15bde: bb 87 a7 41  	subw	a5, a5, s10
   15be2: 3e f0        	sd	a5, 0x20(sp)
   15be4: e2 67        	ld	a5, 0x18(sp)
   15be6: 75 57        	li	a4, -0x3
   15be8: 63 c4 e7 00  	blt	a5, a4, 0x15bf0 <_vfprintf_r+0x1730>
   15bec: 63 59 f8 2c  	bge	a6, a5, 0x15ebe <_vfprintf_r+0x19fe>
   15bf0: e2 67        	ld	a5, 0x18(sp)
   15bf2: f9 38        	addiw	a7, a7, -0x2
   15bf4: 1b 87 f7 ff  	addiw	a4, a5, -0x1
   15bf8: 3a dd        	sw	a4, 0xb8(sp)
   15bfa: 93 f6 f8 0f  	andi	a3, a7, 0xff
   15bfe: 01 46        	li	a2, 0x0
   15c00: 2d b2        	j	0x1552a <_vfprintf_r+0x106a>
   15c02: 03 c6 a5 00  	lbu	a2, 0xa(a1)
   15c06: f5 b8        	j	0x15502 <_vfprintf_r+0x1042>
   15c08: 13 06 d0 02  	li	a2, 0x2d
   15c0c: 3e 34        	fld	fs0, 0x1e8(sp)
   15c0e: a3 07 c1 0a  	sb	a2, 0xaf(sp)
   15c12: 13 05 d0 02  	li	a0, 0x2d
   15c16: 01 48        	li	a6, 0x0
   15c18: 85 2d        	addiw	s11, s11, 0x1
   15c1a: 6f e0 3f a5  	j	0x1466c <_vfprintf_r+0x1ac>
   15c1e: 93 07 d0 02  	li	a5, 0x2d
   15c22: a3 07 f1 0a  	sb	a5, 0xaf(sp)
   15c26: 13 05 d0 02  	li	a0, 0x2d
   15c2a: 6f e0 1f c9  	j	0x148ba <_vfprintf_r+0x3fa>
   15c2e: 82 77        	ld	a5, 0x20(sp)
   15c30: da f0        	sd	s6, 0x60(sp)
   15c32: 22 7b        	ld	s6, 0x28(sp)
   15c34: ea 97        	add	a5, a5, s10
   15c36: 3e ec        	sd	a5, 0x18(sp)
   15c38: 66 e5        	sd	s9, 0x88(sp)
   15c3a: 6e e9        	sd	s11, 0x90(sp)
   15c3c: a2 87        	mv	a5, s0
   15c3e: 9a f4        	sd	t1, 0x68(sp)
   15c40: 42 74        	ld	s0, 0x30(sp)
   15c42: 6a f8        	sd	s10, 0x30(sp)
   15c44: e6 7d        	ld	s11, 0x78(sp)
   15c46: 0a 6d        	ld	s10, 0x80(sp)
   15c48: 1d 48        	li	a6, 0x7
   15c4a: c1 46        	li	a3, 0x10
   15c4c: 97 bb ff ff  	auipc	s7, 0xffffb
   15c50: 93 8b cb b6  	addi	s7, s7, -0x494
   15c54: f6 8c        	mv	s9, t4
   15c56: 63 5f 60 07  	blez	s6, 0x15cd4 <_vfprintf_r+0x1814>
   15c5a: 63 5a 80 10  	blez	s0, 0x15d6e <_vfprintf_r+0x18ae>
   15c5e: 7d 34        	addiw	s0, s0, -0x1
   15c60: 2e 57        	lw	a4, 0xe8(sp)
   15c62: c6 75        	ld	a1, 0x70(sp)
   15c64: 6a 96        	add	a2, a2, s10
   15c66: 23 b4 a7 01  	sd	s10, 0x8(a5)
   15c6a: 8c e3        	sd	a1, 0x0(a5)
   15c6c: 9b 05 17 00  	addiw	a1, a4, 0x1
   15c70: b2 f9        	sd	a2, 0xf0(sp)
   15c72: ae d5        	sw	a1, 0xe8(sp)
   15c74: c1 07        	addi	a5, a5, 0x10
   15c76: 63 4f b8 0e  	blt	a6, a1, 0x15d74 <_vfprintf_r+0x18b4>
   15c7a: 62 67        	ld	a4, 0x18(sp)
   15c7c: 83 c5 0d 00  	lbu	a1, 0x0(s11)
   15c80: 33 0f 97 41  	sub	t5, a4, s9
   15c84: 1b 05 0f 00  	sext.w	a0, t5
   15c88: 1b 87 05 00  	sext.w	a4, a1
   15c8c: 63 d3 a5 00  	bge	a1, a0, 0x15c92 <_vfprintf_r+0x17d2>
   15c90: 3a 8f        	mv	t5, a4
   15c92: 1b 0c 0f 00  	sext.w	s8, t5
   15c96: 63 53 80 03  	blez	s8, 0x15cbc <_vfprintf_r+0x17fc>
   15c9a: 2e 57        	lw	a4, 0xe8(sp)
   15c9c: 62 96        	add	a2, a2, s8
   15c9e: 23 b0 97 01  	sd	s9, 0x0(a5)
   15ca2: 9b 05 17 00  	addiw	a1, a4, 0x1
   15ca6: 23 b4 87 01  	sd	s8, 0x8(a5)
   15caa: b2 f9        	sd	a2, 0xf0(sp)
   15cac: ae d5        	sw	a1, 0xe8(sp)
   15cae: 63 40 b8 0e  	blt	a6, a1, 0x15d8e <_vfprintf_r+0x18ce>
   15cb2: 83 c5 0d 00  	lbu	a1, 0x0(s11)
   15cb6: c1 07        	addi	a5, a5, 0x10
   15cb8: 1b 87 05 00  	sext.w	a4, a1
   15cbc: 13 45 fc ff  	not	a0, s8
   15cc0: 7d 95        	srai	a0, a0, 0x3f
   15cc2: 33 7f ac 00  	and	t5, s8, a0
   15cc6: 3b 0c e7 41  	subw	s8, a4, t5
   15cca: 63 47 80 03  	bgtz	s8, 0x15cf8 <_vfprintf_r+0x1838>
   15cce: ae 9c        	add	s9, s9, a1
   15cd0: e3 45 60 f9  	bgtz	s6, 0x15c5a <_vfprintf_r+0x179a>
   15cd4: e3 45 80 f8  	bgtz	s0, 0x15c5e <_vfprintf_r+0x179e>
   15cd8: 42 7d        	ld	s10, 0x30(sp)
   15cda: 3e 84        	mv	s0, a5
   15cdc: 82 77        	ld	a5, 0x20(sp)
   15cde: e6 8e        	mv	t4, s9
   15ce0: ee fc        	sd	s11, 0x78(sp)
   15ce2: b3 06 fd 00  	add	a3, s10, a5
   15ce6: 06 7b        	ld	s6, 0x60(sp)
   15ce8: 26 73        	ld	t1, 0x68(sp)
   15cea: aa 6c        	ld	s9, 0x88(sp)
   15cec: ca 6d        	ld	s11, 0x90(sp)
   15cee: 63 f8 d6 c1  	bgeu	a3, t4, 0x150fe <_vfprintf_r+0xc3e>
   15cf2: b6 8e        	mv	t4, a3
   15cf4: 6f f0 af c0  	j	0x150fe <_vfprintf_r+0xc3e>
   15cf8: ae 55        	lw	a1, 0xe8(sp)
   15cfa: 17 bf ff ff  	auipc	t5, 0xffffb
   15cfe: 13 0f ef ab  	addi	t5, t5, -0x542
   15d02: 63 d6 86 05  	bge	a3, s8, 0x15d4e <_vfprintf_r+0x188e>
   15d06: 22 f4        	sd	s0, 0x28(sp)
   15d08: 62 84        	mv	s0, s8
   15d0a: 5e 8c        	mv	s8, s7
   15d0c: 21 a0        	j	0x15d14 <_vfprintf_r+0x1854>
   15d0e: 41 34        	addiw	s0, s0, -0x10
   15d10: 63 dc 86 02  	bge	a3, s0, 0x15d48 <_vfprintf_r+0x1888>
   15d14: 85 25        	addiw	a1, a1, 0x1
   15d16: 41 06        	addi	a2, a2, 0x10
   15d18: 23 b0 77 01  	sd	s7, 0x0(a5)
   15d1c: 94 e7        	sd	a3, 0x8(a5)
   15d1e: b2 f9        	sd	a2, 0xf0(sp)
   15d20: ae d5        	sw	a1, 0xe8(sp)
   15d22: c1 07        	addi	a5, a5, 0x10
   15d24: e3 55 b8 fe  	bge	a6, a1, 0x15d0e <_vfprintf_r+0x184e>
   15d28: 90 11        	addi	a2, sp, 0xe0
   15d2a: ce 85        	mv	a1, s3
   15d2c: 26 85        	mv	a0, s1
   15d2e: ef 00 80 78  	jal	0x164b6 <__sprint_r>
   15d32: 19 c1        	beqz	a0, 0x15d38 <_vfprintf_r+0x1878>
   15d34: 6f e0 1f ae  	j	0x14814 <_vfprintf_r+0x354>
   15d38: c1 46        	li	a3, 0x10
   15d3a: 41 34        	addiw	s0, s0, -0x10
   15d3c: 4e 76        	ld	a2, 0xf0(sp)
   15d3e: ae 55        	lw	a1, 0xe8(sp)
   15d40: d6 87        	mv	a5, s5
   15d42: 1d 48        	li	a6, 0x7
   15d44: e3 c8 86 fc  	blt	a3, s0, 0x15d14 <_vfprintf_r+0x1854>
   15d48: 62 8f        	mv	t5, s8
   15d4a: 22 8c        	mv	s8, s0
   15d4c: 22 74        	ld	s0, 0x28(sp)
   15d4e: 1b 87 15 00  	addiw	a4, a1, 0x1
   15d52: 62 96        	add	a2, a2, s8
   15d54: 23 b0 e7 01  	sd	t5, 0x0(a5)
   15d58: 23 b4 87 01  	sd	s8, 0x8(a5)
   15d5c: b2 f9        	sd	a2, 0xf0(sp)
   15d5e: ba d5        	sw	a4, 0xe8(sp)
   15d60: 63 4c e8 1a  	blt	a6, a4, 0x15f18 <_vfprintf_r+0x1a58>
   15d64: 83 c5 0d 00  	lbu	a1, 0x0(s11)
   15d68: c1 07        	addi	a5, a5, 0x10
   15d6a: ae 9c        	add	s9, s9, a1
   15d6c: 95 b7        	j	0x15cd0 <_vfprintf_r+0x1810>
   15d6e: fd 1d        	addi	s11, s11, -0x1
   15d70: 7d 3b        	addiw	s6, s6, -0x1
   15d72: fd b5        	j	0x15c60 <_vfprintf_r+0x17a0>
   15d74: 90 11        	addi	a2, sp, 0xe0
   15d76: ce 85        	mv	a1, s3
   15d78: 26 85        	mv	a0, s1
   15d7a: ef 00 c0 73  	jal	0x164b6 <__sprint_r>
   15d7e: 19 c1        	beqz	a0, 0x15d84 <_vfprintf_r+0x18c4>
   15d80: 6f e0 5f a9  	j	0x14814 <_vfprintf_r+0x354>
   15d84: 4e 76        	ld	a2, 0xf0(sp)
   15d86: d6 87        	mv	a5, s5
   15d88: c1 46        	li	a3, 0x10
   15d8a: 1d 48        	li	a6, 0x7
   15d8c: fd b5        	j	0x15c7a <_vfprintf_r+0x17ba>
   15d8e: 90 11        	addi	a2, sp, 0xe0
   15d90: ce 85        	mv	a1, s3
   15d92: 26 85        	mv	a0, s1
   15d94: ef 00 20 72  	jal	0x164b6 <__sprint_r>
   15d98: 19 c1        	beqz	a0, 0x15d9e <_vfprintf_r+0x18de>
   15d9a: 6f e0 bf a7  	j	0x14814 <_vfprintf_r+0x354>
   15d9e: 83 c5 0d 00  	lbu	a1, 0x0(s11)
   15da2: 4e 76        	ld	a2, 0xf0(sp)
   15da4: d6 87        	mv	a5, s5
   15da6: 1b 87 05 00  	sext.w	a4, a1
   15daa: c1 46        	li	a3, 0x10
   15dac: 1d 48        	li	a6, 0x7
   15dae: 39 b7        	j	0x15cbc <_vfprintf_r+0x17fc>
   15db0: 8a 67        	ld	a5, 0x80(sp)
   15db2: c6 75        	ld	a1, 0x70(sp)
   15db4: 76 f4        	sd	t4, 0x28(sp)
   15db6: 33 0d fd 40  	sub	s10, s10, a5
   15dba: 3e 86        	mv	a2, a5
   15dbc: 6a 85        	mv	a0, s10
   15dbe: 72 f0        	sd	t3, 0x20(sp)
   15dc0: 42 ec        	sd	a6, 0x18(sp)
   15dc2: 46 e8        	sd	a7, 0x10(sp)
   15dc4: ef 40 00 76  	jal	0x1a524 <strncpy>
   15dc8: 02 7e        	ld	t3, 0x20(sp)
   15dca: a9 47        	li	a5, 0xa
   15dcc: b3 d7 fb 02  	divu	a5, s7, a5
   15dd0: 83 46 1e 00  	lbu	a3, 0x1(t3)
   15dd4: c2 68        	ld	a7, 0x10(sp)
   15dd6: 62 68        	ld	a6, 0x18(sp)
   15dd8: b3 36 d0 00  	snez	a3, a3
   15ddc: 36 9e        	add	t3, t3, a3
   15dde: a2 7e        	ld	t4, 0x28(sp)
   15de0: 81 46        	li	a3, 0x0
   15de2: 29 47        	li	a4, 0xa
   15de4: 25 43        	li	t1, 0x9
   15de6: 13 0f f0 0f  	li	t5, 0xff
   15dea: c1 b2        	j	0x157aa <_vfprintf_r+0x12ea>
   15dec: 98 09        	addi	a4, sp, 0xd0
   15dee: 81 46        	li	a3, 0x0
   15df0: b0 09        	addi	a2, sp, 0xd8
   15df2: 81 45        	li	a1, 0x0
   15df4: 26 85        	mv	a0, s1
   15df6: 46 e8        	sd	a7, 0x10(sp)
   15df8: 1a e4        	sd	t1, 0x8(sp)
   15dfa: ef 10 d0 79  	jal	0x17d96 <_wcsrtombs_r>
   15dfe: 9b 0b 05 00  	sext.w	s7, a0
   15e02: 7d 57        	li	a4, -0x1
   15e04: 22 63        	ld	t1, 0x8(sp)
   15e06: c2 68        	ld	a7, 0x10(sp)
   15e08: 63 89 eb 50  	beq	s7, a4, 0x1631a <_vfprintf_r+0x1e5a>
   15e0c: ea ed        	sd	s10, 0xd8(sp)
   15e0e: f5 b4        	j	0x158fa <_vfprintf_r+0x143a>
   15e10: 03 45 f1 0a  	lbu	a0, 0xaf(sp)
   15e14: 62 e4        	sd	s8, 0x8(sp)
   15e16: 02 f8        	sd	zero, 0x30(sp)
   15e18: 02 f4        	sd	zero, 0x28(sp)
   15e1a: 02 ec        	sd	zero, 0x18(sp)
   15e1c: 02 e8        	sd	zero, 0x10(sp)
   15e1e: 81 4d        	li	s11, 0x0
   15e20: 01 48        	li	a6, 0x0
   15e22: 19 e1        	bnez	a0, 0x15e28 <_vfprintf_r+0x1968>
   15e24: 6f e0 9f 84  	j	0x1466c <_vfprintf_r+0x1ac>
   15e28: 6f e0 3f ac  	j	0x148ea <_vfprintf_r+0x42a>
   15e2c: c2 8b        	mv	s7, a6
   15e2e: 8d 45        	li	a1, 0x3
   15e30: 53 05 84 22  	fmv.d	fa0, fs0
   15e34: bc 09        	addi	a5, sp, 0xd8
   15e36: 98 09        	addi	a4, sp, 0xd0
   15e38: 34 19        	addi	a3, sp, 0xb8
   15e3a: 5e 86        	mv	a2, s7
   15e3c: 26 85        	mv	a0, s1
   15e3e: 76 f8        	sd	t4, 0x30(sp)
   15e40: 42 f4        	sd	a6, 0x28(sp)
   15e42: 46 f0        	sd	a7, 0x20(sp)
   15e44: 1a ec        	sd	t1, 0x18(sp)
   15e46: ef 20 c0 21  	jal	0x18062 <_dtoa_r>
   15e4a: 62 63        	ld	t1, 0x18(sp)
   15e4c: 82 78        	ld	a7, 0x20(sp)
   15e4e: 22 78        	ld	a6, 0x28(sp)
   15e50: c2 7e        	ld	t4, 0x30(sp)
   15e52: 2a 8d        	mv	s10, a0
   15e54: 93 f5 f8 fd  	andi	a1, a7, -0x21
   15e58: 13 07 60 04  	li	a4, 0x46
   15e5c: b3 06 7d 01  	add	a3, s10, s7
   15e60: 63 9a e5 00  	bne	a1, a4, 0x15e74 <_vfprintf_r+0x19b4>
   15e64: 03 46 0d 00  	lbu	a2, 0x0(s10)
   15e68: 13 07 00 03  	li	a4, 0x30
   15e6c: 63 0a e6 2c  	beq	a2, a4, 0x16140 <_vfprintf_r+0x1c80>
   15e70: 6a 56        	lw	a2, 0xb8(sp)
   15e72: b2 96        	add	a3, a3, a2
   15e74: d3 07 00 f2  	fmv.d.x	fa5, zero
   15e78: 53 27 f4 a2  	feq.d	a4, fs0, fa5
   15e7c: 63 13 07 16  	bnez	a4, 0x15fe2 <_vfprintf_r+0x1b22>
   15e80: ee 67        	ld	a5, 0xd8(sp)
   15e82: 63 fc d7 00  	bgeu	a5, a3, 0x15e9a <_vfprintf_r+0x19da>
   15e86: 13 06 00 03  	li	a2, 0x30
   15e8a: 13 87 17 00  	addi	a4, a5, 0x1
   15e8e: ba ed        	sd	a4, 0xd8(sp)
   15e90: 23 80 c7 00  	sb	a2, 0x0(a5)
   15e94: ee 67        	ld	a5, 0xd8(sp)
   15e96: e3 ea d7 fe  	bltu	a5, a3, 0x15e8a <_vfprintf_r+0x19ca>
   15e9a: 6a 57        	lw	a4, 0xb8(sp)
   15e9c: 3a ec        	sd	a4, 0x18(sp)
   15e9e: bb 87 a7 41  	subw	a5, a5, s10
   15ea2: 13 07 70 04  	li	a4, 0x47
   15ea6: 3e f0        	sd	a5, 0x20(sp)
   15ea8: e3 8e e5 d2  	beq	a1, a4, 0x15be4 <_vfprintf_r+0x1724>
   15eac: 13 07 60 04  	li	a4, 0x46
   15eb0: 63 8e e5 0c  	beq	a1, a4, 0x15f8c <_vfprintf_r+0x1acc>
   15eb4: e2 67        	ld	a5, 0x18(sp)
   15eb6: 1b 87 f7 ff  	addiw	a4, a5, -0x1
   15eba: 3a dd        	sw	a4, 0xb8(sp)
   15ebc: 3d bb        	j	0x15bfa <_vfprintf_r+0x173a>
   15ebe: 82 77        	ld	a5, 0x20(sp)
   15ec0: 62 67        	ld	a4, 0x18(sp)
   15ec2: 63 44 f7 12  	blt	a4, a5, 0x15fea <_vfprintf_r+0x1b2a>
   15ec6: e2 67        	ld	a5, 0x18(sp)
   15ec8: 13 77 13 00  	andi	a4, t1, 0x1
   15ecc: be 8b        	mv	s7, a5
   15ece: 01 c7        	beqz	a4, 0x15ed6 <_vfprintf_r+0x1a16>
   15ed0: 06 67        	ld	a4, 0x40(sp)
   15ed2: bb 0b f7 00  	addw	s7, a4, a5
   15ed6: 13 73 03 40  	andi	t1, t1, 0x400
   15eda: 63 05 03 00  	beqz	t1, 0x15ee4 <_vfprintf_r+0x1a24>
   15ede: e2 67        	ld	a5, 0x18(sp)
   15ee0: 63 49 f0 2c  	bgtz	a5, 0x161b2 <_vfprintf_r+0x1cf2>
   15ee4: 13 c7 fb ff  	not	a4, s7
   15ee8: 7d 97        	srai	a4, a4, 0x3f
   15eea: 33 f7 eb 00  	and	a4, s7, a4
   15eee: 9b 0d 07 00  	sext.w	s11, a4
   15ef2: 76 83        	mv	t1, t4
   15ef4: 93 08 70 06  	li	a7, 0x67
   15ef8: 02 f8        	sd	zero, 0x30(sp)
   15efa: 02 f4        	sd	zero, 0x28(sp)
   15efc: 6f f0 8f ed  	j	0x155d4 <_vfprintf_r+0x1114>
   15f00: 5e 83        	mv	t1, s7
   15f02: 02 e8        	sd	zero, 0x10(sp)
   15f04: 13 0d 81 0f  	addi	s10, sp, 0xf8
   15f08: e2 37        	fld	fa5, 0x38(sp)
   15f0a: 93 07 d0 02  	li	a5, 0x2d
   15f0e: 3e 8c        	mv	s8, a5
   15f10: 53 94 f7 22  	fneg.d	fs0, fa5
   15f14: 6f f0 af cd  	j	0x153ee <_vfprintf_r+0xf2e>
   15f18: 90 11        	addi	a2, sp, 0xe0
   15f1a: ce 85        	mv	a1, s3
   15f1c: 26 85        	mv	a0, s1
   15f1e: ef 00 80 59  	jal	0x164b6 <__sprint_r>
   15f22: 19 c1        	beqz	a0, 0x15f28 <_vfprintf_r+0x1a68>
   15f24: 6f e0 1f 8f  	j	0x14814 <_vfprintf_r+0x354>
   15f28: 83 c5 0d 00  	lbu	a1, 0x0(s11)
   15f2c: 4e 76        	ld	a2, 0xf0(sp)
   15f2e: d6 87        	mv	a5, s5
   15f30: c1 46        	li	a3, 0x10
   15f32: 1d 48        	li	a6, 0x7
   15f34: ae 9c        	add	s9, s9, a1
   15f36: 69 bb        	j	0x15cd0 <_vfprintf_r+0x1810>
   15f38: 90 11        	addi	a2, sp, 0xe0
   15f3a: ce 85        	mv	a1, s3
   15f3c: 26 85        	mv	a0, s1
   15f3e: 9a f0        	sd	t1, 0x60(sp)
   15f40: ef 00 60 57  	jal	0x164b6 <__sprint_r>
   15f44: 19 c1        	beqz	a0, 0x15f4a <_vfprintf_r+0x1a8a>
   15f46: 6f e0 ff 8c  	j	0x14814 <_vfprintf_r+0x354>
   15f4a: 4e 76        	ld	a2, 0xf0(sp)
   15f4c: 06 73        	ld	t1, 0x60(sp)
   15f4e: 56 84        	mv	s0, s5
   15f50: 6f f0 cf 98  	j	0x150dc <_vfprintf_r+0xc1c>
   15f54: 53 05 84 22  	fmv.d	fa0, fs0
   15f58: 98 09        	addi	a4, sp, 0xd0
   15f5a: 42 86        	mv	a2, a6
   15f5c: bc 09        	addi	a5, sp, 0xd8
   15f5e: 34 19        	addi	a3, sp, 0xb8
   15f60: 89 45        	li	a1, 0x2
   15f62: 26 85        	mv	a0, s1
   15f64: 76 f8        	sd	t4, 0x30(sp)
   15f66: 46 f4        	sd	a7, 0x28(sp)
   15f68: 1a f0        	sd	t1, 0x20(sp)
   15f6a: 42 ec        	sd	a6, 0x18(sp)
   15f6c: ef 20 60 0f  	jal	0x18062 <_dtoa_r>
   15f70: 02 73        	ld	t1, 0x20(sp)
   15f72: 62 68        	ld	a6, 0x18(sp)
   15f74: a2 78        	ld	a7, 0x28(sp)
   15f76: 13 77 13 00  	andi	a4, t1, 0x1
   15f7a: c2 7e        	ld	t4, 0x30(sp)
   15f7c: 2a 8d        	mv	s10, a0
   15f7e: e3 0d 07 c4  	beqz	a4, 0x15bd8 <_vfprintf_r+0x1718>
   15f82: b3 06 0d 01  	add	a3, s10, a6
   15f86: 93 05 70 04  	li	a1, 0x47
   15f8a: ed b5        	j	0x15e74 <_vfprintf_r+0x19b4>
   15f8c: e2 67        	ld	a5, 0x18(sp)
   15f8e: 13 77 13 00  	andi	a4, t1, 0x1
   15f92: 33 67 e8 00  	or	a4, a6, a4
   15f96: 63 54 f0 32  	blez	a5, 0x162be <_vfprintf_r+0x1dfe>
   15f9a: 63 11 07 28  	bnez	a4, 0x1621c <_vfprintf_r+0x1d5c>
   15f9e: e2 6b        	ld	s7, 0x18(sp)
   15fa0: 93 08 60 06  	li	a7, 0x66
   15fa4: 13 73 03 40  	andi	t1, t1, 0x400
   15fa8: 63 17 03 20  	bnez	t1, 0x161b6 <_vfprintf_r+0x1cf6>
   15fac: 13 c7 fb ff  	not	a4, s7
   15fb0: 7d 97        	srai	a4, a4, 0x3f
   15fb2: 33 f7 eb 00  	and	a4, s7, a4
   15fb6: 9b 0d 07 00  	sext.w	s11, a4
   15fba: 76 83        	mv	t1, t4
   15fbc: 35 bf        	j	0x15ef8 <_vfprintf_r+0x1a38>
   15fbe: 90 11        	addi	a2, sp, 0xe0
   15fc0: ce 85        	mv	a1, s3
   15fc2: 26 85        	mv	a0, s1
   15fc4: 1a ec        	sd	t1, 0x18(sp)
   15fc6: ef 00 00 4f  	jal	0x164b6 <__sprint_r>
   15fca: 19 c1        	beqz	a0, 0x15fd0 <_vfprintf_r+0x1b10>
   15fcc: 6f e0 9f 84  	j	0x14814 <_vfprintf_r+0x354>
   15fd0: ea 55        	lw	a1, 0xb8(sp)
   15fd2: 82 77        	ld	a5, 0x20(sp)
   15fd4: 4e 76        	ld	a2, 0xf0(sp)
   15fd6: 62 63        	ld	t1, 0x18(sp)
   15fd8: 56 84        	mv	s0, s5
   15fda: bb 85 b7 40  	subw	a1, a5, a1
   15fde: 6f f0 af 96  	j	0x15148 <_vfprintf_r+0xc88>
   15fe2: ea 57        	lw	a5, 0xb8(sp)
   15fe4: 3e ec        	sd	a5, 0x18(sp)
   15fe6: b6 87        	mv	a5, a3
   15fe8: 5d bd        	j	0x15e9e <_vfprintf_r+0x19de>
   15fea: 86 67        	ld	a5, 0x40(sp)
   15fec: 02 77        	ld	a4, 0x20(sp)
   15fee: 93 08 70 06  	li	a7, 0x67
   15ff2: bb 8b e7 00  	addw	s7, a5, a4
   15ff6: e2 67        	ld	a5, 0x18(sp)
   15ff8: e3 46 f0 fa  	bgtz	a5, 0x15fa4 <_vfprintf_r+0x1ae4>
   15ffc: 3b 87 fb 40  	subw	a4, s7, a5
   16000: 05 27        	addiw	a4, a4, 0x1
   16002: 9b 0b 07 00  	sext.w	s7, a4
   16006: 13 c6 fb ff  	not	a2, s7
   1600a: 7d 96        	srai	a2, a2, 0x3f
   1600c: 71 8f        	and	a4, a4, a2
   1600e: 9b 0d 07 00  	sext.w	s11, a4
   16012: 76 83        	mv	t1, t4
   16014: d5 b5        	j	0x15ef8 <_vfprintf_r+0x1a38>
   16016: 41 55        	li	a0, -0x10
   16018: bb 08 b0 40  	negw	a7, a1
   1601c: 97 a2 ff ff  	auipc	t0, 0xffffa
   16020: 93 82 c2 79  	addi	t0, t0, 0x79c
   16024: 63 de a5 0a  	bge	a1, a0, 0x160e0 <_vfprintf_r+0x1c20>
   16028: 5a ec        	sd	s6, 0x18(sp)
   1602a: c1 4b        	li	s7, 0x10
   1602c: 1d 48        	li	a6, 0x7
   1602e: 1a f4        	sd	t1, 0x28(sp)
   16030: 46 8b        	mv	s6, a7
   16032: 16 8c        	mv	s8, t0
   16034: 21 a0        	j	0x1603c <_vfprintf_r+0x1b7c>
   16036: 41 3b        	addiw	s6, s6, -0x10
   16038: 63 d0 6b 0b  	bge	s7, s6, 0x160d8 <_vfprintf_r+0x1c18>
   1603c: 85 26        	addiw	a3, a3, 0x1
   1603e: 41 06        	addi	a2, a2, 0x10
   16040: 23 30 84 01  	sd	s8, 0x0(s0)
   16044: 23 34 74 01  	sd	s7, 0x8(s0)
   16048: b2 f9        	sd	a2, 0xf0(sp)
   1604a: b6 d5        	sw	a3, 0xe8(sp)
   1604c: 41 04        	addi	s0, s0, 0x10
   1604e: e3 54 d8 fe  	bge	a6, a3, 0x16036 <_vfprintf_r+0x1b76>
   16052: 90 11        	addi	a2, sp, 0xe0
   16054: ce 85        	mv	a1, s3
   16056: 26 85        	mv	a0, s1
   16058: ef 00 e0 45  	jal	0x164b6 <__sprint_r>
   1605c: 19 c1        	beqz	a0, 0x16062 <_vfprintf_r+0x1ba2>
   1605e: 6f e0 6f fb  	j	0x14814 <_vfprintf_r+0x354>
   16062: 4e 76        	ld	a2, 0xf0(sp)
   16064: ae 56        	lw	a3, 0xe8(sp)
   16066: 56 84        	mv	s0, s5
   16068: 1d 48        	li	a6, 0x7
   1606a: f1 b7        	j	0x16036 <_vfprintf_r+0x1b76>
   1606c: 02 e8        	sd	zero, 0x10(sp)
   1606e: 13 0d 81 0f  	addi	s10, sp, 0xf8
   16072: 7d b0        	j	0x15920 <_vfprintf_r+0x1460>
   16074: 9b 0b 18 00  	addiw	s7, a6, 0x1
   16078: 89 45        	li	a1, 0x2
   1607a: 5d bb        	j	0x15e30 <_vfprintf_r+0x1970>
   1607c: 83 a7 09 0b  	lw	a5, 0xb0(s3)
   16080: 85 8b        	andi	a5, a5, 0x1
   16082: 91 eb        	bnez	a5, 0x16096 <_vfprintf_r+0x1bd6>
   16084: 83 d7 09 01  	lhu	a5, 0x10(s3)
   16088: 93 f7 07 20  	andi	a5, a5, 0x200
   1608c: 89 e7        	bnez	a5, 0x16096 <_vfprintf_r+0x1bd6>
   1608e: 03 b5 09 0a  	ld	a0, 0xa0(s3)
   16092: ef 60 00 50  	jal	0x1c592 <__retarget_lock_release_recursive>
   16096: fd 57        	li	a5, -0x1
   16098: 3e e0        	sd	a5, 0x0(sp)
   1609a: 6f e0 0f fc  	j	0x1485a <_vfprintf_r+0x39a>
   1609e: 9a 8d        	mv	s11, t1
   160a0: 6f e0 1f f5  	j	0x14ff0 <_vfprintf_r+0xb30>
   160a4: 63 1b 08 b2  	bnez	a6, 0x153da <_vfprintf_r+0xf1a>
   160a8: 05 48        	li	a6, 0x1
   160aa: 6f f0 0f b3  	j	0x153da <_vfprintf_r+0xf1a>
   160ae: 93 06 21 0c  	addi	a3, sp, 0xc2
   160b2: 19 e6        	bnez	a2, 0x160c0 <_vfprintf_r+0x1c00>
   160b4: 93 06 00 03  	li	a3, 0x30
   160b8: 23 01 d1 0c  	sb	a3, 0xc2(sp)
   160bc: 93 06 31 0c  	addi	a3, sp, 0xc3
   160c0: 9c 13        	addi	a5, sp, 0x1e0
   160c2: 33 86 f6 40  	sub	a2, a3, a5
   160c6: 1b 07 07 03  	addiw	a4, a4, 0x30
   160ca: 9b 07 16 12  	addiw	a5, a2, 0x121
   160ce: 23 80 e6 00  	sb	a4, 0x0(a3)
   160d2: be ec        	sd	a5, 0x58(sp)
   160d4: 6f f0 cf cc  	j	0x155a0 <_vfprintf_r+0x10e0>
   160d8: da 88        	mv	a7, s6
   160da: 22 73        	ld	t1, 0x28(sp)
   160dc: 62 6b        	ld	s6, 0x18(sp)
   160de: e2 82        	mv	t0, s8
   160e0: 85 26        	addiw	a3, a3, 0x1
   160e2: 46 96        	add	a2, a2, a7
   160e4: 23 30 54 00  	sd	t0, 0x0(s0)
   160e8: 23 34 14 01  	sd	a7, 0x8(s0)
   160ec: b2 f9        	sd	a2, 0xf0(sp)
   160ee: b6 d5        	sw	a3, 0xe8(sp)
   160f0: 9d 45        	li	a1, 0x7
   160f2: 63 d3 d5 a2  	bge	a1, a3, 0x15318 <_vfprintf_r+0xe58>
   160f6: 90 11        	addi	a2, sp, 0xe0
   160f8: ce 85        	mv	a1, s3
   160fa: 26 85        	mv	a0, s1
   160fc: 1a ec        	sd	t1, 0x18(sp)
   160fe: ef 00 80 3b  	jal	0x164b6 <__sprint_r>
   16102: 19 c1        	beqz	a0, 0x16108 <_vfprintf_r+0x1c48>
   16104: 6f e0 0f f1  	j	0x14814 <_vfprintf_r+0x354>
   16108: 4e 76        	ld	a2, 0xf0(sp)
   1610a: ae 56        	lw	a3, 0xe8(sp)
   1610c: 62 63        	ld	t1, 0x18(sp)
   1610e: 56 84        	mv	s0, s5
   16110: 7d b8        	j	0x159ce <_vfprintf_r+0x150e>
   16112: 1c c3        	sw	a5, 0x0(a4)
   16114: 6f e0 df a2  	j	0x14b40 <_vfprintf_r+0x680>
   16118: 83 17 0d 01  	lh	a5, 0x10(s10)
   1611c: ea 89        	mv	s3, s10
   1611e: 02 e8        	sd	zero, 0x10(sp)
   16120: 93 e7 07 04  	ori	a5, a5, 0x40
   16124: 23 98 f9 00  	sh	a5, 0x10(s3)
   16128: 6f e0 cf ee  	j	0x14814 <_vfprintf_r+0x354>
   1612c: 02 e8        	sd	zero, 0x10(sp)
   1612e: 19 48        	li	a6, 0x6
   16130: 6f f0 af aa  	j	0x153da <_vfprintf_r+0xf1a>
   16134: 13 76 13 00  	andi	a2, t1, 0x1
   16138: 63 0f 06 c6  	beqz	a2, 0x155b6 <_vfprintf_r+0x10f6>
   1613c: 6f f0 4f c7  	j	0x155b0 <_vfprintf_r+0x10f0>
   16140: d3 07 00 f2  	fmv.d.x	fa5, zero
   16144: 53 27 f4 a2  	feq.d	a4, fs0, fa5
   16148: 63 02 07 12  	beqz	a4, 0x1626c <_vfprintf_r+0x1dac>
   1614c: ea 57        	lw	a5, 0xb8(sp)
   1614e: be 96        	add	a3, a3, a5
   16150: 3e ec        	sd	a5, 0x18(sp)
   16152: bb 87 a6 41  	subw	a5, a3, s10
   16156: 3e f0        	sd	a5, 0x20(sp)
   16158: 91 bb        	j	0x15eac <_vfprintf_r+0x19ec>
   1615a: 03 45 f1 0a  	lbu	a0, 0xaf(sp)
   1615e: 62 e4        	sd	s8, 0x8(sp)
   16160: 02 f8        	sd	zero, 0x30(sp)
   16162: 02 f4        	sd	zero, 0x28(sp)
   16164: c2 8d        	mv	s11, a6
   16166: c2 8b        	mv	s7, a6
   16168: 93 08 30 07  	li	a7, 0x73
   1616c: 01 48        	li	a6, 0x0
   1616e: 19 e1        	bnez	a0, 0x16174 <_vfprintf_r+0x1cb4>
   16170: 6f e0 cf cf  	j	0x1466c <_vfprintf_r+0x1ac>
   16174: 6f e0 6f f7  	j	0x148ea <_vfprintf_r+0x42a>
   16178: 22 88        	mv	a6, s0
   1617a: ea 89        	mv	s3, s10
   1617c: 5e 84        	mv	s0, s7
   1617e: 22 6b        	ld	s6, 0x8(sp)
   16180: 42 63        	ld	t1, 0x10(sp)
   16182: e2 68        	ld	a7, 0x18(sp)
   16184: 6e 8d        	mv	s10, s11
   16186: c2 8b        	mv	s7, a6
   16188: 6f f0 2f f7  	j	0x158fa <_vfprintf_r+0x143a>
   1618c: 3b 07 ed 00  	addw	a4, s10, a4
   16190: 1d 9f        	subw	a4, a4, a5
   16192: 9b 06 17 00  	addiw	a3, a4, 0x1
   16196: 93 15 07 02  	slli	a1, a4, 0x20
   1619a: be 96        	add	a3, a3, a5
   1619c: 13 06 00 03  	li	a2, 0x30
   161a0: 63 c3 05 b6  	bltz	a1, 0x15506 <_vfprintf_r+0x1046>
   161a4: 85 07        	addi	a5, a5, 0x1
   161a6: a3 8f c7 fe  	sb	a2, -0x1(a5)
   161aa: e3 9d f6 fe  	bne	a3, a5, 0x161a4 <_vfprintf_r+0x1ce4>
   161ae: 6f f0 8f b5  	j	0x15506 <_vfprintf_r+0x1046>
   161b2: 93 08 70 06  	li	a7, 0x67
   161b6: e6 76        	ld	a3, 0x78(sp)
   161b8: 13 06 f0 0f  	li	a2, 0xff
   161bc: 03 c7 06 00  	lbu	a4, 0x0(a3)
   161c0: 63 07 c7 12  	beq	a4, a2, 0x162ee <_vfprintf_r+0x1e2e>
   161c4: e2 67        	ld	a5, 0x18(sp)
   161c6: 01 48        	li	a6, 0x0
   161c8: 01 45        	li	a0, 0x0
   161ca: 93 05 f0 0f  	li	a1, 0xff
   161ce: 1b 06 07 00  	sext.w	a2, a4
   161d2: 63 5a f7 00  	bge	a4, a5, 0x161e6 <_vfprintf_r+0x1d26>
   161d6: 03 c7 16 00  	lbu	a4, 0x1(a3)
   161da: 91 9f        	subw	a5, a5, a2
   161dc: 05 cf        	beqz	a4, 0x16214 <_vfprintf_r+0x1d54>
   161de: 05 25        	addiw	a0, a0, 0x1
   161e0: 85 06        	addi	a3, a3, 0x1
   161e2: e3 16 b7 fe  	bne	a4, a1, 0x161ce <_vfprintf_r+0x1d0e>
   161e6: b6 fc        	sd	a3, 0x78(sp)
   161e8: 2a f4        	sd	a0, 0x28(sp)
   161ea: 42 f8        	sd	a6, 0x30(sp)
   161ec: 3e ec        	sd	a5, 0x18(sp)
   161ee: c2 77        	ld	a5, 0x30(sp)
   161f0: 22 77        	ld	a4, 0x28(sp)
   161f2: 76 83        	mv	t1, t4
   161f4: 3d 9f        	addw	a4, a4, a5
   161f6: 8a 67        	ld	a5, 0x80(sp)
   161f8: 3b 07 f7 02  	mulw	a4, a4, a5
   161fc: 3b 07 77 01  	addw	a4, a4, s7
   16200: 9b 0b 07 00  	sext.w	s7, a4
   16204: 13 c6 fb ff  	not	a2, s7
   16208: 7d 96        	srai	a2, a2, 0x3f
   1620a: 71 8f        	and	a4, a4, a2
   1620c: 9b 0d 07 00  	sext.w	s11, a4
   16210: 6f f0 4f bc  	j	0x155d4 <_vfprintf_r+0x1114>
   16214: 03 c7 06 00  	lbu	a4, 0x0(a3)
   16218: 05 28        	addiw	a6, a6, 0x1
   1621a: e1 b7        	j	0x161e2 <_vfprintf_r+0x1d22>
   1621c: 06 67        	ld	a4, 0x40(sp)
   1621e: 93 08 60 06  	li	a7, 0x66
   16222: bb 06 07 01  	addw	a3, a4, a6
   16226: bb 8b f6 00  	addw	s7, a3, a5
   1622a: ad bb        	j	0x15fa4 <_vfprintf_r+0x1ae4>
   1622c: e2 77        	ld	a5, 0x38(sp)
   1622e: 63 c8 07 02  	bltz	a5, 0x1625e <_vfprintf_r+0x1d9e>
   16232: 03 45 f1 0a  	lbu	a0, 0xaf(sp)
   16236: 13 07 70 04  	li	a4, 0x47
   1623a: 17 ad ff ff  	auipc	s10, 0xffffa
   1623e: 13 0d ed 3b  	addi	s10, s10, 0x3be
   16242: 63 54 17 01  	bge	a4, a7, 0x1624a <_vfprintf_r+0x1d8a>
   16246: 6f e0 cf e8  	j	0x148d2 <_vfprintf_r+0x412>
   1624a: 17 ad ff ff  	auipc	s10, 0xffffa
   1624e: 13 0d 6d 39  	addi	s10, s10, 0x396
   16252: 6f e0 0f e8  	j	0x148d2 <_vfprintf_r+0x412>
   16256: 93 06 00 07  	li	a3, 0x70
   1625a: 6f f0 ef ac  	j	0x15528 <_vfprintf_r+0x1068>
   1625e: 93 07 d0 02  	li	a5, 0x2d
   16262: a3 07 f1 0a  	sb	a5, 0xaf(sp)
   16266: 13 05 d0 02  	li	a0, 0x2d
   1626a: f1 b7        	j	0x16236 <_vfprintf_r+0x1d76>
   1626c: 05 47        	li	a4, 0x1
   1626e: 3b 06 77 41  	subw	a2, a4, s7
   16272: 32 dd        	sw	a2, 0xb8(sp)
   16274: fd be        	j	0x15e72 <_vfprintf_r+0x19b2>
   16276: 89 47        	li	a5, 0x2
   16278: be ec        	sd	a5, 0x58(sp)
   1627a: 6f f0 6f b2  	j	0x155a0 <_vfprintf_r+0x10e0>
   1627e: 22 67        	ld	a4, 0x8(sp)
   16280: 1c 43        	lw	a5, 0x0(a4)
   16282: 21 07        	addi	a4, a4, 0x8
   16284: 3e 88        	mv	a6, a5
   16286: 63 d3 07 00  	bgez	a5, 0x1628c <_vfprintf_r+0x1dcc>
   1628a: 7d 58        	li	a6, -0x1
   1628c: 83 48 1b 00  	lbu	a7, 0x1(s6)
   16290: 9b 0d 08 00  	sext.w	s11, a6
   16294: 3a e4        	sd	a4, 0x8(sp)
   16296: 32 8b        	mv	s6, a2
   16298: 6f e0 4f b5  	j	0x145ec <_vfprintf_r+0x12c>
   1629c: 53 a7 e7 a2  	feq.d	a4, fa5, fa4
   162a0: 63 03 07 a6  	beqz	a4, 0x15506 <_vfprintf_r+0x1046>
   162a4: 85 8a        	andi	a3, a3, 0x1
   162a6: 63 80 06 a6  	beqz	a3, 0x15506 <_vfprintf_r+0x1046>
   162aa: 6f f0 0f a2  	j	0x154ca <_vfprintf_r+0x100a>
   162ae: 83 97 09 01  	lh	a5, 0x10(s3)
   162b2: 93 e7 07 04  	ori	a5, a5, 0x40
   162b6: 23 98 f9 00  	sh	a5, 0x10(s3)
   162ba: 6f e0 af d6  	j	0x14824 <_vfprintf_r+0x364>
   162be: 19 e7        	bnez	a4, 0x162cc <_vfprintf_r+0x1e0c>
   162c0: 76 83        	mv	t1, t4
   162c2: 85 4d        	li	s11, 0x1
   162c4: 93 08 60 06  	li	a7, 0x66
   162c8: 85 4b        	li	s7, 0x1
   162ca: 3d b1        	j	0x15ef8 <_vfprintf_r+0x1a38>
   162cc: 86 67        	ld	a5, 0x40(sp)
   162ce: 76 83        	mv	t1, t4
   162d0: 93 08 60 06  	li	a7, 0x66
   162d4: 1b 87 17 00  	addiw	a4, a5, 0x1
   162d8: 3b 07 07 01  	addw	a4, a4, a6
   162dc: 9b 0b 07 00  	sext.w	s7, a4
   162e0: 13 c6 fb ff  	not	a2, s7
   162e4: 7d 96        	srai	a2, a2, 0x3f
   162e6: 71 8f        	and	a4, a4, a2
   162e8: 9b 0d 07 00  	sext.w	s11, a4
   162ec: 31 b1        	j	0x15ef8 <_vfprintf_r+0x1a38>
   162ee: 02 f8        	sd	zero, 0x30(sp)
   162f0: 02 f4        	sd	zero, 0x28(sp)
   162f2: f5 bd        	j	0x161ee <_vfprintf_r+0x1d2e>
   162f4: c2 8b        	mv	s7, a6
   162f6: b9 be        	j	0x15e54 <_vfprintf_r+0x1994>
   162f8: 83 97 09 01  	lh	a5, 0x10(s3)
   162fc: 3e 34        	fld	fs0, 0x1e8(sp)
   162fe: 93 e7 07 04  	ori	a5, a5, 0x40
   16302: 23 98 f9 00  	sh	a5, 0x10(s3)
   16306: 6f e0 ef d1  	j	0x14824 <_vfprintf_r+0x364>
   1630a: 83 97 09 01  	lh	a5, 0x10(s3)
   1630e: 93 e7 07 04  	ori	a5, a5, 0x40
   16312: 23 98 f9 00  	sh	a5, 0x10(s3)
   16316: 6f e0 ef cf  	j	0x14814 <_vfprintf_r+0x354>
   1631a: 83 97 09 01  	lh	a5, 0x10(s3)
   1631e: 02 e8        	sd	zero, 0x10(sp)
   16320: 93 e7 07 04  	ori	a5, a5, 0x40
   16324: 23 98 f9 00  	sh	a5, 0x10(s3)
   16328: 6f e0 cf ce  	j	0x14814 <_vfprintf_r+0x354>

000000000001632c <vfprintf>:
   1632c: b2 86        	mv	a3, a2
   1632e: 2e 86        	mv	a2, a1
   16330: aa 85        	mv	a1, a0
   16332: 17 a5 00 00  	auipc	a0, 0xa
   16336: 03 35 65 84  	ld	a0, -0x7ba(a0)
   1633a: 6f e0 6f 98  	j	0x144c0 <_vfprintf_r>

000000000001633e <__sbprintf>:
   1633e: 13 01 01 b1  	addi	sp, sp, -0x4f0
   16342: 03 d7 25 01  	lhu	a4, 0x12(a1)
   16346: 83 d7 05 01  	lhu	a5, 0x10(a1)
   1634a: 23 30 81 4e  	sd	s0, 0x4e0(sp)
   1634e: 2e 84        	mv	s0, a1
   16350: c1 65        	lui	a1, 0x10
   16352: f5 35        	addiw	a1, a1, -0x3
   16354: 03 23 04 0b  	lw	t1, 0xb0(s0)
   16358: 83 38 04 03  	ld	a7, 0x30(s0)
   1635c: 03 38 04 04  	ld	a6, 0x40(s0)
   16360: 1b 17 07 01  	slliw	a4, a4, 0x10
   16364: ed 8f        	and	a5, a5, a1
   16366: d9 8f        	or	a5, a5, a4
   16368: 93 05 00 40  	li	a1, 0x400
   1636c: 23 38 21 4d  	sd	s2, 0x4d0(sp)
   16370: 3e cc        	sw	a5, 0x18(sp)
   16372: 2a 89        	mv	s2, a0
   16374: 9c 01        	addi	a5, sp, 0xc0
   16376: 28 11        	addi	a0, sp, 0xa8
   16378: 23 34 11 4e  	sd	ra, 0x4e8(sp)
   1637c: 23 3c 91 4c  	sd	s1, 0x4d8(sp)
   16380: 23 34 31 4d  	sd	s3, 0x4c8(sp)
   16384: b2 84        	mv	s1, a2
   16386: b6 89        	mv	s3, a3
   16388: 1a dd        	sw	t1, 0xb8(sp)
   1638a: 46 fc        	sd	a7, 0x38(sp)
   1638c: c2 e4        	sd	a6, 0x48(sp)
   1638e: 3e e4        	sd	a5, 0x8(sp)
   16390: 3e f0        	sd	a5, 0x20(sp)
   16392: 2e ca        	sw	a1, 0x14(sp)
   16394: 2e d4        	sw	a1, 0x28(sp)
   16396: 02 d8        	sw	zero, 0x30(sp)
   16398: ef 60 60 1e  	jal	0x1c57e <__retarget_lock_init_recursive>
   1639c: 26 86        	mv	a2, s1
   1639e: ce 86        	mv	a3, s3
   163a0: 2c 00        	addi	a1, sp, 0x8
   163a2: 4a 85        	mv	a0, s2
   163a4: ef e0 cf 91  	jal	0x144c0 <_vfprintf_r>
   163a8: aa 84        	mv	s1, a0
   163aa: 63 5e 05 02  	bgez	a0, 0x163e6 <__sbprintf+0xa8>
   163ae: 83 57 81 01  	lhu	a5, 0x18(sp)
   163b2: 93 f7 07 04  	andi	a5, a5, 0x40
   163b6: 99 c7        	beqz	a5, 0x163c4 <__sbprintf+0x86>
   163b8: 83 57 04 01  	lhu	a5, 0x10(s0)
   163bc: 93 e7 07 04  	ori	a5, a5, 0x40
   163c0: 23 18 f4 00  	sh	a5, 0x10(s0)
   163c4: 2a 75        	ld	a0, 0xa8(sp)
   163c6: ef 60 c0 1b  	jal	0x1c582 <__retarget_lock_close_recursive>
   163ca: 83 30 81 4e  	ld	ra, 0x4e8(sp)
   163ce: 03 34 01 4e  	ld	s0, 0x4e0(sp)
   163d2: 03 39 01 4d  	ld	s2, 0x4d0(sp)
   163d6: 83 39 81 4c  	ld	s3, 0x4c8(sp)
   163da: 26 85        	mv	a0, s1
   163dc: 83 34 81 4d  	ld	s1, 0x4d8(sp)
   163e0: 13 01 01 4f  	addi	sp, sp, 0x4f0
   163e4: 82 80        	ret
   163e6: 2c 00        	addi	a1, sp, 0x8
   163e8: 4a 85        	mv	a0, s2
   163ea: ef d0 cf d7  	jal	0x13966 <_fflush_r>
   163ee: 61 d1        	beqz	a0, 0x163ae <__sbprintf+0x70>
   163f0: fd 54        	li	s1, -0x1
   163f2: 75 bf        	j	0x163ae <__sbprintf+0x70>

00000000000163f4 <__sprint_r.part.0>:
   163f4: 83 a7 05 0b  	lw	a5, 0xb0(a1)
   163f8: 5d 71        	addi	sp, sp, -0x50
   163fa: 56 ec        	sd	s5, 0x18(sp)
   163fc: 86 e4        	sd	ra, 0x48(sp)
   163fe: 13 97 27 03  	slli	a4, a5, 0x32
   16402: b2 8a        	mv	s5, a2
   16404: 63 5f 07 08  	bgez	a4, 0x164a2 <__sprint_r.part.0+0xae>
   16408: 1c 6a        	ld	a5, 0x10(a2)
   1640a: 4a f8        	sd	s2, 0x30(sp)
   1640c: 4e f4        	sd	s3, 0x28(sp)
   1640e: 52 f0        	sd	s4, 0x20(sp)
   16410: 5a e8        	sd	s6, 0x10(sp)
   16412: 2e 89        	mv	s2, a1
   16414: 03 3b 06 00  	ld	s6, 0x0(a2)
   16418: aa 89        	mv	s3, a0
   1641a: 7d 5a        	li	s4, -0x1
   1641c: ad cf        	beqz	a5, 0x16496 <__sprint_r.part.0+0xa2>
   1641e: a2 e0        	sd	s0, 0x40(sp)
   16420: 26 fc        	sd	s1, 0x38(sp)
   16422: 5e e4        	sd	s7, 0x8(sp)
   16424: 83 34 8b 00  	ld	s1, 0x8(s6)
   16428: 03 34 0b 00  	ld	s0, 0x0(s6)
   1642c: 89 80        	srli	s1, s1, 0x2
   1642e: 9b 8b 04 00  	sext.w	s7, s1
   16432: 63 58 70 05  	blez	s7, 0x16482 <__sprint_r.part.0+0x8e>
   16436: fd 34        	addiw	s1, s1, -0x1
   16438: 93 97 04 02  	slli	a5, s1, 0x20
   1643c: 93 d4 e7 01  	srli	s1, a5, 0x1e
   16440: 93 07 44 00  	addi	a5, s0, 0x4
   16444: be 94        	add	s1, s1, a5
   16446: 19 a0        	j	0x1644c <__sprint_r.part.0+0x58>
   16448: 63 8b 84 02  	beq	s1, s0, 0x1647e <__sprint_r.part.0+0x8a>
   1644c: 0c 40        	lw	a1, 0x0(s0)
   1644e: 4a 86        	mv	a2, s2
   16450: 4e 85        	mv	a0, s3
   16452: ef 30 d0 6f  	jal	0x1a34e <_fputwc_r>
   16456: 01 25        	sext.w	a0, a0
   16458: 11 04        	addi	s0, s0, 0x4
   1645a: e3 17 45 ff  	bne	a0, s4, 0x16448 <__sprint_r.part.0+0x54>
   1645e: 06 64        	ld	s0, 0x40(sp)
   16460: e2 74        	ld	s1, 0x38(sp)
   16462: 42 79        	ld	s2, 0x30(sp)
   16464: a2 79        	ld	s3, 0x28(sp)
   16466: 02 7a        	ld	s4, 0x20(sp)
   16468: 42 6b        	ld	s6, 0x10(sp)
   1646a: a2 6b        	ld	s7, 0x8(sp)
   1646c: 7d 55        	li	a0, -0x1
   1646e: a6 60        	ld	ra, 0x48(sp)
   16470: 23 b8 0a 00  	sd	zero, 0x10(s5)
   16474: 23 a4 0a 00  	sw	zero, 0x8(s5)
   16478: e2 6a        	ld	s5, 0x18(sp)
   1647a: 61 61        	addi	sp, sp, 0x50
   1647c: 82 80        	ret
   1647e: 83 b7 0a 01  	ld	a5, 0x10(s5)
   16482: 8a 0b        	slli	s7, s7, 0x2
   16484: b3 87 77 41  	sub	a5, a5, s7
   16488: 23 b8 fa 00  	sd	a5, 0x10(s5)
   1648c: 41 0b        	addi	s6, s6, 0x10
   1648e: d9 fb        	bnez	a5, 0x16424 <__sprint_r.part.0+0x30>
   16490: 06 64        	ld	s0, 0x40(sp)
   16492: e2 74        	ld	s1, 0x38(sp)
   16494: a2 6b        	ld	s7, 0x8(sp)
   16496: 42 79        	ld	s2, 0x30(sp)
   16498: a2 79        	ld	s3, 0x28(sp)
   1649a: 02 7a        	ld	s4, 0x20(sp)
   1649c: 42 6b        	ld	s6, 0x10(sp)
   1649e: 01 45        	li	a0, 0x0
   164a0: f9 b7        	j	0x1646e <__sprint_r.part.0+0x7a>
   164a2: ef 10 a0 0d  	jal	0x1757c <__sfvwrite_r>
   164a6: a6 60        	ld	ra, 0x48(sp)
   164a8: 23 b8 0a 00  	sd	zero, 0x10(s5)
   164ac: 23 a4 0a 00  	sw	zero, 0x8(s5)
   164b0: e2 6a        	ld	s5, 0x18(sp)
   164b2: 61 61        	addi	sp, sp, 0x50
   164b4: 82 80        	ret

00000000000164b6 <__sprint_r>:
   164b6: 18 6a        	ld	a4, 0x10(a2)
   164b8: 11 c3        	beqz	a4, 0x164bc <__sprint_r+0x6>
   164ba: 2d bf        	j	0x163f4 <__sprint_r.part.0>
   164bc: 23 24 06 00  	sw	zero, 0x8(a2)
   164c0: 01 45        	li	a0, 0x0
   164c2: 82 80        	ret

00000000000164c4 <_vfiprintf_r>:
   164c4: 13 01 01 df  	addi	sp, sp, -0x210
   164c8: a6 ff        	sd	s1, 0x1f8(sp)
   164ca: d2 f3        	sd	s4, 0x1e0(sp)
   164cc: 66 ff        	sd	s9, 0x1b8(sp)
   164ce: aa 84        	mv	s1, a0
   164d0: 2e 8a        	mv	s4, a1
   164d2: b2 8c        	mv	s9, a2
   164d4: 81 45        	li	a1, 0x0
   164d6: 21 46        	li	a2, 0x8
   164d8: 28 01        	addi	a0, sp, 0x88
   164da: de e7        	sd	s7, 0x1c8(sp)
   164dc: 23 34 11 20  	sd	ra, 0x208(sp)
   164e0: b6 8b        	mv	s7, a3
   164e2: ef 60 40 18  	jal	0x1c666 <memset>
   164e6: 81 c4        	beqz	s1, 0x164ee <_vfiprintf_r+0x2a>
   164e8: bc 64        	ld	a5, 0x48(s1)
   164ea: e3 8f 07 56  	beqz	a5, 0x17268 <_vfiprintf_r+0xda4>
   164ee: 03 27 0a 0b  	lw	a4, 0xb0(s4)
   164f2: 83 17 0a 01  	lh	a5, 0x10(s4)
   164f6: 05 8b        	andi	a4, a4, 0x1
   164f8: 09 e7        	bnez	a4, 0x16502 <_vfiprintf_r+0x3e>
   164fa: 13 f7 07 20  	andi	a4, a5, 0x200
   164fe: e3 06 07 30  	beqz	a4, 0x1700a <_vfiprintf_r+0xb46>
   16502: 13 97 27 03  	slli	a4, a5, 0x32
   16506: 63 41 07 02  	bltz	a4, 0x16528 <_vfiprintf_r+0x64>
   1650a: 03 27 0a 0b  	lw	a4, 0xb0(s4)
   1650e: 09 66        	lui	a2, 0x2
   16510: f9 76        	lui	a3, 0xffffe
   16512: d1 8f        	or	a5, a5, a2
   16514: fd 16        	addi	a3, a3, -0x1
   16516: 9b 97 07 01  	slliw	a5, a5, 0x10
   1651a: 9b d7 07 41  	sraiw	a5, a5, 0x10
   1651e: 75 8f        	and	a4, a4, a3
   16520: 23 18 fa 00  	sh	a5, 0x10(s4)
   16524: 23 28 ea 0a  	sw	a4, 0xb0(s4)
   16528: 13 f7 87 00  	andi	a4, a5, 0x8
   1652c: 63 0c 07 20  	beqz	a4, 0x16744 <_vfiprintf_r+0x280>
   16530: 03 37 8a 01  	ld	a4, 0x18(s4)
   16534: 63 08 07 20  	beqz	a4, 0x16744 <_vfiprintf_r+0x280>
   16538: 13 f7 a7 01  	andi	a4, a5, 0x1a
   1653c: a9 46        	li	a3, 0xa
   1653e: 63 00 d7 22  	beq	a4, a3, 0x1675e <_vfiprintf_r+0x29a>
   16542: d6 ef        	sd	s5, 0x1d8(sp)
   16544: 93 0a 01 12  	addi	s5, sp, 0x120
   16548: 23 30 81 20  	sd	s0, 0x200(sp)
   1654c: ca fb        	sd	s2, 0x1f0(sp)
   1654e: ce f7        	sd	s3, 0x1e8(sp)
   16550: da eb        	sd	s6, 0x1d0(sp)
   16552: e2 e3        	sd	s8, 0x1c0(sp)
   16554: 6a fb        	sd	s10, 0x1b0(sp)
   16556: 6e f7        	sd	s11, 0x1a8(sp)
   16558: 56 f1        	sd	s5, 0xa0(sp)
   1655a: 02 f9        	sd	zero, 0xb0(sp)
   1655c: 02 d5        	sw	zero, 0xa8(sp)
   1655e: 56 84        	mv	s0, s5
   16560: 02 ec        	sd	zero, 0x18(sp)
   16562: 82 e8        	sd	zero, 0x50(sp)
   16564: 82 e4        	sd	zero, 0x48(sp)
   16566: 82 ec        	sd	zero, 0x58(sp)
   16568: 02 e4        	sd	zero, 0x8(sp)
   1656a: 17 99 00 00  	auipc	s2, 0x9
   1656e: 13 09 69 2c  	addi	s2, s2, 0x2c6
   16572: 93 09 50 02  	li	s3, 0x25
   16576: 17 ac ff ff  	auipc	s8, 0xffffa
   1657a: 13 0c 2c 26  	addi	s8, s8, 0x262
   1657e: 17 ab ff ff  	auipc	s6, 0xffffa
   16582: 13 0b ab 3c  	addi	s6, s6, 0x3ca
   16586: 66 8d        	mv	s10, s9
   16588: ea 8d        	mv	s11, s10
   1658a: 83 3c 89 0e  	ld	s9, 0xe8(s2)
   1658e: ef 40 50 5a  	jal	0x1b332 <__locale_mb_cur_max>
   16592: aa 86        	mv	a3, a0
   16594: 38 01        	addi	a4, sp, 0x88
   16596: 6e 86        	mv	a2, s11
   16598: 4c 01        	addi	a1, sp, 0x84
   1659a: 26 85        	mv	a0, s1
   1659c: 82 9c        	jalr	s9
   1659e: 63 02 05 24  	beqz	a0, 0x167e2 <_vfiprintf_r+0x31e>
   165a2: 63 48 05 22  	bltz	a0, 0x167d2 <_vfiprintf_r+0x30e>
   165a6: 9a 47        	lw	a5, 0x84(sp)
   165a8: 63 84 37 01  	beq	a5, s3, 0x165b0 <_vfiprintf_r+0xec>
   165ac: aa 9d        	add	s11, s11, a0
   165ae: f1 bf        	j	0x1658a <_vfiprintf_r+0xc6>
   165b0: bb 87 ad 41  	subw	a5, s11, s10
   165b4: aa 8c        	mv	s9, a0
   165b6: 63 9a 07 22  	bnez	a5, 0x167ea <_vfiprintf_r+0x326>
   165ba: 83 c7 1d 00  	lbu	a5, 0x1(s11)
   165be: 13 8d 1d 00  	addi	s10, s11, 0x1
   165c2: a3 0f 01 06  	sb	zero, 0x7f(sp)
   165c6: fd 5c        	li	s9, -0x1
   165c8: 01 4e        	li	t3, 0x0
   165ca: 81 48        	li	a7, 0x0
   165cc: 93 0d a0 05  	li	s11, 0x5a
   165d0: 05 0d        	addi	s10, s10, 0x1
   165d2: 81 27        	sext.w	a5, a5
   165d4: 1b 87 07 fe  	addiw	a4, a5, -0x20
   165d8: 9b 06 07 00  	sext.w	a3, a4
   165dc: 63 e5 dd 04  	bltu	s11, a3, 0x16626 <_vfiprintf_r+0x162>
   165e0: 93 16 07 02  	slli	a3, a4, 0x20
   165e4: 13 d7 e6 01  	srli	a4, a3, 0x1e
   165e8: 62 97        	add	a4, a4, s8
   165ea: 18 43        	lw	a4, 0x0(a4)
   165ec: 62 97        	add	a4, a4, s8
   165ee: 02 87        	jr	a4
   165f0: 01 4e        	li	t3, 0x0
   165f2: 25 46        	li	a2, 0x9
   165f4: 83 46 0d 00  	lbu	a3, 0x0(s10)
   165f8: 1b 17 2e 00  	slliw	a4, t3, 0x2
   165fc: 3b 0e c7 01  	addw	t3, a4, t3
   16600: 9b 87 07 fd  	addiw	a5, a5, -0x30
   16604: 1b 1e 1e 00  	slliw	t3, t3, 0x1
   16608: 1b 87 06 fd  	addiw	a4, a3, -0x30
   1660c: 3b 8e c7 01  	addw	t3, a5, t3
   16610: 05 0d        	addi	s10, s10, 0x1
   16612: 9b 87 06 00  	sext.w	a5, a3
   16616: e3 7f e6 fc  	bgeu	a2, a4, 0x165f4 <_vfiprintf_r+0x130>
   1661a: 1b 87 07 fe  	addiw	a4, a5, -0x20
   1661e: 9b 06 07 00  	sext.w	a3, a4
   16622: e3 ff dd fa  	bgeu	s11, a3, 0x165e0 <_vfiprintf_r+0x11c>
   16626: 63 80 07 20  	beqz	a5, 0x16826 <_vfiprintf_r+0x362>
   1662a: 23 0c f1 0a  	sb	a5, 0xb8(sp)
   1662e: a3 0f 01 06  	sb	zero, 0x7f(sp)
   16632: 85 4d        	li	s11, 0x1
   16634: 85 46        	li	a3, 0x1
   16636: 13 08 81 0b  	addi	a6, sp, 0xb8
   1663a: 02 e8        	sd	zero, 0x10(sp)
   1663c: 81 4c        	li	s9, 0x0
   1663e: 81 4f        	li	t6, 0x0
   16640: 2a 56        	lw	a2, 0xa8(sp)
   16642: 93 f2 48 08  	andi	t0, a7, 0x84
   16646: ca 77        	ld	a5, 0xb0(sp)
   16648: 1b 05 16 00  	addiw	a0, a2, 0x1
   1664c: aa 85        	mv	a1, a0
   1664e: 63 96 02 00  	bnez	t0, 0x1665a <_vfiprintf_r+0x196>
   16652: 3b 07 be 41  	subw	a4, t3, s11
   16656: 63 4e e0 7a  	bgtz	a4, 0x16e12 <_vfiprintf_r+0x94e>
   1665a: 03 47 f1 07  	lbu	a4, 0x7f(sp)
   1665e: 19 cf        	beqz	a4, 0x1667c <_vfiprintf_r+0x1b8>
   16660: 13 07 f1 07  	addi	a4, sp, 0x7f
   16664: 85 07        	addi	a5, a5, 0x1
   16666: 18 e0        	sd	a4, 0x0(s0)
   16668: 05 47        	li	a4, 0x1
   1666a: 18 e4        	sd	a4, 0x8(s0)
   1666c: 3e f9        	sd	a5, 0xb0(sp)
   1666e: 2a d5        	sw	a0, 0xa8(sp)
   16670: 1d 47        	li	a4, 0x7
   16672: 63 40 a7 72  	blt	a4, a0, 0x16d92 <_vfiprintf_r+0x8ce>
   16676: 2a 86        	mv	a2, a0
   16678: 41 04        	addi	s0, s0, 0x10
   1667a: 05 25        	addiw	a0, a0, 0x1
   1667c: 63 84 0f 04  	beqz	t6, 0x166c4 <_vfiprintf_r+0x200>
   16680: 18 01        	addi	a4, sp, 0x80
   16682: 89 07        	addi	a5, a5, 0x2
   16684: 18 e0        	sd	a4, 0x0(s0)
   16686: 09 47        	li	a4, 0x2
   16688: 18 e4        	sd	a4, 0x8(s0)
   1668a: 3e f9        	sd	a5, 0xb0(sp)
   1668c: 2a d5        	sw	a0, 0xa8(sp)
   1668e: 1d 47        	li	a4, 0x7
   16690: 63 53 a7 74  	bge	a4, a0, 0x16dd6 <_vfiprintf_r+0x912>
   16694: e3 81 07 12  	beqz	a5, 0x16fb6 <_vfiprintf_r+0xaf2>
   16698: 10 11        	addi	a2, sp, 0xa0
   1669a: d2 85        	mv	a1, s4
   1669c: 26 85        	mv	a0, s1
   1669e: b6 e0        	sd	a3, 0x40(sp)
   166a0: 72 fc        	sd	t3, 0x38(sp)
   166a2: 42 f8        	sd	a6, 0x30(sp)
   166a4: 16 f4        	sd	t0, 0x28(sp)
   166a6: 46 f0        	sd	a7, 0x20(sp)
   166a8: ef f0 df d4  	jal	0x163f4 <__sprint_r.part.0>
   166ac: 63 1b 05 18  	bnez	a0, 0x16842 <_vfiprintf_r+0x37e>
   166b0: 2a 56        	lw	a2, 0xa8(sp)
   166b2: ca 77        	ld	a5, 0xb0(sp)
   166b4: 86 66        	ld	a3, 0x40(sp)
   166b6: 62 7e        	ld	t3, 0x38(sp)
   166b8: 42 78        	ld	a6, 0x30(sp)
   166ba: a2 72        	ld	t0, 0x28(sp)
   166bc: 82 78        	ld	a7, 0x20(sp)
   166be: 56 84        	mv	s0, s5
   166c0: 1b 05 16 00  	addiw	a0, a2, 0x1
   166c4: 13 07 00 08  	li	a4, 0x80
   166c8: 63 8f e2 54  	beq	t0, a4, 0x16c26 <_vfiprintf_r+0x762>
   166cc: 3b 8f dc 40  	subw	t5, s9, a3
   166d0: 63 41 e0 63  	bgtz	t5, 0x16cf2 <_vfiprintf_r+0x82e>
   166d4: b6 97        	add	a5, a5, a3
   166d6: 23 30 04 01  	sd	a6, 0x0(s0)
   166da: 14 e4        	sd	a3, 0x8(s0)
   166dc: 3e f9        	sd	a5, 0xb0(sp)
   166de: 2a d5        	sw	a0, 0xa8(sp)
   166e0: 1d 47        	li	a4, 0x7
   166e2: 63 50 a7 54  	bge	a4, a0, 0x16c22 <_vfiprintf_r+0x75e>
   166e6: 63 8c 07 7c  	beqz	a5, 0x16ebe <_vfiprintf_r+0x9fa>
   166ea: 10 11        	addi	a2, sp, 0xa0
   166ec: d2 85        	mv	a1, s4
   166ee: 26 85        	mv	a0, s1
   166f0: 72 f4        	sd	t3, 0x28(sp)
   166f2: 46 f0        	sd	a7, 0x20(sp)
   166f4: ef f0 1f d0  	jal	0x163f4 <__sprint_r.part.0>
   166f8: 63 15 05 14  	bnez	a0, 0x16842 <_vfiprintf_r+0x37e>
   166fc: ca 77        	ld	a5, 0xb0(sp)
   166fe: 22 7e        	ld	t3, 0x28(sp)
   16700: 82 78        	ld	a7, 0x20(sp)
   16702: 56 84        	mv	s0, s5
   16704: 93 f8 48 00  	andi	a7, a7, 0x4
   16708: 63 86 08 00  	beqz	a7, 0x16714 <_vfiprintf_r+0x250>
   1670c: bb 0c be 41  	subw	s9, t3, s11
   16710: 63 41 90 7d  	bgtz	s9, 0x16ed2 <_vfiprintf_r+0xa0e>
   16714: 72 87        	mv	a4, t3
   16716: 63 53 be 01  	bge	t3, s11, 0x1671c <_vfiprintf_r+0x258>
   1671a: 6e 87        	mv	a4, s11
   1671c: a2 66        	ld	a3, 0x8(sp)
   1671e: 35 9f        	addw	a4, a4, a3
   16720: 3a e4        	sd	a4, 0x8(sp)
   16722: 63 99 07 10  	bnez	a5, 0x16834 <_vfiprintf_r+0x370>
   16726: c2 67        	ld	a5, 0x10(sp)
   16728: 02 d5        	sw	zero, 0xa8(sp)
   1672a: 89 c7        	beqz	a5, 0x16734 <_vfiprintf_r+0x270>
   1672c: be 85        	mv	a1, a5
   1672e: 26 85        	mv	a0, s1
   16730: ef d0 ef c2  	jal	0x13b5e <_free_r>
   16734: 56 84        	mv	s0, s5
   16736: 89 bd        	j	0x16588 <_vfiprintf_r+0xc4>
   16738: 93 e8 08 01  	ori	a7, a7, 0x10
   1673c: 83 47 0d 00  	lbu	a5, 0x0(s10)
   16740: 81 28        	sext.w	a7, a7
   16742: 79 b5        	j	0x165d0 <_vfiprintf_r+0x10c>
   16744: d2 85        	mv	a1, s4
   16746: 26 85        	mv	a0, s1
   16748: ef 30 f0 0a  	jal	0x19ff6 <__swsetup_r>
   1674c: e3 1f 05 4c  	bnez	a0, 0x1742a <_vfiprintf_r+0xf66>
   16750: 83 17 0a 01  	lh	a5, 0x10(s4)
   16754: a9 46        	li	a3, 0xa
   16756: 13 f7 a7 01  	andi	a4, a5, 0x1a
   1675a: e3 14 d7 de  	bne	a4, a3, 0x16542 <_vfiprintf_r+0x7e>
   1675e: 03 17 2a 01  	lh	a4, 0x12(s4)
   16762: e3 40 07 de  	bltz	a4, 0x16542 <_vfiprintf_r+0x7e>
   16766: 03 27 0a 0b  	lw	a4, 0xb0(s4)
   1676a: 05 8b        	andi	a4, a4, 0x1
   1676c: 09 e7        	bnez	a4, 0x16776 <_vfiprintf_r+0x2b2>
   1676e: 93 f7 07 20  	andi	a5, a5, 0x200
   16772: e3 82 07 44  	beqz	a5, 0x173b6 <_vfiprintf_r+0xef2>
   16776: de 86        	mv	a3, s7
   16778: 66 86        	mv	a2, s9
   1677a: d2 85        	mv	a1, s4
   1677c: 26 85        	mv	a0, s1
   1677e: ef 00 90 54  	jal	0x174c6 <__sbprintf>
   16782: 83 30 81 20  	ld	ra, 0x208(sp)
   16786: 2a e4        	sd	a0, 0x8(sp)
   16788: 22 65        	ld	a0, 0x8(sp)
   1678a: fe 74        	ld	s1, 0x1f8(sp)
   1678c: 1e 7a        	ld	s4, 0x1e0(sp)
   1678e: be 6b        	ld	s7, 0x1c8(sp)
   16790: fa 7c        	ld	s9, 0x1b8(sp)
   16792: 13 01 01 21  	addi	sp, sp, 0x210
   16796: 82 80        	ret
   16798: 93 e8 08 01  	ori	a7, a7, 0x10
   1679c: 81 28        	sext.w	a7, a7
   1679e: 93 f7 08 02  	andi	a5, a7, 0x20
   167a2: 93 8f 8b 00  	addi	t6, s7, 0x8
   167a6: 63 8b 07 0e  	beqz	a5, 0x1689c <_vfiprintf_r+0x3d8>
   167aa: 83 b7 0b 00  	ld	a5, 0x0(s7)
   167ae: be 8b        	mv	s7, a5
   167b0: 63 c7 07 10  	bltz	a5, 0x168be <_vfiprintf_r+0x3fa>
   167b4: 63 c0 0c 12  	bltz	s9, 0x168d4 <_vfiprintf_r+0x410>
   167b8: 93 f8 f8 f7  	andi	a7, a7, -0x81
   167bc: 81 28        	sext.w	a7, a7
   167be: 63 9b 0b 10  	bnez	s7, 0x168d4 <_vfiprintf_r+0x410>
   167c2: e3 99 0c 42  	bnez	s9, 0x173f4 <_vfiprintf_r+0xf30>
   167c6: 81 4d        	li	s11, 0x0
   167c8: 81 46        	li	a3, 0x0
   167ca: fe 8b        	mv	s7, t6
   167cc: 13 08 c1 11  	addi	a6, sp, 0x11c
   167d0: 2d a2        	j	0x168fa <_vfiprintf_r+0x436>
   167d2: 21 46        	li	a2, 0x8
   167d4: 81 45        	li	a1, 0x0
   167d6: 28 01        	addi	a0, sp, 0x88
   167d8: ef 50 f0 68  	jal	0x1c666 <memset>
   167dc: 05 45        	li	a0, 0x1
   167de: aa 9d        	add	s11, s11, a0
   167e0: 6d b3        	j	0x1658a <_vfiprintf_r+0xc6>
   167e2: bb 87 ad 41  	subw	a5, s11, s10
   167e6: aa 8c        	mv	s9, a0
   167e8: 9d cf        	beqz	a5, 0x16826 <_vfiprintf_r+0x362>
   167ea: 2a 57        	lw	a4, 0xa8(sp)
   167ec: ca 76        	ld	a3, 0xb0(sp)
   167ee: 23 30 a4 01  	sd	s10, 0x0(s0)
   167f2: 1b 06 17 00  	addiw	a2, a4, 0x1
   167f6: be 96        	add	a3, a3, a5
   167f8: 1c e4        	sd	a5, 0x8(s0)
   167fa: 36 f9        	sd	a3, 0xb0(sp)
   167fc: 32 d5        	sw	a2, 0xa8(sp)
   167fe: 1d 47        	li	a4, 0x7
   16800: 41 04        	addi	s0, s0, 0x10
   16802: 63 5d c7 00  	bge	a4, a2, 0x1681c <_vfiprintf_r+0x358>
   16806: 63 85 06 7a  	beqz	a3, 0x16fb0 <_vfiprintf_r+0xaec>
   1680a: 10 11        	addi	a2, sp, 0xa0
   1680c: d2 85        	mv	a1, s4
   1680e: 26 85        	mv	a0, s1
   16810: 3e e8        	sd	a5, 0x10(sp)
   16812: ef f0 3f be  	jal	0x163f4 <__sprint_r.part.0>
   16816: c2 67        	ld	a5, 0x10(sp)
   16818: 1d e9        	bnez	a0, 0x1684e <_vfiprintf_r+0x38a>
   1681a: 56 84        	mv	s0, s5
   1681c: 22 67        	ld	a4, 0x8(sp)
   1681e: b9 9f        	addw	a5, a5, a4
   16820: 3e e4        	sd	a5, 0x8(sp)
   16822: e3 9c 0c d8  	bnez	s9, 0x165ba <_vfiprintf_r+0xf6>
   16826: ca 77        	ld	a5, 0xb0(sp)
   16828: e3 9b 07 3c  	bnez	a5, 0x173fe <_vfiprintf_r+0xf3a>
   1682c: 83 17 0a 01  	lh	a5, 0x10(s4)
   16830: 02 d5        	sw	zero, 0xa8(sp)
   16832: 05 a0        	j	0x16852 <_vfiprintf_r+0x38e>
   16834: 10 11        	addi	a2, sp, 0xa0
   16836: d2 85        	mv	a1, s4
   16838: 26 85        	mv	a0, s1
   1683a: ef f0 bf bb  	jal	0x163f4 <__sprint_r.part.0>
   1683e: e3 04 05 ee  	beqz	a0, 0x16726 <_vfiprintf_r+0x262>
   16842: c2 67        	ld	a5, 0x10(sp)
   16844: 89 c7        	beqz	a5, 0x1684e <_vfiprintf_r+0x38a>
   16846: c2 65        	ld	a1, 0x10(sp)
   16848: 26 85        	mv	a0, s1
   1684a: ef d0 4f b1  	jal	0x13b5e <_free_r>
   1684e: 83 17 0a 01  	lh	a5, 0x10(s4)
   16852: 03 27 0a 0b  	lw	a4, 0xb0(s4)
   16856: 05 8b        	andi	a4, a4, 0x1
   16858: 05 cb        	beqz	a4, 0x16888 <_vfiprintf_r+0x3c4>
   1685a: 93 f7 07 04  	andi	a5, a5, 0x40
   1685e: 03 34 01 20  	ld	s0, 0x200(sp)
   16862: 5e 79        	ld	s2, 0x1f0(sp)
   16864: be 79        	ld	s3, 0x1e8(sp)
   16866: fe 6a        	ld	s5, 0x1d8(sp)
   16868: 5e 6b        	ld	s6, 0x1d0(sp)
   1686a: 1e 6c        	ld	s8, 0x1c0(sp)
   1686c: 5a 7d        	ld	s10, 0x1b0(sp)
   1686e: ba 7d        	ld	s11, 0x1a8(sp)
   16870: e3 9a 07 3c  	bnez	a5, 0x17444 <_vfiprintf_r+0xf80>
   16874: 83 30 81 20  	ld	ra, 0x208(sp)
   16878: 22 65        	ld	a0, 0x8(sp)
   1687a: fe 74        	ld	s1, 0x1f8(sp)
   1687c: 1e 7a        	ld	s4, 0x1e0(sp)
   1687e: be 6b        	ld	s7, 0x1c8(sp)
   16880: fa 7c        	ld	s9, 0x1b8(sp)
   16882: 13 01 01 21  	addi	sp, sp, 0x210
   16886: 82 80        	ret
   16888: 13 f7 07 20  	andi	a4, a5, 0x200
   1688c: 79 f7        	bnez	a4, 0x1685a <_vfiprintf_r+0x396>
   1688e: 03 35 0a 0a  	ld	a0, 0xa0(s4)
   16892: ef 50 10 50  	jal	0x1c592 <__retarget_lock_release_recursive>
   16896: 83 17 0a 01  	lh	a5, 0x10(s4)
   1689a: c1 b7        	j	0x1685a <_vfiprintf_r+0x396>
   1689c: 93 f7 08 01  	andi	a5, a7, 0x10
   168a0: e3 95 07 f0  	bnez	a5, 0x167aa <_vfiprintf_r+0x2e6>
   168a4: 93 f7 08 04  	andi	a5, a7, 0x40
   168a8: 83 ab 0b 00  	lw	s7, 0x0(s7)
   168ac: e3 8d 07 20  	beqz	a5, 0x172c6 <_vfiprintf_r+0xe02>
   168b0: 9b 9b 0b 01  	slliw	s7, s7, 0x10
   168b4: 9b db 0b 41  	sraiw	s7, s7, 0x10
   168b8: de 87        	mv	a5, s7
   168ba: e3 dd 07 ee  	bgez	a5, 0x167b4 <_vfiprintf_r+0x2f0>
   168be: 93 07 d0 02  	li	a5, 0x2d
   168c2: a3 0f f1 06  	sb	a5, 0x7f(sp)
   168c6: b3 0b 70 41  	neg	s7, s7
   168ca: 63 c5 0c 00  	bltz	s9, 0x168d4 <_vfiprintf_r+0x410>
   168ce: 93 f8 f8 f7  	andi	a7, a7, -0x81
   168d2: 81 28        	sext.w	a7, a7
   168d4: a5 47        	li	a5, 0x9
   168d6: e3 e4 77 13  	bltu	a5, s7, 0x171fe <_vfiprintf_r+0xd3a>
   168da: 9b 87 0b 03  	addiw	a5, s7, 0x30
   168de: 93 f7 f7 0f  	andi	a5, a5, 0xff
   168e2: fe 8b        	mv	s7, t6
   168e4: a3 0d f1 10  	sb	a5, 0x11b(sp)
   168e8: e6 8e        	mv	t4, s9
   168ea: 63 43 90 01  	bgtz	s9, 0x168f0 <_vfiprintf_r+0x42c>
   168ee: 85 4e        	li	t4, 0x1
   168f0: 9b 8d 0e 00  	sext.w	s11, t4
   168f4: 85 46        	li	a3, 0x1
   168f6: 13 08 b1 11  	addi	a6, sp, 0x11b
   168fa: 83 47 f1 07  	lbu	a5, 0x7f(sp)
   168fe: 02 e8        	sd	zero, 0x10(sp)
   16900: 91 c3        	beqz	a5, 0x16904 <_vfiprintf_r+0x440>
   16902: 85 2d        	addiw	s11, s11, 0x1
   16904: 93 ff 28 00  	andi	t6, a7, 0x2
   16908: e3 8c 0f d2  	beqz	t6, 0x16640 <_vfiprintf_r+0x17c>
   1690c: 89 2d        	addiw	s11, s11, 0x2
   1690e: 89 4f        	li	t6, 0x2
   16910: 05 bb        	j	0x16640 <_vfiprintf_r+0x17c>
   16912: 03 b8 0b 00  	ld	a6, 0x0(s7)
   16916: a3 0f 01 06  	sb	zero, 0x7f(sp)
   1691a: a1 0b        	addi	s7, s7, 0x8
   1691c: e3 0b 08 16  	beqz	a6, 0x17292 <_vfiprintf_r+0xdce>
   16920: 13 07 30 05  	li	a4, 0x53
   16924: 63 88 e7 7e  	beq	a5, a4, 0x17114 <_vfiprintf_r+0xc50>
   16928: 93 f7 08 01  	andi	a5, a7, 0x10
   1692c: 63 94 07 7e  	bnez	a5, 0x17114 <_vfiprintf_r+0xc50>
   16930: 72 f8        	sd	t3, 0x30(sp)
   16932: 46 f4        	sd	a7, 0x28(sp)
   16934: e3 cf 0c 28  	bltz	s9, 0x173d2 <_vfiprintf_r+0xf0e>
   16938: 42 85        	mv	a0, a6
   1693a: 66 86        	mv	a2, s9
   1693c: 81 45        	li	a1, 0x0
   1693e: 42 f0        	sd	a6, 0x20(sp)
   16940: ef 30 70 33  	jal	0x1a476 <memchr>
   16944: 2a e8        	sd	a0, 0x10(sp)
   16946: 02 78        	ld	a6, 0x20(sp)
   16948: a2 78        	ld	a7, 0x28(sp)
   1694a: 42 7e        	ld	t3, 0x30(sp)
   1694c: e3 0b 05 26  	beqz	a0, 0x173c2 <_vfiprintf_r+0xefe>
   16950: bb 06 05 41  	subw	a3, a0, a6
   16954: 93 ce f6 ff  	not	t4, a3
   16958: 93 de fe 43  	srai	t4, t4, 0x3f
   1695c: b3 fd de 00  	and	s11, t4, a3
   16960: 02 e8        	sd	zero, 0x10(sp)
   16962: 6f 00 b0 1f  	j	0x1735c <_vfiprintf_r+0xe98>
   16966: 13 07 30 04  	li	a4, 0x43
   1696a: 13 88 8b 00  	addi	a6, s7, 0x8
   1696e: 63 86 e7 00  	beq	a5, a4, 0x1697a <_vfiprintf_r+0x4b6>
   16972: 93 f7 08 01  	andi	a5, a7, 0x10
   16976: 63 8d 07 6e  	beqz	a5, 0x17070 <_vfiprintf_r+0xbac>
   1697a: 21 46        	li	a2, 0x8
   1697c: 81 45        	li	a1, 0x0
   1697e: 28 09        	addi	a0, sp, 0x98
   16980: 42 f4        	sd	a6, 0x28(sp)
   16982: 72 f0        	sd	t3, 0x20(sp)
   16984: 46 e8        	sd	a7, 0x10(sp)
   16986: ef 50 10 4e  	jal	0x1c666 <memset>
   1698a: 03 a6 0b 00  	lw	a2, 0x0(s7)
   1698e: 93 0c 81 0b  	addi	s9, sp, 0xb8
   16992: 34 09        	addi	a3, sp, 0x98
   16994: e6 85        	mv	a1, s9
   16996: 26 85        	mv	a0, s1
   16998: ef 10 00 34  	jal	0x17cd8 <_wcrtomb_r>
   1699c: 9b 06 05 00  	sext.w	a3, a0
   169a0: fd 57        	li	a5, -0x1
   169a2: c2 68        	ld	a7, 0x10(sp)
   169a4: 02 7e        	ld	t3, 0x20(sp)
   169a6: 22 78        	ld	a6, 0x28(sp)
   169a8: e3 86 f6 2e  	beq	a3, a5, 0x17494 <_vfiprintf_r+0xfd0>
   169ac: 93 ce f6 ff  	not	t4, a3
   169b0: 93 de fe 43  	srai	t4, t4, 0x3f
   169b4: b3 fe d6 01  	and	t4, a3, t4
   169b8: 9b 8d 0e 00  	sext.w	s11, t4
   169bc: c2 8b        	mv	s7, a6
   169be: a3 0f 01 06  	sb	zero, 0x7f(sp)
   169c2: 66 88        	mv	a6, s9
   169c4: 9d b9        	j	0x1663a <_vfiprintf_r+0x176>
   169c6: 03 ae 0b 00  	lw	t3, 0x0(s7)
   169ca: a1 0b        	addi	s7, s7, 0x8
   169cc: 63 52 0e 0a  	bgez	t3, 0x16a70 <_vfiprintf_r+0x5ac>
   169d0: 3b 0e c0 41  	negw	t3, t3
   169d4: 93 e8 48 00  	ori	a7, a7, 0x4
   169d8: 83 47 0d 00  	lbu	a5, 0x0(s10)
   169dc: 81 28        	sext.w	a7, a7
   169de: cd be        	j	0x165d0 <_vfiprintf_r+0x10c>
   169e0: 13 07 b0 02  	li	a4, 0x2b
   169e4: 83 47 0d 00  	lbu	a5, 0x0(s10)
   169e8: a3 0f e1 06  	sb	a4, 0x7f(sp)
   169ec: d5 b6        	j	0x165d0 <_vfiprintf_r+0x10c>
   169ee: 93 e8 08 08  	ori	a7, a7, 0x80
   169f2: 83 47 0d 00  	lbu	a5, 0x0(s10)
   169f6: 81 28        	sext.w	a7, a7
   169f8: e1 be        	j	0x165d0 <_vfiprintf_r+0x10c>
   169fa: 83 47 0d 00  	lbu	a5, 0x0(s10)
   169fe: 13 06 a0 02  	li	a2, 0x2a
   16a02: 93 06 1d 00  	addi	a3, s10, 0x1
   16a06: e3 8a c7 26  	beq	a5, a2, 0x1747a <_vfiprintf_r+0xfb6>
   16a0a: 1b 87 07 fd  	addiw	a4, a5, -0x30
   16a0e: 25 45        	li	a0, 0x9
   16a10: 01 46        	li	a2, 0x0
   16a12: a5 45        	li	a1, 0x9
   16a14: 36 8d        	mv	s10, a3
   16a16: 81 4c        	li	s9, 0x0
   16a18: e3 6e e5 ba  	bltu	a0, a4, 0x165d4 <_vfiprintf_r+0x110>
   16a1c: 83 c7 06 00  	lbu	a5, 0x0(a3)
   16a20: 9b 1c 26 00  	slliw	s9, a2, 0x2
   16a24: bb 8c cc 00  	addw	s9, s9, a2
   16a28: 9b 9c 1c 00  	slliw	s9, s9, 0x1
   16a2c: 3b 86 ec 00  	addw	a2, s9, a4
   16a30: 1b 87 07 fd  	addiw	a4, a5, -0x30
   16a34: b2 8c        	mv	s9, a2
   16a36: 85 06        	addi	a3, a3, 0x1
   16a38: e3 f2 e5 fe  	bgeu	a1, a4, 0x16a1c <_vfiprintf_r+0x558>
   16a3c: 63 48 06 64  	bltz	a2, 0x1708c <_vfiprintf_r+0xbc8>
   16a40: 36 8d        	mv	s10, a3
   16a42: 49 be        	j	0x165d4 <_vfiprintf_r+0x110>
   16a44: 26 85        	mv	a0, s1
   16a46: 72 f0        	sd	t3, 0x20(sp)
   16a48: 46 e8        	sd	a7, 0x10(sp)
   16a4a: ef 50 f0 01  	jal	0x1c268 <_localeconv_r>
   16a4e: 1c 65        	ld	a5, 0x8(a0)
   16a50: 3e 85        	mv	a0, a5
   16a52: be ec        	sd	a5, 0x58(sp)
   16a54: ef 50 30 60  	jal	0x1c856 <strlen>
   16a58: aa 87        	mv	a5, a0
   16a5a: 26 85        	mv	a0, s1
   16a5c: be e4        	sd	a5, 0x48(sp)
   16a5e: ef 50 b0 00  	jal	0x1c268 <_localeconv_r>
   16a62: 18 69        	ld	a4, 0x10(a0)
   16a64: a6 67        	ld	a5, 0x48(sp)
   16a66: c2 68        	ld	a7, 0x10(sp)
   16a68: ba e8        	sd	a4, 0x50(sp)
   16a6a: 02 7e        	ld	t3, 0x20(sp)
   16a6c: 63 90 07 5e  	bnez	a5, 0x1704c <_vfiprintf_r+0xb88>
   16a70: 83 47 0d 00  	lbu	a5, 0x0(s10)
   16a74: b1 be        	j	0x165d0 <_vfiprintf_r+0x10c>
   16a76: 93 e8 18 00  	ori	a7, a7, 0x1
   16a7a: 83 47 0d 00  	lbu	a5, 0x0(s10)
   16a7e: 81 28        	sext.w	a7, a7
   16a80: 81 be        	j	0x165d0 <_vfiprintf_r+0x10c>
   16a82: 03 47 f1 07  	lbu	a4, 0x7f(sp)
   16a86: 83 47 0d 00  	lbu	a5, 0x0(s10)
   16a8a: e3 13 07 b4  	bnez	a4, 0x165d0 <_vfiprintf_r+0x10c>
   16a8e: 13 07 00 02  	li	a4, 0x20
   16a92: a3 0f e1 06  	sb	a4, 0x7f(sp)
   16a96: 2d be        	j	0x165d0 <_vfiprintf_r+0x10c>
   16a98: 93 e7 08 01  	ori	a5, a7, 0x10
   16a9c: 81 27        	sext.w	a5, a5
   16a9e: 13 f7 07 02  	andi	a4, a5, 0x20
   16aa2: 13 86 8b 00  	addi	a2, s7, 0x8
   16aa6: 09 e7        	bnez	a4, 0x16ab0 <_vfiprintf_r+0x5ec>
   16aa8: 13 f7 07 01  	andi	a4, a5, 0x10
   16aac: 63 07 07 58  	beqz	a4, 0x1703a <_vfiprintf_r+0xb76>
   16ab0: 03 b7 0b 00  	ld	a4, 0x0(s7)
   16ab4: 93 f8 f7 bf  	andi	a7, a5, -0x401
   16ab8: a3 0f 01 06  	sb	zero, 0x7f(sp)
   16abc: 81 28        	sext.w	a7, a7
   16abe: b2 8b        	mv	s7, a2
   16ac0: 63 cf 0c 08  	bltz	s9, 0x16b5e <_vfiprintf_r+0x69a>
   16ac4: 93 f7 f7 b7  	andi	a5, a5, -0x481
   16ac8: 81 27        	sext.w	a5, a5
   16aca: 63 1a 07 78  	bnez	a4, 0x1725e <_vfiprintf_r+0xd9a>
   16ace: c6 86        	mv	a3, a7
   16ad0: be 88        	mv	a7, a5
   16ad2: 63 9f 0c 06  	bnez	s9, 0x16b50 <_vfiprintf_r+0x68c>
   16ad6: 63 11 07 52  	bnez	a4, 0x16ff8 <_vfiprintf_r+0xb34>
   16ada: 85 8a        	andi	a3, a3, 0x1
   16adc: 63 83 06 52  	beqz	a3, 0x17002 <_vfiprintf_r+0xb3e>
   16ae0: 93 07 00 03  	li	a5, 0x30
   16ae4: a3 0d f1 10  	sb	a5, 0x11b(sp)
   16ae8: b6 8d        	mv	s11, a3
   16aea: 13 08 b1 11  	addi	a6, sp, 0x11b
   16aee: 31 b5        	j	0x168fa <_vfiprintf_r+0x436>
   16af0: 83 47 0d 00  	lbu	a5, 0x0(s10)
   16af4: 13 07 c0 06  	li	a4, 0x6c
   16af8: 63 85 e7 78  	beq	a5, a4, 0x17282 <_vfiprintf_r+0xdbe>
   16afc: 93 e8 08 01  	ori	a7, a7, 0x10
   16b00: 81 28        	sext.w	a7, a7
   16b02: f9 b4        	j	0x165d0 <_vfiprintf_r+0x10c>
   16b04: 83 47 0d 00  	lbu	a5, 0x0(s10)
   16b08: 13 07 80 06  	li	a4, 0x68
   16b0c: 63 83 e7 76  	beq	a5, a4, 0x17272 <_vfiprintf_r+0xdae>
   16b10: 93 e8 08 04  	ori	a7, a7, 0x40
   16b14: 81 28        	sext.w	a7, a7
   16b16: 6d bc        	j	0x165d0 <_vfiprintf_r+0x10c>
   16b18: 93 e6 08 01  	ori	a3, a7, 0x10
   16b1c: 81 26        	sext.w	a3, a3
   16b1e: 93 f7 06 02  	andi	a5, a3, 0x20
   16b22: 93 8f 8b 00  	addi	t6, s7, 0x8
   16b26: 89 e7        	bnez	a5, 0x16b30 <_vfiprintf_r+0x66c>
   16b28: 93 f7 06 01  	andi	a5, a3, 0x10
   16b2c: 63 8d 07 4e  	beqz	a5, 0x17026 <_vfiprintf_r+0xb62>
   16b30: 83 bb 0b 00  	ld	s7, 0x0(s7)
   16b34: a3 0f 01 06  	sb	zero, 0x7f(sp)
   16b38: b6 88        	mv	a7, a3
   16b3a: e3 cd 0c d8  	bltz	s9, 0x168d4 <_vfiprintf_r+0x410>
   16b3e: 93 f8 f6 f7  	andi	a7, a3, -0x81
   16b42: 81 28        	sext.w	a7, a7
   16b44: e3 98 0b d8  	bnez	s7, 0x168d4 <_vfiprintf_r+0x410>
   16b48: fe 8b        	mv	s7, t6
   16b4a: 05 47        	li	a4, 0x1
   16b4c: e3 85 0c f8  	beqz	s9, 0x16ad6 <_vfiprintf_r+0x612>
   16b50: 85 47        	li	a5, 0x1
   16b52: e3 02 f7 0a  	beq	a4, a5, 0x173f6 <_vfiprintf_r+0xf32>
   16b56: 89 47        	li	a5, 0x2
   16b58: 63 07 f7 78  	beq	a4, a5, 0x172e6 <_vfiprintf_r+0xe22>
   16b5c: 01 47        	li	a4, 0x0
   16b5e: 74 0a        	addi	a3, sp, 0x11c
   16b60: 36 88        	mv	a6, a3
   16b62: 93 77 77 00  	andi	a5, a4, 0x7
   16b66: 93 87 07 03  	addi	a5, a5, 0x30
   16b6a: a3 0f f8 fe  	sb	a5, -0x1(a6)
   16b6e: 0d 83        	srli	a4, a4, 0x3
   16b70: 42 86        	mv	a2, a6
   16b72: 7d 18        	addi	a6, a6, -0x1
   16b74: 7d f7        	bnez	a4, 0x16b62 <_vfiprintf_r+0x69e>
   16b76: 13 f7 18 00  	andi	a4, a7, 0x1
   16b7a: 63 03 07 28  	beqz	a4, 0x16e00 <_vfiprintf_r+0x93c>
   16b7e: 13 07 00 03  	li	a4, 0x30
   16b82: 63 8f e7 26  	beq	a5, a4, 0x16e00 <_vfiprintf_r+0x93c>
   16b86: 79 16        	addi	a2, a2, -0x2
   16b88: a3 0f e8 fe  	sb	a4, -0x1(a6)
   16b8c: 91 9e        	subw	a3, a3, a2
   16b8e: e6 8e        	mv	t4, s9
   16b90: 63 c9 dc 4e  	blt	s9, a3, 0x17082 <_vfiprintf_r+0xbbe>
   16b94: 9b 8d 0e 00  	sext.w	s11, t4
   16b98: 32 88        	mv	a6, a2
   16b9a: 85 b3        	j	0x168fa <_vfiprintf_r+0x436>
   16b9c: 93 e8 08 02  	ori	a7, a7, 0x20
   16ba0: 83 47 0d 00  	lbu	a5, 0x0(s10)
   16ba4: 81 28        	sext.w	a7, a7
   16ba6: 2d b4        	j	0x165d0 <_vfiprintf_r+0x10c>
   16ba8: a1 67        	lui	a5, 0x8
   16baa: 93 87 07 83  	addi	a5, a5, -0x7d0
   16bae: 93 e8 28 00  	ori	a7, a7, 0x2
   16bb2: 23 10 f1 08  	sh	a5, 0x80(sp)
   16bb6: 97 a7 ff ff  	auipc	a5, 0xffffa
   16bba: 93 87 a7 a4  	addi	a5, a5, -0x5b6
   16bbe: 03 b7 0b 00  	ld	a4, 0x0(s7)
   16bc2: 81 28        	sext.w	a7, a7
   16bc4: a1 0b        	addi	s7, s7, 0x8
   16bc6: 3e ec        	sd	a5, 0x18(sp)
   16bc8: a3 0f 01 06  	sb	zero, 0x7f(sp)
   16bcc: 63 cd 0c 20  	bltz	s9, 0x16de6 <_vfiprintf_r+0x922>
   16bd0: 93 f7 f8 f7  	andi	a5, a7, -0x81
   16bd4: 81 27        	sext.w	a5, a5
   16bd6: 63 14 07 20  	bnez	a4, 0x16dde <_vfiprintf_r+0x91a>
   16bda: c6 86        	mv	a3, a7
   16bdc: 09 47        	li	a4, 0x2
   16bde: be 88        	mv	a7, a5
   16be0: cd bd        	j	0x16ad2 <_vfiprintf_r+0x60e>
   16be2: 93 f7 08 02  	andi	a5, a7, 0x20
   16be6: 03 b7 0b 00  	ld	a4, 0x0(s7)
   16bea: 8d e3        	bnez	a5, 0x16c0c <_vfiprintf_r+0x748>
   16bec: 93 f7 08 01  	andi	a5, a7, 0x10
   16bf0: 91 ef        	bnez	a5, 0x16c0c <_vfiprintf_r+0x748>
   16bf2: 93 f7 08 04  	andi	a5, a7, 0x40
   16bf6: 63 97 07 78  	bnez	a5, 0x17384 <_vfiprintf_r+0xec0>
   16bfa: 93 f8 08 20  	andi	a7, a7, 0x200
   16bfe: a2 67        	ld	a5, 0x8(sp)
   16c00: e3 86 08 04  	beqz	a7, 0x1744c <_vfiprintf_r+0xf88>
   16c04: 23 00 f7 00  	sb	a5, 0x0(a4)
   16c08: a1 0b        	addi	s7, s7, 0x8
   16c0a: bd ba        	j	0x16588 <_vfiprintf_r+0xc4>
   16c0c: a2 67        	ld	a5, 0x8(sp)
   16c0e: a1 0b        	addi	s7, s7, 0x8
   16c10: 1c e3        	sd	a5, 0x0(a4)
   16c12: 9d ba        	j	0x16588 <_vfiprintf_r+0xc4>
   16c14: 05 47        	li	a4, 0x1
   16c16: b6 87        	mv	a5, a3
   16c18: 42 f2        	sd	a6, 0x120(sp)
   16c1a: 36 f6        	sd	a3, 0x128(sp)
   16c1c: 36 f9        	sd	a3, 0xb0(sp)
   16c1e: 3a d5        	sw	a4, 0xa8(sp)
   16c20: 56 84        	mv	s0, s5
   16c22: 41 04        	addi	s0, s0, 0x10
   16c24: c5 b4        	j	0x16704 <_vfiprintf_r+0x240>
   16c26: 3b 07 be 41  	subw	a4, t3, s11
   16c2a: e3 51 e0 aa  	blez	a4, 0x166cc <_vfiprintf_r+0x208>
   16c2e: c1 45        	li	a1, 0x10
   16c30: 63 d7 e5 7e  	bge	a1, a4, 0x1741e <_vfiprintf_r+0xf5a>
   16c34: 97 af ff ff  	auipc	t6, 0xffffa
   16c38: 93 8f 4f d1  	addi	t6, t6, -0x2ec
   16c3c: 36 fc        	sd	a3, 0x38(sp)
   16c3e: de e0        	sd	s7, 0x40(sp)
   16c40: a2 86        	mv	a3, s0
   16c42: 41 4f        	li	t5, 0x10
   16c44: 9d 42        	li	t0, 0x7
   16c46: 46 f0        	sd	a7, 0x20(sp)
   16c48: 42 f4        	sd	a6, 0x28(sp)
   16c4a: 72 f8        	sd	t3, 0x30(sp)
   16c4c: 3a 84        	mv	s0, a4
   16c4e: fe 8b        	mv	s7, t6
   16c50: 01 a8        	j	0x16c60 <_vfiprintf_r+0x79c>
   16c52: 9b 05 26 00  	addiw	a1, a2, 0x2
   16c56: c1 06        	addi	a3, a3, 0x10
   16c58: 2a 86        	mv	a2, a0
   16c5a: 41 34        	addiw	s0, s0, -0x10
   16c5c: 63 50 8f 04  	bge	t5, s0, 0x16c9c <_vfiprintf_r+0x7d8>
   16c60: 1b 05 16 00  	addiw	a0, a2, 0x1
   16c64: c1 07        	addi	a5, a5, 0x10
   16c66: 23 b0 76 01  	sd	s7, 0x0(a3)
   16c6a: 23 b4 e6 01  	sd	t5, 0x8(a3)
   16c6e: 3e f9        	sd	a5, 0xb0(sp)
   16c70: 2a d5        	sw	a0, 0xa8(sp)
   16c72: e3 d0 a2 fe  	bge	t0, a0, 0x16c52 <_vfiprintf_r+0x78e>
   16c76: 63 8a 07 10  	beqz	a5, 0x16d8a <_vfiprintf_r+0x8c6>
   16c7a: 10 11        	addi	a2, sp, 0xa0
   16c7c: d2 85        	mv	a1, s4
   16c7e: 26 85        	mv	a0, s1
   16c80: ef f0 4f f7  	jal	0x163f4 <__sprint_r.part.0>
   16c84: e3 1f 05 ba  	bnez	a0, 0x16842 <_vfiprintf_r+0x37e>
   16c88: 2a 56        	lw	a2, 0xa8(sp)
   16c8a: 41 4f        	li	t5, 0x10
   16c8c: 41 34        	addiw	s0, s0, -0x10
   16c8e: ca 77        	ld	a5, 0xb0(sp)
   16c90: d6 86        	mv	a3, s5
   16c92: 9b 05 16 00  	addiw	a1, a2, 0x1
   16c96: 9d 42        	li	t0, 0x7
   16c98: e3 44 8f fc  	blt	t5, s0, 0x16c60 <_vfiprintf_r+0x79c>
   16c9c: 22 87        	mv	a4, s0
   16c9e: de 8f        	mv	t6, s7
   16ca0: 36 84        	mv	s0, a3
   16ca2: 82 78        	ld	a7, 0x20(sp)
   16ca4: 22 78        	ld	a6, 0x28(sp)
   16ca6: 42 7e        	ld	t3, 0x30(sp)
   16ca8: e2 76        	ld	a3, 0x38(sp)
   16caa: 86 6b        	ld	s7, 0x40(sp)
   16cac: ba 97        	add	a5, a5, a4
   16cae: 18 e4        	sd	a4, 0x8(s0)
   16cb0: 23 30 f4 01  	sd	t6, 0x0(s0)
   16cb4: 3e f9        	sd	a5, 0xb0(sp)
   16cb6: 2e d5        	sw	a1, 0xa8(sp)
   16cb8: 1d 47        	li	a4, 0x7
   16cba: 63 50 b7 36  	bge	a4, a1, 0x1701a <_vfiprintf_r+0xb56>
   16cbe: 63 87 07 6a  	beqz	a5, 0x1736c <_vfiprintf_r+0xea8>
   16cc2: 10 11        	addi	a2, sp, 0xa0
   16cc4: d2 85        	mv	a1, s4
   16cc6: 26 85        	mv	a0, s1
   16cc8: 36 fc        	sd	a3, 0x38(sp)
   16cca: 72 f8        	sd	t3, 0x30(sp)
   16ccc: 42 f4        	sd	a6, 0x28(sp)
   16cce: 46 f0        	sd	a7, 0x20(sp)
   16cd0: ef f0 4f f2  	jal	0x163f4 <__sprint_r.part.0>
   16cd4: e3 17 05 b6  	bnez	a0, 0x16842 <_vfiprintf_r+0x37e>
   16cd8: e2 76        	ld	a3, 0x38(sp)
   16cda: 2a 56        	lw	a2, 0xa8(sp)
   16cdc: ca 77        	ld	a5, 0xb0(sp)
   16cde: 3b 8f dc 40  	subw	t5, s9, a3
   16ce2: 42 7e        	ld	t3, 0x30(sp)
   16ce4: 22 78        	ld	a6, 0x28(sp)
   16ce6: 82 78        	ld	a7, 0x20(sp)
   16ce8: 56 84        	mv	s0, s5
   16cea: 1b 05 16 00  	addiw	a0, a2, 0x1
   16cee: e3 53 e0 9f  	blez	t5, 0x166d4 <_vfiprintf_r+0x210>
   16cf2: 41 47        	li	a4, 0x10
   16cf4: 97 af ff ff  	auipc	t6, 0xffffa
   16cf8: 93 8f 4f c5  	addi	t6, t6, -0x3ac
   16cfc: 63 56 e7 07  	bge	a4, t5, 0x16d68 <_vfiprintf_r+0x8a4>
   16d00: 36 fc        	sd	a3, 0x38(sp)
   16d02: c1 4c        	li	s9, 0x10
   16d04: a2 86        	mv	a3, s0
   16d06: 1d 47        	li	a4, 0x7
   16d08: 46 f0        	sd	a7, 0x20(sp)
   16d0a: 42 f4        	sd	a6, 0x28(sp)
   16d0c: 72 f8        	sd	t3, 0x30(sp)
   16d0e: 7a 84        	mv	s0, t5
   16d10: da e0        	sd	s6, 0x40(sp)
   16d12: 01 a8        	j	0x16d22 <_vfiprintf_r+0x85e>
   16d14: 1b 05 26 00  	addiw	a0, a2, 0x2
   16d18: c1 06        	addi	a3, a3, 0x10
   16d1a: 42 86        	mv	a2, a6
   16d1c: 41 34        	addiw	s0, s0, -0x10
   16d1e: 63 de 8c 02  	bge	s9, s0, 0x16d5a <_vfiprintf_r+0x896>
   16d22: 1b 08 16 00  	addiw	a6, a2, 0x1
   16d26: c1 07        	addi	a5, a5, 0x10
   16d28: 23 b0 66 01  	sd	s6, 0x0(a3)
   16d2c: 23 b4 96 01  	sd	s9, 0x8(a3)
   16d30: 3e f9        	sd	a5, 0xb0(sp)
   16d32: 42 d5        	sw	a6, 0xa8(sp)
   16d34: e3 50 07 ff  	bge	a4, a6, 0x16d14 <_vfiprintf_r+0x850>
   16d38: a9 c7        	beqz	a5, 0x16d82 <_vfiprintf_r+0x8be>
   16d3a: 10 11        	addi	a2, sp, 0xa0
   16d3c: d2 85        	mv	a1, s4
   16d3e: 26 85        	mv	a0, s1
   16d40: ef f0 4f eb  	jal	0x163f4 <__sprint_r.part.0>
   16d44: e3 1f 05 ae  	bnez	a0, 0x16842 <_vfiprintf_r+0x37e>
   16d48: 2a 56        	lw	a2, 0xa8(sp)
   16d4a: 41 34        	addiw	s0, s0, -0x10
   16d4c: ca 77        	ld	a5, 0xb0(sp)
   16d4e: d6 86        	mv	a3, s5
   16d50: 1b 05 16 00  	addiw	a0, a2, 0x1
   16d54: 1d 47        	li	a4, 0x7
   16d56: e3 c6 8c fc  	blt	s9, s0, 0x16d22 <_vfiprintf_r+0x85e>
   16d5a: 22 8f        	mv	t5, s0
   16d5c: 82 78        	ld	a7, 0x20(sp)
   16d5e: 36 84        	mv	s0, a3
   16d60: 22 78        	ld	a6, 0x28(sp)
   16d62: 42 7e        	ld	t3, 0x30(sp)
   16d64: e2 76        	ld	a3, 0x38(sp)
   16d66: 86 6f        	ld	t6, 0x40(sp)
   16d68: fa 97        	add	a5, a5, t5
   16d6a: 23 30 f4 01  	sd	t6, 0x0(s0)
   16d6e: 23 34 e4 01  	sd	t5, 0x8(s0)
   16d72: 3e f9        	sd	a5, 0xb0(sp)
   16d74: 2a d5        	sw	a0, 0xa8(sp)
   16d76: 1d 47        	li	a4, 0x7
   16d78: 63 45 a7 20  	blt	a4, a0, 0x16f82 <_vfiprintf_r+0xabe>
   16d7c: 41 04        	addi	s0, s0, 0x10
   16d7e: 05 25        	addiw	a0, a0, 0x1
   16d80: 91 ba        	j	0x166d4 <_vfiprintf_r+0x210>
   16d82: 05 45        	li	a0, 0x1
   16d84: 01 46        	li	a2, 0x0
   16d86: d6 86        	mv	a3, s5
   16d88: 51 bf        	j	0x16d1c <_vfiprintf_r+0x858>
   16d8a: 85 45        	li	a1, 0x1
   16d8c: 01 46        	li	a2, 0x0
   16d8e: d6 86        	mv	a3, s5
   16d90: e9 b5        	j	0x16c5a <_vfiprintf_r+0x796>
   16d92: 95 cb        	beqz	a5, 0x16dc6 <_vfiprintf_r+0x902>
   16d94: 10 11        	addi	a2, sp, 0xa0
   16d96: d2 85        	mv	a1, s4
   16d98: 26 85        	mv	a0, s1
   16d9a: b6 f0        	sd	a3, 0x60(sp)
   16d9c: f2 e0        	sd	t3, 0x40(sp)
   16d9e: 42 fc        	sd	a6, 0x38(sp)
   16da0: 16 f8        	sd	t0, 0x30(sp)
   16da2: 7e f4        	sd	t6, 0x28(sp)
   16da4: 46 f0        	sd	a7, 0x20(sp)
   16da6: ef f0 ef e4  	jal	0x163f4 <__sprint_r.part.0>
   16daa: e3 1c 05 a8  	bnez	a0, 0x16842 <_vfiprintf_r+0x37e>
   16dae: 2a 56        	lw	a2, 0xa8(sp)
   16db0: ca 77        	ld	a5, 0xb0(sp)
   16db2: 86 76        	ld	a3, 0x60(sp)
   16db4: 06 6e        	ld	t3, 0x40(sp)
   16db6: 62 78        	ld	a6, 0x38(sp)
   16db8: c2 72        	ld	t0, 0x30(sp)
   16dba: a2 7f        	ld	t6, 0x28(sp)
   16dbc: 82 78        	ld	a7, 0x20(sp)
   16dbe: 56 84        	mv	s0, s5
   16dc0: 1b 05 16 00  	addiw	a0, a2, 0x1
   16dc4: 65 b8        	j	0x1667c <_vfiprintf_r+0x1b8>
   16dc6: 63 80 0f 2a  	beqz	t6, 0x17066 <_vfiprintf_r+0xba2>
   16dca: 1c 01        	addi	a5, sp, 0x80
   16dcc: 3e f2        	sd	a5, 0x120(sp)
   16dce: 89 47        	li	a5, 0x2
   16dd0: 3e f6        	sd	a5, 0x128(sp)
   16dd2: 05 45        	li	a0, 0x1
   16dd4: 56 84        	mv	s0, s5
   16dd6: 2a 86        	mv	a2, a0
   16dd8: 41 04        	addi	s0, s0, 0x10
   16dda: 05 25        	addiw	a0, a0, 0x1
   16ddc: e5 b0        	j	0x166c4 <_vfiprintf_r+0x200>
   16dde: be 88        	mv	a7, a5
   16de0: 89 47        	li	a5, 0x2
   16de2: e3 8e 07 d6  	beqz	a5, 0x16b5e <_vfiprintf_r+0x69a>
   16de6: 62 66        	ld	a2, 0x18(sp)
   16de8: 74 0a        	addi	a3, sp, 0x11c
   16dea: 36 88        	mv	a6, a3
   16dec: 93 77 f7 00  	andi	a5, a4, 0xf
   16df0: b2 97        	add	a5, a5, a2
   16df2: 83 c7 07 00  	lbu	a5, 0x0(a5)
   16df6: 11 83        	srli	a4, a4, 0x4
   16df8: 7d 18        	addi	a6, a6, -0x1
   16dfa: 23 00 f8 00  	sb	a5, 0x0(a6)
   16dfe: 7d f7        	bnez	a4, 0x16dec <_vfiprintf_r+0x928>
   16e00: bb 86 06 41  	subw	a3, a3, a6
   16e04: e6 8e        	mv	t4, s9
   16e06: 63 d3 dc 00  	bge	s9, a3, 0x16e0c <_vfiprintf_r+0x948>
   16e0a: b6 8e        	mv	t4, a3
   16e0c: 9b 8d 0e 00  	sext.w	s11, t4
   16e10: ed b4        	j	0x168fa <_vfiprintf_r+0x436>
   16e12: 41 4f        	li	t5, 0x10
   16e14: 63 5a ef 5a  	bge	t5, a4, 0x173c8 <_vfiprintf_r+0xf04>
   16e18: 17 a3 ff ff  	auipc	t1, 0xffffa
   16e1c: 13 03 03 b4  	addi	t1, t1, -0x4c0
   16e20: b6 f0        	sd	a3, 0x60(sp)
   16e22: de f4        	sd	s7, 0x68(sp)
   16e24: a2 86        	mv	a3, s0
   16e26: 9d 43        	li	t2, 0x7
   16e28: 46 f0        	sd	a7, 0x20(sp)
   16e2a: 7e f4        	sd	t6, 0x28(sp)
   16e2c: 16 f8        	sd	t0, 0x30(sp)
   16e2e: 42 fc        	sd	a6, 0x38(sp)
   16e30: f2 e0        	sd	t3, 0x40(sp)
   16e32: 3a 84        	mv	s0, a4
   16e34: 9a 8b        	mv	s7, t1
   16e36: 11 a8        	j	0x16e4a <_vfiprintf_r+0x986>
   16e38: 9b 05 26 00  	addiw	a1, a2, 0x2
   16e3c: c1 06        	addi	a3, a3, 0x10
   16e3e: 2a 86        	mv	a2, a0
   16e40: 41 34        	addiw	s0, s0, -0x10
   16e42: 63 51 8f 04  	bge	t5, s0, 0x16e84 <_vfiprintf_r+0x9c0>
   16e46: 9b 05 16 00  	addiw	a1, a2, 0x1
   16e4a: c1 07        	addi	a5, a5, 0x10
   16e4c: 23 b0 76 01  	sd	s7, 0x0(a3)
   16e50: 23 b4 e6 01  	sd	t5, 0x8(a3)
   16e54: 3e f9        	sd	a5, 0xb0(sp)
   16e56: 1b 85 05 00  	sext.w	a0, a1
   16e5a: 2e d5        	sw	a1, 0xa8(sp)
   16e5c: e3 de a3 fc  	bge	t2, a0, 0x16e38 <_vfiprintf_r+0x974>
   16e60: b9 cb        	beqz	a5, 0x16eb6 <_vfiprintf_r+0x9f2>
   16e62: 10 11        	addi	a2, sp, 0xa0
   16e64: d2 85        	mv	a1, s4
   16e66: 26 85        	mv	a0, s1
   16e68: ef f0 cf d8  	jal	0x163f4 <__sprint_r.part.0>
   16e6c: e3 1b 05 9c  	bnez	a0, 0x16842 <_vfiprintf_r+0x37e>
   16e70: 2a 56        	lw	a2, 0xa8(sp)
   16e72: 41 4f        	li	t5, 0x10
   16e74: 41 34        	addiw	s0, s0, -0x10
   16e76: ca 77        	ld	a5, 0xb0(sp)
   16e78: d6 86        	mv	a3, s5
   16e7a: 9b 05 16 00  	addiw	a1, a2, 0x1
   16e7e: 9d 43        	li	t2, 0x7
   16e80: e3 43 8f fc  	blt	t5, s0, 0x16e46 <_vfiprintf_r+0x982>
   16e84: 22 87        	mv	a4, s0
   16e86: 5e 83        	mv	t1, s7
   16e88: 36 84        	mv	s0, a3
   16e8a: 82 78        	ld	a7, 0x20(sp)
   16e8c: a2 7f        	ld	t6, 0x28(sp)
   16e8e: c2 72        	ld	t0, 0x30(sp)
   16e90: 62 78        	ld	a6, 0x38(sp)
   16e92: 06 6e        	ld	t3, 0x40(sp)
   16e94: 86 76        	ld	a3, 0x60(sp)
   16e96: a6 7b        	ld	s7, 0x68(sp)
   16e98: ba 97        	add	a5, a5, a4
   16e9a: 18 e4        	sd	a4, 0x8(s0)
   16e9c: 23 30 64 00  	sd	t1, 0x0(s0)
   16ea0: 3e f9        	sd	a5, 0xb0(sp)
   16ea2: 2e d5        	sw	a1, 0xa8(sp)
   16ea4: 1d 47        	li	a4, 0x7
   16ea6: 63 4d b7 10  	blt	a4, a1, 0x16fc0 <_vfiprintf_r+0xafc>
   16eaa: 41 04        	addi	s0, s0, 0x10
   16eac: 1b 85 15 00  	addiw	a0, a1, 0x1
   16eb0: 2e 86        	mv	a2, a1
   16eb2: 6f f0 8f fa  	j	0x1665a <_vfiprintf_r+0x196>
   16eb6: 01 46        	li	a2, 0x0
   16eb8: 85 45        	li	a1, 0x1
   16eba: d6 86        	mv	a3, s5
   16ebc: 51 b7        	j	0x16e40 <_vfiprintf_r+0x97c>
   16ebe: 02 d5        	sw	zero, 0xa8(sp)
   16ec0: 93 f8 48 00  	andi	a7, a7, 0x4
   16ec4: 63 86 08 0a  	beqz	a7, 0x16f70 <_vfiprintf_r+0xaac>
   16ec8: bb 0c be 41  	subw	s9, t3, s11
   16ecc: 63 52 90 0b  	blez	s9, 0x16f70 <_vfiprintf_r+0xaac>
   16ed0: 56 84        	mv	s0, s5
   16ed2: 41 47        	li	a4, 0x10
   16ed4: aa 56        	lw	a3, 0xa8(sp)
   16ed6: 63 5d 97 53  	bge	a4, s9, 0x17410 <_vfiprintf_r+0xf4c>
   16eda: 17 a3 ff ff  	auipc	t1, 0xffffa
   16ede: 13 03 e3 a7  	addi	t1, t1, -0x582
   16ee2: 22 86        	mv	a2, s0
   16ee4: 41 48        	li	a6, 0x10
   16ee6: 9d 48        	li	a7, 0x7
   16ee8: 72 f0        	sd	t3, 0x20(sp)
   16eea: 1a 84        	mv	s0, t1
   16eec: 01 a8        	j	0x16efc <_vfiprintf_r+0xa38>
   16eee: 1b 87 26 00  	addiw	a4, a3, 0x2
   16ef2: 41 06        	addi	a2, a2, 0x10
   16ef4: ae 86        	mv	a3, a1
   16ef6: c1 3c        	addiw	s9, s9, -0x10
   16ef8: 63 5e 98 03  	bge	a6, s9, 0x16f34 <_vfiprintf_r+0xa70>
   16efc: 9b 85 16 00  	addiw	a1, a3, 0x1
   16f00: c1 07        	addi	a5, a5, 0x10
   16f02: 00 e2        	sd	s0, 0x0(a2)
   16f04: 23 34 06 01  	sd	a6, 0x8(a2)
   16f08: 3e f9        	sd	a5, 0xb0(sp)
   16f0a: 2e d5        	sw	a1, 0xa8(sp)
   16f0c: e3 d1 b8 fe  	bge	a7, a1, 0x16eee <_vfiprintf_r+0xa2a>
   16f10: a1 cf        	beqz	a5, 0x16f68 <_vfiprintf_r+0xaa4>
   16f12: 10 11        	addi	a2, sp, 0xa0
   16f14: d2 85        	mv	a1, s4
   16f16: 26 85        	mv	a0, s1
   16f18: ef f0 cf cd  	jal	0x163f4 <__sprint_r.part.0>
   16f1c: e3 13 05 92  	bnez	a0, 0x16842 <_vfiprintf_r+0x37e>
   16f20: aa 56        	lw	a3, 0xa8(sp)
   16f22: 41 48        	li	a6, 0x10
   16f24: c1 3c        	addiw	s9, s9, -0x10
   16f26: ca 77        	ld	a5, 0xb0(sp)
   16f28: 56 86        	mv	a2, s5
   16f2a: 1b 87 16 00  	addiw	a4, a3, 0x1
   16f2e: 9d 48        	li	a7, 0x7
   16f30: e3 46 98 fd  	blt	a6, s9, 0x16efc <_vfiprintf_r+0xa38>
   16f34: 02 7e        	ld	t3, 0x20(sp)
   16f36: 22 83        	mv	t1, s0
   16f38: 32 84        	mv	s0, a2
   16f3a: e6 97        	add	a5, a5, s9
   16f3c: 23 30 64 00  	sd	t1, 0x0(s0)
   16f40: 23 34 94 01  	sd	s9, 0x8(s0)
   16f44: 3e f9        	sd	a5, 0xb0(sp)
   16f46: 3a d5        	sw	a4, 0xa8(sp)
   16f48: 9d 46        	li	a3, 0x7
   16f4a: 63 d5 e6 fc  	bge	a3, a4, 0x16714 <_vfiprintf_r+0x250>
   16f4e: 8d c3        	beqz	a5, 0x16f70 <_vfiprintf_r+0xaac>
   16f50: 10 11        	addi	a2, sp, 0xa0
   16f52: d2 85        	mv	a1, s4
   16f54: 26 85        	mv	a0, s1
   16f56: 72 f0        	sd	t3, 0x20(sp)
   16f58: ef f0 cf c9  	jal	0x163f4 <__sprint_r.part.0>
   16f5c: e3 13 05 8e  	bnez	a0, 0x16842 <_vfiprintf_r+0x37e>
   16f60: ca 77        	ld	a5, 0xb0(sp)
   16f62: 02 7e        	ld	t3, 0x20(sp)
   16f64: 6f f0 0f fb  	j	0x16714 <_vfiprintf_r+0x250>
   16f68: 05 47        	li	a4, 0x1
   16f6a: 81 46        	li	a3, 0x0
   16f6c: 56 86        	mv	a2, s5
   16f6e: 61 b7        	j	0x16ef6 <_vfiprintf_r+0xa32>
   16f70: f2 87        	mv	a5, t3
   16f72: 63 53 be 01  	bge	t3, s11, 0x16f78 <_vfiprintf_r+0xab4>
   16f76: ee 87        	mv	a5, s11
   16f78: 22 67        	ld	a4, 0x8(sp)
   16f7a: b9 9f        	addw	a5, a5, a4
   16f7c: 3e e4        	sd	a5, 0x8(sp)
   16f7e: 6f f0 8f fa  	j	0x16726 <_vfiprintf_r+0x262>
   16f82: e3 89 07 c8  	beqz	a5, 0x16c14 <_vfiprintf_r+0x750>
   16f86: 10 11        	addi	a2, sp, 0xa0
   16f88: d2 85        	mv	a1, s4
   16f8a: 26 85        	mv	a0, s1
   16f8c: 36 fc        	sd	a3, 0x38(sp)
   16f8e: 72 f8        	sd	t3, 0x30(sp)
   16f90: 42 f4        	sd	a6, 0x28(sp)
   16f92: 46 f0        	sd	a7, 0x20(sp)
   16f94: ef f0 0f c6  	jal	0x163f4 <__sprint_r.part.0>
   16f98: e3 15 05 8a  	bnez	a0, 0x16842 <_vfiprintf_r+0x37e>
   16f9c: 2a 55        	lw	a0, 0xa8(sp)
   16f9e: ca 77        	ld	a5, 0xb0(sp)
   16fa0: e2 76        	ld	a3, 0x38(sp)
   16fa2: 42 7e        	ld	t3, 0x30(sp)
   16fa4: 22 78        	ld	a6, 0x28(sp)
   16fa6: 82 78        	ld	a7, 0x20(sp)
   16fa8: 56 84        	mv	s0, s5
   16faa: 05 25        	addiw	a0, a0, 0x1
   16fac: 6f f0 8f f2  	j	0x166d4 <_vfiprintf_r+0x210>
   16fb0: 02 d5        	sw	zero, 0xa8(sp)
   16fb2: 56 84        	mv	s0, s5
   16fb4: a5 b0        	j	0x1681c <_vfiprintf_r+0x358>
   16fb6: 05 45        	li	a0, 0x1
   16fb8: 01 46        	li	a2, 0x0
   16fba: 56 84        	mv	s0, s5
   16fbc: 6f f0 8f f0  	j	0x166c4 <_vfiprintf_r+0x200>
   16fc0: 63 8d 07 12  	beqz	a5, 0x170fa <_vfiprintf_r+0xc36>
   16fc4: 10 11        	addi	a2, sp, 0xa0
   16fc6: d2 85        	mv	a1, s4
   16fc8: 26 85        	mv	a0, s1
   16fca: b6 f0        	sd	a3, 0x60(sp)
   16fcc: f2 e0        	sd	t3, 0x40(sp)
   16fce: 42 fc        	sd	a6, 0x38(sp)
   16fd0: 16 f8        	sd	t0, 0x30(sp)
   16fd2: 7e f4        	sd	t6, 0x28(sp)
   16fd4: 46 f0        	sd	a7, 0x20(sp)
   16fd6: ef f0 ef c1  	jal	0x163f4 <__sprint_r.part.0>
   16fda: e3 14 05 86  	bnez	a0, 0x16842 <_vfiprintf_r+0x37e>
   16fde: 2a 56        	lw	a2, 0xa8(sp)
   16fe0: ca 77        	ld	a5, 0xb0(sp)
   16fe2: 86 76        	ld	a3, 0x60(sp)
   16fe4: 06 6e        	ld	t3, 0x40(sp)
   16fe6: 62 78        	ld	a6, 0x38(sp)
   16fe8: c2 72        	ld	t0, 0x30(sp)
   16fea: a2 7f        	ld	t6, 0x28(sp)
   16fec: 82 78        	ld	a7, 0x20(sp)
   16fee: 56 84        	mv	s0, s5
   16ff0: 1b 05 16 00  	addiw	a0, a2, 0x1
   16ff4: 6f f0 6f e6  	j	0x1665a <_vfiprintf_r+0x196>
   16ff8: 81 4d        	li	s11, 0x0
   16ffa: 81 46        	li	a3, 0x0
   16ffc: 13 08 c1 11  	addi	a6, sp, 0x11c
   17000: ed b8        	j	0x168fa <_vfiprintf_r+0x436>
   17002: 81 4d        	li	s11, 0x0
   17004: 13 08 c1 11  	addi	a6, sp, 0x11c
   17008: cd b8        	j	0x168fa <_vfiprintf_r+0x436>
   1700a: 03 35 0a 0a  	ld	a0, 0xa0(s4)
   1700e: ef 50 80 57  	jal	0x1c586 <__retarget_lock_acquire_recursive>
   17012: 83 17 0a 01  	lh	a5, 0x10(s4)
   17016: 6f f0 cf ce  	j	0x16502 <_vfiprintf_r+0x3e>
   1701a: 41 04        	addi	s0, s0, 0x10
   1701c: 1b 85 15 00  	addiw	a0, a1, 0x1
   17020: 2e 86        	mv	a2, a1
   17022: 6f f0 af ea  	j	0x166cc <_vfiprintf_r+0x208>
   17026: 93 f7 06 04  	andi	a5, a3, 0x40
   1702a: 83 ab 0b 00  	lw	s7, 0x0(s7)
   1702e: 63 86 07 28  	beqz	a5, 0x172ba <_vfiprintf_r+0xdf6>
   17032: c2 1b        	slli	s7, s7, 0x30
   17034: 93 db 0b 03  	srli	s7, s7, 0x30
   17038: f5 bc        	j	0x16b34 <_vfiprintf_r+0x670>
   1703a: 93 f6 07 04  	andi	a3, a5, 0x40
   1703e: 03 a7 0b 00  	lw	a4, 0x0(s7)
   17042: 63 84 06 26  	beqz	a3, 0x172aa <_vfiprintf_r+0xde6>
   17046: 42 17        	slli	a4, a4, 0x30
   17048: 41 93        	srli	a4, a4, 0x30
   1704a: ad b4        	j	0x16ab4 <_vfiprintf_r+0x5f0>
   1704c: 83 47 0d 00  	lbu	a5, 0x0(s10)
   17050: 63 00 07 d8  	beqz	a4, 0x165d0 <_vfiprintf_r+0x10c>
   17054: 03 47 07 00  	lbu	a4, 0x0(a4)
   17058: 63 0c 07 d6  	beqz	a4, 0x165d0 <_vfiprintf_r+0x10c>
   1705c: 93 e8 08 40  	ori	a7, a7, 0x400
   17060: 81 28        	sext.w	a7, a7
   17062: 6f f0 ef d6  	j	0x165d0 <_vfiprintf_r+0x10c>
   17066: 01 46        	li	a2, 0x0
   17068: 05 45        	li	a0, 0x1
   1706a: 56 84        	mv	s0, s5
   1706c: 6f f0 8f e5  	j	0x166c4 <_vfiprintf_r+0x200>
   17070: 83 a7 0b 00  	lw	a5, 0x0(s7)
   17074: 85 4d        	li	s11, 0x1
   17076: 85 46        	li	a3, 0x1
   17078: 23 0c f1 0a  	sb	a5, 0xb8(sp)
   1707c: 93 0c 81 0b  	addi	s9, sp, 0xb8
   17080: 35 ba        	j	0x169bc <_vfiprintf_r+0x4f8>
   17082: b6 8e        	mv	t4, a3
   17084: 9b 8d 0e 00  	sext.w	s11, t4
   17088: 32 88        	mv	a6, a2
   1708a: 85 b8        	j	0x168fa <_vfiprintf_r+0x436>
   1708c: fd 5c        	li	s9, -0x1
   1708e: 36 8d        	mv	s10, a3
   17090: 6f f0 4f d4  	j	0x165d4 <_vfiprintf_r+0x110>
   17094: c6 86        	mv	a3, a7
   17096: 61 b4        	j	0x16b1e <_vfiprintf_r+0x65a>
   17098: c6 87        	mv	a5, a7
   1709a: 11 b4        	j	0x16a9e <_vfiprintf_r+0x5da>
   1709c: 17 97 ff ff  	auipc	a4, 0xffff9
   170a0: 13 07 47 25  	addi	a4, a4, 0x254
   170a4: 3a ec        	sd	a4, 0x18(sp)
   170a6: 13 f7 08 02  	andi	a4, a7, 0x20
   170aa: 93 86 8b 00  	addi	a3, s7, 0x8
   170ae: 63 15 07 14  	bnez	a4, 0x171f8 <_vfiprintf_r+0xd34>
   170b2: 13 f7 08 01  	andi	a4, a7, 0x10
   170b6: 63 11 07 14  	bnez	a4, 0x171f8 <_vfiprintf_r+0xd34>
   170ba: 13 f6 08 04  	andi	a2, a7, 0x40
   170be: 03 a7 0b 00  	lw	a4, 0x0(s7)
   170c2: 63 0c 06 20  	beqz	a2, 0x172da <_vfiprintf_r+0xe16>
   170c6: 42 17        	slli	a4, a4, 0x30
   170c8: 41 93        	srli	a4, a4, 0x30
   170ca: 13 f6 18 00  	andi	a2, a7, 0x1
   170ce: 19 ca        	beqz	a2, 0x170e4 <_vfiprintf_r+0xc20>
   170d0: 11 cb        	beqz	a4, 0x170e4 <_vfiprintf_r+0xc20>
   170d2: 93 e8 28 00  	ori	a7, a7, 0x2
   170d6: 13 06 00 03  	li	a2, 0x30
   170da: 23 00 c1 08  	sb	a2, 0x80(sp)
   170de: a3 00 f1 08  	sb	a5, 0x81(sp)
   170e2: 81 28        	sext.w	a7, a7
   170e4: 93 f8 f8 bf  	andi	a7, a7, -0x401
   170e8: 81 28        	sext.w	a7, a7
   170ea: b6 8b        	mv	s7, a3
   170ec: f1 bc        	j	0x16bc8 <_vfiprintf_r+0x704>
   170ee: 17 97 ff ff  	auipc	a4, 0xffff9
   170f2: 13 07 27 51  	addi	a4, a4, 0x512
   170f6: 3a ec        	sd	a4, 0x18(sp)
   170f8: 7d b7        	j	0x170a6 <_vfiprintf_r+0xbe2>
   170fa: 03 47 f1 07  	lbu	a4, 0x7f(sp)
   170fe: 63 0e 07 26  	beqz	a4, 0x1737a <_vfiprintf_r+0xeb6>
   17102: 93 07 f1 07  	addi	a5, sp, 0x7f
   17106: 3e f2        	sd	a5, 0x120(sp)
   17108: 85 47        	li	a5, 0x1
   1710a: 3e f6        	sd	a5, 0x128(sp)
   1710c: 05 45        	li	a0, 0x1
   1710e: 56 84        	mv	s0, s5
   17110: 6f f0 6f d6  	j	0x16676 <_vfiprintf_r+0x1b2>
   17114: 21 46        	li	a2, 0x8
   17116: 81 45        	li	a1, 0x0
   17118: 08 09        	addi	a0, sp, 0x90
   1711a: 72 f4        	sd	t3, 0x28(sp)
   1711c: 46 f0        	sd	a7, 0x20(sp)
   1711e: 42 ed        	sd	a6, 0x98(sp)
   17120: 42 e8        	sd	a6, 0x10(sp)
   17122: ef 50 40 54  	jal	0x1c666 <memset>
   17126: 42 68        	ld	a6, 0x10(sp)
   17128: 82 78        	ld	a7, 0x20(sp)
   1712a: 22 7e        	ld	t3, 0x28(sp)
   1712c: 63 cf 0c 1a  	bltz	s9, 0x172ea <_vfiprintf_r+0xe26>
   17130: 81 4d        	li	s11, 0x0
   17132: 81 46        	li	a3, 0x0
   17134: 22 f0        	sd	s0, 0x20(sp)
   17136: 46 e8        	sd	a7, 0x10(sp)
   17138: 66 84        	mv	s0, s9
   1713a: 42 f4        	sd	a6, 0x28(sp)
   1713c: de 8c        	mv	s9, s7
   1713e: 72 f8        	sd	t3, 0x30(sp)
   17140: ee 8b        	mv	s7, s11
   17142: ea 8d        	mv	s11, s10
   17144: 52 8d        	mv	s10, s4
   17146: 36 8a        	mv	s4, a3
   17148: 1d a0        	j	0x1716e <_vfiprintf_r+0xcaa>
   1714a: 14 09        	addi	a3, sp, 0x90
   1714c: 2c 19        	addi	a1, sp, 0xb8
   1714e: 26 85        	mv	a0, s1
   17150: ef 00 90 38  	jal	0x17cd8 <_wcrtomb_r>
   17154: 9b 07 05 00  	sext.w	a5, a0
   17158: 7d 57        	li	a4, -0x1
   1715a: 63 87 e7 30  	beq	a5, a4, 0x17468 <_vfiprintf_r+0xfa4>
   1715e: bb 07 fa 00  	addw	a5, s4, a5
   17162: 63 4a f4 00  	blt	s0, a5, 0x17176 <_vfiprintf_r+0xcb2>
   17166: 91 0b        	addi	s7, s7, 0x4
   17168: 63 86 87 2e  	beq	a5, s0, 0x17454 <_vfiprintf_r+0xf90>
   1716c: 3e 8a        	mv	s4, a5
   1716e: ea 67        	ld	a5, 0x98(sp)
   17170: de 97        	add	a5, a5, s7
   17172: 90 43        	lw	a2, 0x0(a5)
   17174: 79 fa        	bnez	a2, 0x1714a <_vfiprintf_r+0xc86>
   17176: c2 68        	ld	a7, 0x10(sp)
   17178: 02 74        	ld	s0, 0x20(sp)
   1717a: 22 78        	ld	a6, 0x28(sp)
   1717c: 42 7e        	ld	t3, 0x30(sp)
   1717e: d2 86        	mv	a3, s4
   17180: e6 8b        	mv	s7, s9
   17182: 6a 8a        	mv	s4, s10
   17184: 6e 8d        	mv	s10, s11
   17186: 63 89 06 1c  	beqz	a3, 0x17358 <_vfiprintf_r+0xe94>
   1718a: 93 07 30 06  	li	a5, 0x63
   1718e: 63 d0 d7 22  	bge	a5, a3, 0x173ae <_vfiprintf_r+0xeea>
   17192: 9b 85 16 00  	addiw	a1, a3, 0x1
   17196: 26 85        	mv	a0, s1
   17198: 72 f4        	sd	t3, 0x28(sp)
   1719a: 46 f0        	sd	a7, 0x20(sp)
   1719c: 36 e8        	sd	a3, 0x10(sp)
   1719e: ef c0 3f c1  	jal	0x13db0 <_malloc_r>
   171a2: c2 66        	ld	a3, 0x10(sp)
   171a4: 82 78        	ld	a7, 0x20(sp)
   171a6: 22 7e        	ld	t3, 0x28(sp)
   171a8: 2a 88        	mv	a6, a0
   171aa: 63 05 05 2e  	beqz	a0, 0x17494 <_vfiprintf_r+0xfd0>
   171ae: 2a e8        	sd	a0, 0x10(sp)
   171b0: 21 46        	li	a2, 0x8
   171b2: 81 45        	li	a1, 0x0
   171b4: 08 09        	addi	a0, sp, 0x90
   171b6: 72 fc        	sd	t3, 0x38(sp)
   171b8: 46 f8        	sd	a7, 0x30(sp)
   171ba: 36 f4        	sd	a3, 0x28(sp)
   171bc: 42 f0        	sd	a6, 0x20(sp)
   171be: ef 50 80 4a  	jal	0x1c666 <memset>
   171c2: 02 78        	ld	a6, 0x20(sp)
   171c4: a2 76        	ld	a3, 0x28(sp)
   171c6: 18 09        	addi	a4, sp, 0x90
   171c8: c2 85        	mv	a1, a6
   171ca: 30 09        	addi	a2, sp, 0x98
   171cc: 26 85        	mv	a0, s1
   171ce: ef 00 90 3c  	jal	0x17d96 <_wcsrtombs_r>
   171d2: a2 76        	ld	a3, 0x28(sp)
   171d4: 02 78        	ld	a6, 0x20(sp)
   171d6: c2 78        	ld	a7, 0x30(sp)
   171d8: 62 7e        	ld	t3, 0x38(sp)
   171da: 63 95 a6 2c  	bne	a3, a0, 0x174a4 <_vfiprintf_r+0xfe0>
   171de: 93 ce f6 ff  	not	t4, a3
   171e2: 93 de fe 43  	srai	t4, t4, 0x3f
   171e6: b3 07 d8 00  	add	a5, a6, a3
   171ea: b3 fe d6 01  	and	t4, a3, t4
   171ee: 23 80 07 00  	sb	zero, 0x0(a5)
   171f2: 9b 8d 0e 00  	sext.w	s11, t4
   171f6: 9d a2        	j	0x1735c <_vfiprintf_r+0xe98>
   171f8: 03 b7 0b 00  	ld	a4, 0x0(s7)
   171fc: f9 b5        	j	0x170ca <_vfiprintf_r+0xc06>
   171fe: 74 0a        	addi	a3, sp, 0x11c
   17200: 46 63        	ld	t1, 0x50(sp)
   17202: 93 fe 08 40  	andi	t4, a7, 0x400
   17206: 81 45        	li	a1, 0x0
   17208: 36 86        	mv	a2, a3
   1720a: a9 4d        	li	s11, 0xa
   1720c: 25 47        	li	a4, 0x9
   1720e: 13 0f f0 0f  	li	t5, 0xff
   17212: 39 a0        	j	0x17220 <_vfiprintf_r+0xd5c>
   17214: b3 d7 bb 03  	divu	a5, s7, s11
   17218: 63 77 77 03  	bgeu	a4, s7, 0x17246 <_vfiprintf_r+0xd82>
   1721c: be 8b        	mv	s7, a5
   1721e: 42 86        	mv	a2, a6
   17220: 13 08 f6 ff  	addi	a6, a2, -0x1
   17224: 85 25        	addiw	a1, a1, 0x1
   17226: b3 f7 bb 03  	remu	a5, s7, s11
   1722a: 9b 87 07 03  	addiw	a5, a5, 0x30
   1722e: a3 0f f6 fe  	sb	a5, -0x1(a2)
   17232: e3 81 0e fe  	beqz	t4, 0x17214 <_vfiprintf_r+0xd50>
   17236: 83 47 03 00  	lbu	a5, 0x0(t1)
   1723a: e3 9d b7 fc  	bne	a5, a1, 0x17214 <_vfiprintf_r+0xd50>
   1723e: e3 8b e7 fd  	beq	a5, t5, 0x17214 <_vfiprintf_r+0xd50>
   17242: 63 68 77 0d  	bltu	a4, s7, 0x17312 <_vfiprintf_r+0xe4e>
   17246: 9a e8        	sd	t1, 0x50(sp)
   17248: bb 86 06 41  	subw	a3, a3, a6
   1724c: e6 8e        	mv	t4, s9
   1724e: 63 d3 dc 00  	bge	s9, a3, 0x17254 <_vfiprintf_r+0xd90>
   17252: b6 8e        	mv	t4, a3
   17254: 9b 8d 0e 00  	sext.w	s11, t4
   17258: fe 8b        	mv	s7, t6
   1725a: 6f f0 0f ea  	j	0x168fa <_vfiprintf_r+0x436>
   1725e: be 88        	mv	a7, a5
   17260: 81 47        	li	a5, 0x0
   17262: e3 8e 07 8e  	beqz	a5, 0x16b5e <_vfiprintf_r+0x69a>
   17266: 41 b6        	j	0x16de6 <_vfiprintf_r+0x922>
   17268: 26 85        	mv	a0, s1
   1726a: ef c0 af ba  	jal	0x13614 <__sinit>
   1726e: 6f f0 0f a8  	j	0x164ee <_vfiprintf_r+0x2a>
   17272: 93 e8 08 20  	ori	a7, a7, 0x200
   17276: 83 47 1d 00  	lbu	a5, 0x1(s10)
   1727a: 81 28        	sext.w	a7, a7
   1727c: 05 0d        	addi	s10, s10, 0x1
   1727e: 6f f0 2f b5  	j	0x165d0 <_vfiprintf_r+0x10c>
   17282: 93 e8 08 02  	ori	a7, a7, 0x20
   17286: 83 47 1d 00  	lbu	a5, 0x1(s10)
   1728a: 81 28        	sext.w	a7, a7
   1728c: 05 0d        	addi	s10, s10, 0x1
   1728e: 6f f0 2f b4  	j	0x165d0 <_vfiprintf_r+0x10c>
   17292: 99 47        	li	a5, 0x6
   17294: 9b 86 0c 00  	sext.w	a3, s9
   17298: 63 ef 97 0d  	bltu	a5, s9, 0x17376 <_vfiprintf_r+0xeb2>
   1729c: b6 8d        	mv	s11, a3
   1729e: 17 98 ff ff  	auipc	a6, 0xffff9
   172a2: 13 08 28 3a  	addi	a6, a6, 0x3a2
   172a6: 6f f0 4f b9  	j	0x1663a <_vfiprintf_r+0x176>
   172aa: 93 f6 07 20  	andi	a3, a5, 0x200
   172ae: 63 8c 06 0e  	beqz	a3, 0x173a6 <_vfiprintf_r+0xee2>
   172b2: 13 77 f7 0f  	andi	a4, a4, 0xff
   172b6: 6f f0 ef ff  	j	0x16ab4 <_vfiprintf_r+0x5f0>
   172ba: 93 f7 06 20  	andi	a5, a3, 0x200
   172be: f9 cf        	beqz	a5, 0x1739c <_vfiprintf_r+0xed8>
   172c0: 93 fb fb 0f  	andi	s7, s7, 0xff
   172c4: 85 b8        	j	0x16b34 <_vfiprintf_r+0x670>
   172c6: 93 f7 08 20  	andi	a5, a7, 0x200
   172ca: f1 c7        	beqz	a5, 0x17396 <_vfiprintf_r+0xed2>
   172cc: 9b 9b 8b 01  	slliw	s7, s7, 0x18
   172d0: 9b db 8b 41  	sraiw	s7, s7, 0x18
   172d4: de 87        	mv	a5, s7
   172d6: 6f f0 af cd  	j	0x167b0 <_vfiprintf_r+0x2ec>
   172da: 13 f6 08 20  	andi	a2, a7, 0x200
   172de: 4d ca        	beqz	a2, 0x17390 <_vfiprintf_r+0xecc>
   172e0: 13 77 f7 0f  	andi	a4, a4, 0xff
   172e4: dd b3        	j	0x170ca <_vfiprintf_r+0xc06>
   172e6: 01 47        	li	a4, 0x0
   172e8: fd bc        	j	0x16de6 <_vfiprintf_r+0x922>
   172ea: 81 46        	li	a3, 0x0
   172ec: 18 09        	addi	a4, sp, 0x90
   172ee: 30 09        	addi	a2, sp, 0x98
   172f0: 81 45        	li	a1, 0x0
   172f2: 26 85        	mv	a0, s1
   172f4: 72 f4        	sd	t3, 0x28(sp)
   172f6: 42 f0        	sd	a6, 0x20(sp)
   172f8: 46 e8        	sd	a7, 0x10(sp)
   172fa: ef 00 d0 29  	jal	0x17d96 <_wcsrtombs_r>
   172fe: 9b 06 05 00  	sext.w	a3, a0
   17302: fd 57        	li	a5, -0x1
   17304: c2 68        	ld	a7, 0x10(sp)
   17306: 02 78        	ld	a6, 0x20(sp)
   17308: 22 7e        	ld	t3, 0x28(sp)
   1730a: 63 85 f6 18  	beq	a3, a5, 0x17494 <_vfiprintf_r+0xfd0>
   1730e: 42 ed        	sd	a6, 0x98(sp)
   17310: 9d bd        	j	0x17186 <_vfiprintf_r+0xcc2>
   17312: a6 67        	ld	a5, 0x48(sp)
   17314: e6 65        	ld	a1, 0x58(sp)
   17316: b6 e8        	sd	a3, 0x50(sp)
   17318: 33 08 f8 40  	sub	a6, a6, a5
   1731c: 3e 86        	mv	a2, a5
   1731e: 42 85        	mv	a0, a6
   17320: fe e0        	sd	t6, 0x40(sp)
   17322: 76 fc        	sd	t4, 0x38(sp)
   17324: 1a f8        	sd	t1, 0x30(sp)
   17326: 72 f4        	sd	t3, 0x28(sp)
   17328: 46 f0        	sd	a7, 0x20(sp)
   1732a: 42 e8        	sd	a6, 0x10(sp)
   1732c: ef 30 80 1f  	jal	0x1a524 <strncpy>
   17330: 42 73        	ld	t1, 0x30(sp)
   17332: a9 47        	li	a5, 0xa
   17334: b3 d7 fb 02  	divu	a5, s7, a5
   17338: 03 46 13 00  	lbu	a2, 0x1(t1)
   1733c: 42 68        	ld	a6, 0x10(sp)
   1733e: 82 78        	ld	a7, 0x20(sp)
   17340: 33 36 c0 00  	snez	a2, a2
   17344: 22 7e        	ld	t3, 0x28(sp)
   17346: e2 7e        	ld	t4, 0x38(sp)
   17348: 86 6f        	ld	t6, 0x40(sp)
   1734a: c6 66        	ld	a3, 0x50(sp)
   1734c: 32 93        	add	t1, t1, a2
   1734e: 81 45        	li	a1, 0x0
   17350: 25 47        	li	a4, 0x9
   17352: 13 0f f0 0f  	li	t5, 0xff
   17356: d9 b5        	j	0x1721c <_vfiprintf_r+0xd58>
   17358: 81 4d        	li	s11, 0x0
   1735a: 02 e8        	sd	zero, 0x10(sp)
   1735c: 83 47 f1 07  	lbu	a5, 0x7f(sp)
   17360: 81 4c        	li	s9, 0x0
   17362: 81 4f        	li	t6, 0x0
   17364: 63 9f 07 d8  	bnez	a5, 0x16902 <_vfiprintf_r+0x43e>
   17368: 6f f0 8f ad  	j	0x16640 <_vfiprintf_r+0x17c>
   1736c: 05 45        	li	a0, 0x1
   1736e: 01 46        	li	a2, 0x0
   17370: 56 84        	mv	s0, s5
   17372: 6f f0 af b5  	j	0x166cc <_vfiprintf_r+0x208>
   17376: 99 46        	li	a3, 0x6
   17378: 15 b7        	j	0x1729c <_vfiprintf_r+0xdd8>
   1737a: 01 46        	li	a2, 0x0
   1737c: 05 45        	li	a0, 0x1
   1737e: 56 84        	mv	s0, s5
   17380: 6f f0 cf af  	j	0x1667c <_vfiprintf_r+0x1b8>
   17384: a2 67        	ld	a5, 0x8(sp)
   17386: a1 0b        	addi	s7, s7, 0x8
   17388: 23 10 f7 00  	sh	a5, 0x0(a4)
   1738c: 6f f0 cf 9f  	j	0x16588 <_vfiprintf_r+0xc4>
   17390: 02 17        	slli	a4, a4, 0x20
   17392: 01 93        	srli	a4, a4, 0x20
   17394: 1d bb        	j	0x170ca <_vfiprintf_r+0xc06>
   17396: de 87        	mv	a5, s7
   17398: 6f f0 8f c1  	j	0x167b0 <_vfiprintf_r+0x2ec>
   1739c: 82 1b        	slli	s7, s7, 0x20
   1739e: 93 db 0b 02  	srli	s7, s7, 0x20
   173a2: 6f f0 2f f9  	j	0x16b34 <_vfiprintf_r+0x670>
   173a6: 02 17        	slli	a4, a4, 0x20
   173a8: 01 93        	srli	a4, a4, 0x20
   173aa: 6f f0 af f0  	j	0x16ab4 <_vfiprintf_r+0x5f0>
   173ae: 02 e8        	sd	zero, 0x10(sp)
   173b0: 13 08 81 0b  	addi	a6, sp, 0xb8
   173b4: f5 bb        	j	0x171b0 <_vfiprintf_r+0xcec>
   173b6: 03 35 0a 0a  	ld	a0, 0xa0(s4)
   173ba: ef 50 80 1d  	jal	0x1c592 <__retarget_lock_release_recursive>
   173be: 6f f0 8f bb  	j	0x16776 <_vfiprintf_r+0x2b2>
   173c2: e6 8d        	mv	s11, s9
   173c4: e6 86        	mv	a3, s9
   173c6: 59 bf        	j	0x1735c <_vfiprintf_r+0xe98>
   173c8: 17 93 ff ff  	auipc	t1, 0xffff9
   173cc: 13 03 03 59  	addi	t1, t1, 0x590
   173d0: e1 b4        	j	0x16e98 <_vfiprintf_r+0x9d4>
   173d2: 42 85        	mv	a0, a6
   173d4: 42 f0        	sd	a6, 0x20(sp)
   173d6: ef 50 00 48  	jal	0x1c856 <strlen>
   173da: 9b 06 05 00  	sext.w	a3, a0
   173de: 93 ce f6 ff  	not	t4, a3
   173e2: 93 de fe 43  	srai	t4, t4, 0x3f
   173e6: 02 78        	ld	a6, 0x20(sp)
   173e8: a2 78        	ld	a7, 0x28(sp)
   173ea: 42 7e        	ld	t3, 0x30(sp)
   173ec: b3 fd de 00  	and	s11, t4, a3
   173f0: 02 e8        	sd	zero, 0x10(sp)
   173f2: ad b7        	j	0x1735c <_vfiprintf_r+0xe98>
   173f4: fe 8b        	mv	s7, t6
   173f6: 93 07 00 03  	li	a5, 0x30
   173fa: 6f f0 af ce  	j	0x168e4 <_vfiprintf_r+0x420>
   173fe: 10 11        	addi	a2, sp, 0xa0
   17400: d2 85        	mv	a1, s4
   17402: 26 85        	mv	a0, s1
   17404: ef e0 1f ff  	jal	0x163f4 <__sprint_r.part.0>
   17408: 63 02 05 c2  	beqz	a0, 0x1682c <_vfiprintf_r+0x368>
   1740c: 6f f0 2f c4  	j	0x1684e <_vfiprintf_r+0x38a>
   17410: 1b 87 16 00  	addiw	a4, a3, 0x1
   17414: 17 93 ff ff  	auipc	t1, 0xffff9
   17418: 13 03 43 54  	addi	t1, t1, 0x544
   1741c: 39 be        	j	0x16f3a <_vfiprintf_r+0xa76>
   1741e: aa 85        	mv	a1, a0
   17420: 97 9f ff ff  	auipc	t6, 0xffff9
   17424: 93 8f 8f 52  	addi	t6, t6, 0x528
   17428: 51 b0        	j	0x16cac <_vfiprintf_r+0x7e8>
   1742a: 83 27 0a 0b  	lw	a5, 0xb0(s4)
   1742e: 85 8b        	andi	a5, a5, 0x1
   17430: 91 eb        	bnez	a5, 0x17444 <_vfiprintf_r+0xf80>
   17432: 83 57 0a 01  	lhu	a5, 0x10(s4)
   17436: 93 f7 07 20  	andi	a5, a5, 0x200
   1743a: 89 e7        	bnez	a5, 0x17444 <_vfiprintf_r+0xf80>
   1743c: 03 35 0a 0a  	ld	a0, 0xa0(s4)
   17440: ef 50 20 15  	jal	0x1c592 <__retarget_lock_release_recursive>
   17444: fd 57        	li	a5, -0x1
   17446: 3e e4        	sd	a5, 0x8(sp)
   17448: 6f f0 cf c2  	j	0x16874 <_vfiprintf_r+0x3b0>
   1744c: 1c c3        	sw	a5, 0x0(a4)
   1744e: a1 0b        	addi	s7, s7, 0x8
   17450: 6f f0 8f 93  	j	0x16588 <_vfiprintf_r+0xc4>
   17454: e6 8b        	mv	s7, s9
   17456: a2 8c        	mv	s9, s0
   17458: 6a 8a        	mv	s4, s10
   1745a: c2 68        	ld	a7, 0x10(sp)
   1745c: 22 78        	ld	a6, 0x28(sp)
   1745e: 42 7e        	ld	t3, 0x30(sp)
   17460: 02 74        	ld	s0, 0x20(sp)
   17462: 6e 8d        	mv	s10, s11
   17464: e6 86        	mv	a3, s9
   17466: 05 b3        	j	0x17186 <_vfiprintf_r+0xcc2>
   17468: 83 17 0d 01  	lh	a5, 0x10(s10)
   1746c: 6a 8a        	mv	s4, s10
   1746e: 93 e7 07 04  	ori	a5, a5, 0x40
   17472: 23 18 fd 00  	sh	a5, 0x10(s10)
   17476: 6f f0 cf bd  	j	0x16852 <_vfiprintf_r+0x38e>
   1747a: 83 a7 0b 00  	lw	a5, 0x0(s7)
   1747e: a1 0b        	addi	s7, s7, 0x8
   17480: 9b 8c 07 00  	sext.w	s9, a5
   17484: 63 d3 07 00  	bgez	a5, 0x1748a <_vfiprintf_r+0xfc6>
   17488: fd 5c        	li	s9, -0x1
   1748a: 83 47 1d 00  	lbu	a5, 0x1(s10)
   1748e: 36 8d        	mv	s10, a3
   17490: 6f f0 0f 94  	j	0x165d0 <_vfiprintf_r+0x10c>
   17494: 83 17 0a 01  	lh	a5, 0x10(s4)
   17498: 93 e7 07 04  	ori	a5, a5, 0x40
   1749c: 23 18 fa 00  	sh	a5, 0x10(s4)
   174a0: 6f f0 2f bb  	j	0x16852 <_vfiprintf_r+0x38e>
   174a4: 83 57 0a 01  	lhu	a5, 0x10(s4)
   174a8: 93 e7 07 04  	ori	a5, a5, 0x40
   174ac: 23 18 fa 00  	sh	a5, 0x10(s4)
   174b0: 6f f0 2f b9  	j	0x16842 <_vfiprintf_r+0x37e>

00000000000174b4 <vfiprintf>:
   174b4: b2 86        	mv	a3, a2
   174b6: 2e 86        	mv	a2, a1
   174b8: aa 85        	mv	a1, a0
   174ba: 17 85 00 00  	auipc	a0, 0x8
   174be: 03 35 e5 6b  	ld	a0, 0x6be(a0)
   174c2: 6f f0 2f 80  	j	0x164c4 <_vfiprintf_r>

00000000000174c6 <__sbprintf>:
   174c6: 13 01 01 b1  	addi	sp, sp, -0x4f0
   174ca: 03 d7 25 01  	lhu	a4, 0x12(a1)
   174ce: 83 d7 05 01  	lhu	a5, 0x10(a1)
   174d2: 23 30 81 4e  	sd	s0, 0x4e0(sp)
   174d6: 2e 84        	mv	s0, a1
   174d8: c1 65        	lui	a1, 0x10
   174da: f5 35        	addiw	a1, a1, -0x3
   174dc: 03 23 04 0b  	lw	t1, 0xb0(s0)
   174e0: 83 38 04 03  	ld	a7, 0x30(s0)
   174e4: 03 38 04 04  	ld	a6, 0x40(s0)
   174e8: 1b 17 07 01  	slliw	a4, a4, 0x10
   174ec: ed 8f        	and	a5, a5, a1
   174ee: d9 8f        	or	a5, a5, a4
   174f0: 93 05 00 40  	li	a1, 0x400
   174f4: 23 38 21 4d  	sd	s2, 0x4d0(sp)
   174f8: 3e cc        	sw	a5, 0x18(sp)
   174fa: 2a 89        	mv	s2, a0
   174fc: 9c 01        	addi	a5, sp, 0xc0
   174fe: 28 11        	addi	a0, sp, 0xa8
   17500: 23 34 11 4e  	sd	ra, 0x4e8(sp)
   17504: 23 3c 91 4c  	sd	s1, 0x4d8(sp)
   17508: 23 34 31 4d  	sd	s3, 0x4c8(sp)
   1750c: b2 84        	mv	s1, a2
   1750e: b6 89        	mv	s3, a3
   17510: 1a dd        	sw	t1, 0xb8(sp)
   17512: 46 fc        	sd	a7, 0x38(sp)
   17514: c2 e4        	sd	a6, 0x48(sp)
   17516: 3e e4        	sd	a5, 0x8(sp)
   17518: 3e f0        	sd	a5, 0x20(sp)
   1751a: 2e ca        	sw	a1, 0x14(sp)
   1751c: 2e d4        	sw	a1, 0x28(sp)
   1751e: 02 d8        	sw	zero, 0x30(sp)
   17520: ef 50 e0 05  	jal	0x1c57e <__retarget_lock_init_recursive>
   17524: 26 86        	mv	a2, s1
   17526: ce 86        	mv	a3, s3
   17528: 2c 00        	addi	a1, sp, 0x8
   1752a: 4a 85        	mv	a0, s2
   1752c: ef e0 9f f9  	jal	0x164c4 <_vfiprintf_r>
   17530: aa 84        	mv	s1, a0
   17532: 63 5e 05 02  	bgez	a0, 0x1756e <__sbprintf+0xa8>
   17536: 83 57 81 01  	lhu	a5, 0x18(sp)
   1753a: 93 f7 07 04  	andi	a5, a5, 0x40
   1753e: 99 c7        	beqz	a5, 0x1754c <__sbprintf+0x86>
   17540: 83 57 04 01  	lhu	a5, 0x10(s0)
   17544: 93 e7 07 04  	ori	a5, a5, 0x40
   17548: 23 18 f4 00  	sh	a5, 0x10(s0)
   1754c: 2a 75        	ld	a0, 0xa8(sp)
   1754e: ef 50 40 03  	jal	0x1c582 <__retarget_lock_close_recursive>
   17552: 83 30 81 4e  	ld	ra, 0x4e8(sp)
   17556: 03 34 01 4e  	ld	s0, 0x4e0(sp)
   1755a: 03 39 01 4d  	ld	s2, 0x4d0(sp)
   1755e: 83 39 81 4c  	ld	s3, 0x4c8(sp)
   17562: 26 85        	mv	a0, s1
   17564: 83 34 81 4d  	ld	s1, 0x4d8(sp)
   17568: 13 01 01 4f  	addi	sp, sp, 0x4f0
   1756c: 82 80        	ret
   1756e: 2c 00        	addi	a1, sp, 0x8
   17570: 4a 85        	mv	a0, s2
   17572: ef c0 4f bf  	jal	0x13966 <_fflush_r>
   17576: 61 d1        	beqz	a0, 0x17536 <__sbprintf+0x70>
   17578: fd 54        	li	s1, -0x1
   1757a: 75 bf        	j	0x17536 <__sbprintf+0x70>

000000000001757c <__sfvwrite_r>:
   1757c: 1c 6a        	ld	a5, 0x10(a2)
   1757e: 63 8b 07 1c  	beqz	a5, 0x17754 <__sfvwrite_r+0x1d8>
   17582: 03 97 05 01  	lh	a4, 0x10(a1)
   17586: 1d 71        	addi	sp, sp, -0x60
   17588: a2 e8        	sd	s0, 0x50(sp)
   1758a: 56 f4        	sd	s5, 0x28(sp)
   1758c: 5e ec        	sd	s7, 0x18(sp)
   1758e: 86 ec        	sd	ra, 0x58(sp)
   17590: 93 77 87 00  	andi	a5, a4, 0x8
   17594: b2 8b        	mv	s7, a2
   17596: aa 8a        	mv	s5, a0
   17598: 2e 84        	mv	s0, a1
   1759a: b5 c7        	beqz	a5, 0x17606 <__sfvwrite_r+0x8a>
   1759c: 9c 6d        	ld	a5, 0x18(a1)
   1759e: a5 c7        	beqz	a5, 0x17606 <__sfvwrite_r+0x8a>
   175a0: a6 e4        	sd	s1, 0x48(sp)
   175a2: ca e0        	sd	s2, 0x40(sp)
   175a4: 4e fc        	sd	s3, 0x38(sp)
   175a6: 52 f8        	sd	s4, 0x30(sp)
   175a8: 93 77 27 00  	andi	a5, a4, 0x2
   175ac: 83 b4 0b 00  	ld	s1, 0x0(s7)
   175b0: a5 cf        	beqz	a5, 0x17628 <__sfvwrite_r+0xac>
   175b2: 3c 60        	ld	a5, 0x40(s0)
   175b4: 0c 78        	ld	a1, 0x30(s0)
   175b6: 37 0a 00 80  	lui	s4, 0x80000
   175ba: 81 49        	li	s3, 0x0
   175bc: 01 49        	li	s2, 0x0
   175be: 13 4a 0a c0  	xori	s4, s4, -0x400
   175c2: 4e 86        	mv	a2, s3
   175c4: 56 85        	mv	a0, s5
   175c6: 63 0a 09 02  	beqz	s2, 0x175fa <__sfvwrite_r+0x7e>
   175ca: ca 86        	mv	a3, s2
   175cc: 63 73 2a 01  	bgeu	s4, s2, 0x175d2 <__sfvwrite_r+0x56>
   175d0: d2 86        	mv	a3, s4
   175d2: 81 26        	sext.w	a3, a3
   175d4: 82 97        	jalr	a5
   175d6: 63 58 a0 2e  	blez	a0, 0x178c6 <__sfvwrite_r+0x34a>
   175da: 83 b7 0b 01  	ld	a5, 0x10(s7)
   175de: aa 99        	add	s3, s3, a0
   175e0: 33 09 a9 40  	sub	s2, s2, a0
   175e4: 89 8f        	sub	a5, a5, a0
   175e6: 23 b8 fb 00  	sd	a5, 0x10(s7)
   175ea: 63 81 07 12  	beqz	a5, 0x1770c <__sfvwrite_r+0x190>
   175ee: 3c 60        	ld	a5, 0x40(s0)
   175f0: 0c 78        	ld	a1, 0x30(s0)
   175f2: 4e 86        	mv	a2, s3
   175f4: 56 85        	mv	a0, s5
   175f6: e3 1a 09 fc  	bnez	s2, 0x175ca <__sfvwrite_r+0x4e>
   175fa: 83 b9 04 00  	ld	s3, 0x0(s1)
   175fe: 03 b9 84 00  	ld	s2, 0x8(s1)
   17602: c1 04        	addi	s1, s1, 0x10
   17604: 7d bf        	j	0x175c2 <__sfvwrite_r+0x46>
   17606: a2 85        	mv	a1, s0
   17608: 56 85        	mv	a0, s5
   1760a: ef 20 d0 1e  	jal	0x19ff6 <__swsetup_r>
   1760e: 63 1c 05 12  	bnez	a0, 0x17746 <__sfvwrite_r+0x1ca>
   17612: 03 17 04 01  	lh	a4, 0x10(s0)
   17616: a6 e4        	sd	s1, 0x48(sp)
   17618: ca e0        	sd	s2, 0x40(sp)
   1761a: 4e fc        	sd	s3, 0x38(sp)
   1761c: 52 f8        	sd	s4, 0x30(sp)
   1761e: 93 77 27 00  	andi	a5, a4, 0x2
   17622: 83 b4 0b 00  	ld	s1, 0x0(s7)
   17626: d1 f7        	bnez	a5, 0x175b2 <__sfvwrite_r+0x36>
   17628: 5a f0        	sd	s6, 0x20(sp)
   1762a: 62 e8        	sd	s8, 0x10(sp)
   1762c: 66 e4        	sd	s9, 0x8(sp)
   1762e: 93 77 17 00  	andi	a5, a4, 0x1
   17632: ad eb        	bnez	a5, 0x176a4 <__sfvwrite_r+0x128>
   17634: 03 2a c4 00  	lw	s4, 0xc(s0)
   17638: 1c 60        	ld	a5, 0x0(s0)
   1763a: 37 0b 00 80  	lui	s6, 0x80000
   1763e: 01 4c        	li	s8, 0x0
   17640: 01 49        	li	s2, 0x0
   17642: 13 4b fb ff  	not	s6, s6
   17646: 3e 85        	mv	a0, a5
   17648: 63 08 09 04  	beqz	s2, 0x17698 <__sfvwrite_r+0x11c>
   1764c: 93 76 07 20  	andi	a3, a4, 0x200
   17650: 63 86 06 14  	beqz	a3, 0x1779c <__sfvwrite_r+0x220>
   17654: 63 75 49 1b  	bgeu	s2, s4, 0x177fe <__sfvwrite_r+0x282>
   17658: ca 8c        	mv	s9, s2
   1765a: 4a 8a        	mv	s4, s2
   1765c: 52 86        	mv	a2, s4
   1765e: e2 85        	mv	a1, s8
   17660: ef 40 50 73  	jal	0x1c594 <memmove>
   17664: 58 44        	lw	a4, 0xc(s0)
   17666: 1c 60        	ld	a5, 0x0(s0)
   17668: ca 89        	mv	s3, s2
   1766a: 3b 07 97 41  	subw	a4, a4, s9
   1766e: 3e 9a        	add	s4, s4, a5
   17670: 58 c4        	sw	a4, 0xc(s0)
   17672: 23 30 44 01  	sd	s4, 0x0(s0)
   17676: 01 49        	li	s2, 0x0
   17678: 83 b7 0b 01  	ld	a5, 0x10(s7)
   1767c: 4e 9c        	add	s8, s8, s3
   1767e: b3 87 37 41  	sub	a5, a5, s3
   17682: 23 b8 fb 00  	sd	a5, 0x10(s7)
   17686: c1 c3        	beqz	a5, 0x17706 <__sfvwrite_r+0x18a>
   17688: 1c 60        	ld	a5, 0x0(s0)
   1768a: 03 17 04 01  	lh	a4, 0x10(s0)
   1768e: 03 2a c4 00  	lw	s4, 0xc(s0)
   17692: 3e 85        	mv	a0, a5
   17694: e3 1c 09 fa  	bnez	s2, 0x1764c <__sfvwrite_r+0xd0>
   17698: 03 bc 04 00  	ld	s8, 0x0(s1)
   1769c: 03 b9 84 00  	ld	s2, 0x8(s1)
   176a0: c1 04        	addi	s1, s1, 0x10
   176a2: 55 b7        	j	0x17646 <__sfvwrite_r+0xca>
   176a4: 01 4b        	li	s6, 0x0
   176a6: 01 45        	li	a0, 0x0
   176a8: 81 4c        	li	s9, 0x0
   176aa: 01 4c        	li	s8, 0x0
   176ac: 63 06 0c 0a  	beqz	s8, 0x17758 <__sfvwrite_r+0x1dc>
   176b0: 45 cd        	beqz	a0, 0x17768 <__sfvwrite_r+0x1ec>
   176b2: 5a 8a        	mv	s4, s6
   176b4: 63 73 6c 01  	bgeu	s8, s6, 0x176ba <__sfvwrite_r+0x13e>
   176b8: 62 8a        	mv	s4, s8
   176ba: 08 60        	ld	a0, 0x0(s0)
   176bc: 18 6c        	ld	a4, 0x18(s0)
   176be: 5c 44        	lw	a5, 0xc(s0)
   176c0: 14 50        	lw	a3, 0x20(s0)
   176c2: 52 89        	mv	s2, s4
   176c4: 63 76 a7 00  	bgeu	a4, a0, 0x176d0 <__sfvwrite_r+0x154>
   176c8: bb 89 d7 00  	addw	s3, a5, a3
   176cc: 63 c9 49 0b  	blt	s3, s4, 0x1777e <__sfvwrite_r+0x202>
   176d0: 63 43 da 1a  	blt	s4, a3, 0x17876 <__sfvwrite_r+0x2fa>
   176d4: 3c 60        	ld	a5, 0x40(s0)
   176d6: 0c 78        	ld	a1, 0x30(s0)
   176d8: 66 86        	mv	a2, s9
   176da: 56 85        	mv	a0, s5
   176dc: 82 97        	jalr	a5
   176de: 2a 89        	mv	s2, a0
   176e0: 63 56 a0 04  	blez	a0, 0x1772c <__sfvwrite_r+0x1b0>
   176e4: 9b 07 05 00  	sext.w	a5, a0
   176e8: 3b 0b fb 40  	subw	s6, s6, a5
   176ec: 05 45        	li	a0, 0x1
   176ee: 63 0a 0b 02  	beqz	s6, 0x17722 <__sfvwrite_r+0x1a6>
   176f2: 83 b7 0b 01  	ld	a5, 0x10(s7)
   176f6: ca 9c        	add	s9, s9, s2
   176f8: 33 0c 2c 41  	sub	s8, s8, s2
   176fc: b3 87 27 41  	sub	a5, a5, s2
   17700: 23 b8 fb 00  	sd	a5, 0x10(s7)
   17704: c5 f7        	bnez	a5, 0x176ac <__sfvwrite_r+0x130>
   17706: 02 7b        	ld	s6, 0x20(sp)
   17708: 42 6c        	ld	s8, 0x10(sp)
   1770a: a2 6c        	ld	s9, 0x8(sp)
   1770c: e6 60        	ld	ra, 0x58(sp)
   1770e: 46 64        	ld	s0, 0x50(sp)
   17710: a6 64        	ld	s1, 0x48(sp)
   17712: 06 69        	ld	s2, 0x40(sp)
   17714: e2 79        	ld	s3, 0x38(sp)
   17716: 42 7a        	ld	s4, 0x30(sp)
   17718: a2 7a        	ld	s5, 0x28(sp)
   1771a: e2 6b        	ld	s7, 0x18(sp)
   1771c: 01 45        	li	a0, 0x0
   1771e: 25 61        	addi	sp, sp, 0x60
   17720: 82 80        	ret
   17722: a2 85        	mv	a1, s0
   17724: 56 85        	mv	a0, s5
   17726: ef c0 0f a4  	jal	0x13966 <_fflush_r>
   1772a: 61 d5        	beqz	a0, 0x176f2 <__sfvwrite_r+0x176>
   1772c: 83 17 04 01  	lh	a5, 0x10(s0)
   17730: 02 7b        	ld	s6, 0x20(sp)
   17732: 42 6c        	ld	s8, 0x10(sp)
   17734: a2 6c        	ld	s9, 0x8(sp)
   17736: a6 64        	ld	s1, 0x48(sp)
   17738: 06 69        	ld	s2, 0x40(sp)
   1773a: e2 79        	ld	s3, 0x38(sp)
   1773c: 42 7a        	ld	s4, 0x30(sp)
   1773e: 93 e7 07 04  	ori	a5, a5, 0x40
   17742: 23 18 f4 00  	sh	a5, 0x10(s0)
   17746: e6 60        	ld	ra, 0x58(sp)
   17748: 46 64        	ld	s0, 0x50(sp)
   1774a: a2 7a        	ld	s5, 0x28(sp)
   1774c: e2 6b        	ld	s7, 0x18(sp)
   1774e: 7d 55        	li	a0, -0x1
   17750: 25 61        	addi	sp, sp, 0x60
   17752: 82 80        	ret
   17754: 01 45        	li	a0, 0x0
   17756: 82 80        	ret
   17758: 03 bc 84 00  	ld	s8, 0x8(s1)
   1775c: a6 87        	mv	a5, s1
   1775e: c1 04        	addi	s1, s1, 0x10
   17760: e3 0c 0c fe  	beqz	s8, 0x17758 <__sfvwrite_r+0x1dc>
   17764: 83 bc 07 00  	ld	s9, 0x0(a5)
   17768: 62 86        	mv	a2, s8
   1776a: a9 45        	li	a1, 0xa
   1776c: 66 85        	mv	a0, s9
   1776e: ef 20 90 50  	jal	0x1a476 <memchr>
   17772: 63 07 05 14  	beqz	a0, 0x178c0 <__sfvwrite_r+0x344>
   17776: 05 05        	addi	a0, a0, 0x1
   17778: 3b 0b 95 41  	subw	s6, a0, s9
   1777c: 1d bf        	j	0x176b2 <__sfvwrite_r+0x136>
   1777e: e6 85        	mv	a1, s9
   17780: 4e 86        	mv	a2, s3
   17782: ef 40 30 61  	jal	0x1c594 <memmove>
   17786: 1c 60        	ld	a5, 0x0(s0)
   17788: a2 85        	mv	a1, s0
   1778a: 56 85        	mv	a0, s5
   1778c: ce 97        	add	a5, a5, s3
   1778e: 1c e0        	sd	a5, 0x0(s0)
   17790: ef c0 6f 9d  	jal	0x13966 <_fflush_r>
   17794: 41 fd        	bnez	a0, 0x1772c <__sfvwrite_r+0x1b0>
   17796: ce 87        	mv	a5, s3
   17798: 4e 89        	mv	s2, s3
   1779a: b9 b7        	j	0x176e8 <__sfvwrite_r+0x16c>
   1779c: 18 6c        	ld	a4, 0x18(s0)
   1779e: 63 67 f7 02  	bltu	a4, a5, 0x177cc <__sfvwrite_r+0x250>
   177a2: 18 50        	lw	a4, 0x20(s0)
   177a4: 63 64 e9 02  	bltu	s2, a4, 0x177cc <__sfvwrite_r+0x250>
   177a8: ca 86        	mv	a3, s2
   177aa: 63 73 2b 01  	bgeu	s6, s2, 0x177b0 <__sfvwrite_r+0x234>
   177ae: da 86        	mv	a3, s6
   177b0: 3b e7 e6 02  	remw	a4, a3, a4
   177b4: 3c 60        	ld	a5, 0x40(s0)
   177b6: 0c 78        	ld	a1, 0x30(s0)
   177b8: 62 86        	mv	a2, s8
   177ba: 56 85        	mv	a0, s5
   177bc: 99 9e        	subw	a3, a3, a4
   177be: 82 97        	jalr	a5
   177c0: aa 89        	mv	s3, a0
   177c2: e3 55 a0 f6  	blez	a0, 0x1772c <__sfvwrite_r+0x1b0>
   177c6: 33 09 39 41  	sub	s2, s2, s3
   177ca: 7d b5        	j	0x17678 <__sfvwrite_r+0xfc>
   177cc: d2 89        	mv	s3, s4
   177ce: 63 73 49 01  	bgeu	s2, s4, 0x177d4 <__sfvwrite_r+0x258>
   177d2: ca 89        	mv	s3, s2
   177d4: 3e 85        	mv	a0, a5
   177d6: 4e 86        	mv	a2, s3
   177d8: e2 85        	mv	a1, s8
   177da: ef 40 b0 5b  	jal	0x1c594 <memmove>
   177de: 58 44        	lw	a4, 0xc(s0)
   177e0: 1c 60        	ld	a5, 0x0(s0)
   177e2: bb 06 37 41  	subw	a3, a4, s3
   177e6: ce 97        	add	a5, a5, s3
   177e8: 54 c4        	sw	a3, 0xc(s0)
   177ea: 1c e0        	sd	a5, 0x0(s0)
   177ec: e9 fe        	bnez	a3, 0x177c6 <__sfvwrite_r+0x24a>
   177ee: a2 85        	mv	a1, s0
   177f0: 56 85        	mv	a0, s5
   177f2: ef c0 4f 97  	jal	0x13966 <_fflush_r>
   177f6: 1d f9        	bnez	a0, 0x1772c <__sfvwrite_r+0x1b0>
   177f8: 33 09 39 41  	sub	s2, s2, s3
   177fc: b5 bd        	j	0x17678 <__sfvwrite_r+0xfc>
   177fe: 93 76 07 48  	andi	a3, a4, 0x480
   17802: c1 ca        	beqz	a3, 0x17892 <__sfvwrite_r+0x316>
   17804: 10 50        	lw	a2, 0x20(s0)
   17806: 0c 6c        	ld	a1, 0x18(s0)
   17808: 9b 16 16 00  	slliw	a3, a2, 0x1
   1780c: b1 9e        	addw	a3, a3, a2
   1780e: 8d 8f        	sub	a5, a5, a1
   17810: 9b d9 f6 01  	srliw	s3, a3, 0x1f
   17814: 9b 8c 07 00  	sext.w	s9, a5
   17818: bb 89 d9 00  	addw	s3, s3, a3
   1781c: 93 86 1c 00  	addi	a3, s9, 0x1
   17820: 9b d9 19 40  	sraiw	s3, s3, 0x1
   17824: ca 96        	add	a3, a3, s2
   17826: 63 f6 d9 00  	bgeu	s3, a3, 0x17832 <__sfvwrite_r+0x2b6>
   1782a: 9b 86 17 00  	addiw	a3, a5, 0x1
   1782e: bb 89 26 01  	addw	s3, a3, s2
   17832: 13 77 07 40  	andi	a4, a4, 0x400
   17836: 25 c3        	beqz	a4, 0x17896 <__sfvwrite_r+0x31a>
   17838: ce 85        	mv	a1, s3
   1783a: 56 85        	mv	a0, s5
   1783c: ef c0 4f d7  	jal	0x13db0 <_malloc_r>
   17840: 2a 8a        	mv	s4, a0
   17842: 49 c5        	beqz	a0, 0x178cc <__sfvwrite_r+0x350>
   17844: 0c 6c        	ld	a1, 0x18(s0)
   17846: 66 86        	mv	a2, s9
   17848: ef 40 90 6c  	jal	0x1c710 <memcpy>
   1784c: 83 57 04 01  	lhu	a5, 0x10(s0)
   17850: 93 f7 f7 b7  	andi	a5, a5, -0x481
   17854: 93 e7 07 08  	ori	a5, a5, 0x80
   17858: 23 18 f4 00  	sh	a5, 0x10(s0)
   1785c: 33 05 9a 01  	add	a0, s4, s9
   17860: bb 87 99 41  	subw	a5, s3, s9
   17864: 23 3c 44 01  	sd	s4, 0x18(s0)
   17868: 08 e0        	sd	a0, 0x0(s0)
   1786a: 23 20 34 03  	sw	s3, 0x20(s0)
   1786e: ca 8c        	mv	s9, s2
   17870: 5c c4        	sw	a5, 0xc(s0)
   17872: 4a 8a        	mv	s4, s2
   17874: e5 b3        	j	0x1765c <__sfvwrite_r+0xe0>
   17876: 52 86        	mv	a2, s4
   17878: e6 85        	mv	a1, s9
   1787a: ef 40 b0 51  	jal	0x1c594 <memmove>
   1787e: 54 44        	lw	a3, 0xc(s0)
   17880: 18 60        	ld	a4, 0x0(s0)
   17882: 9b 07 0a 00  	sext.w	a5, s4
   17886: bb 86 46 41  	subw	a3, a3, s4
   1788a: 52 97        	add	a4, a4, s4
   1788c: 54 c4        	sw	a3, 0xc(s0)
   1788e: 18 e0        	sd	a4, 0x0(s0)
   17890: a1 bd        	j	0x176e8 <__sfvwrite_r+0x16c>
   17892: d2 8c        	mv	s9, s4
   17894: e1 b3        	j	0x1765c <__sfvwrite_r+0xe0>
   17896: 4e 86        	mv	a2, s3
   17898: 56 85        	mv	a0, s5
   1789a: ef 00 40 04  	jal	0x178de <_realloc_r>
   1789e: 2a 8a        	mv	s4, a0
   178a0: 55 fd        	bnez	a0, 0x1785c <__sfvwrite_r+0x2e0>
   178a2: 0c 6c        	ld	a1, 0x18(s0)
   178a4: 56 85        	mv	a0, s5
   178a6: ef c0 8f ab  	jal	0x13b5e <_free_r>
   178aa: 83 17 04 01  	lh	a5, 0x10(s0)
   178ae: 31 47        	li	a4, 0xc
   178b0: 02 7b        	ld	s6, 0x20(sp)
   178b2: 42 6c        	ld	s8, 0x10(sp)
   178b4: a2 6c        	ld	s9, 0x8(sp)
   178b6: 23 a0 ea 00  	sw	a4, 0x0(s5)
   178ba: 93 f7 f7 f7  	andi	a5, a5, -0x81
   178be: a5 bd        	j	0x17736 <__sfvwrite_r+0x1ba>
   178c0: 1b 0b 1c 00  	addiw	s6, s8, 0x1
   178c4: fd b3        	j	0x176b2 <__sfvwrite_r+0x136>
   178c6: 83 17 04 01  	lh	a5, 0x10(s0)
   178ca: b5 b5        	j	0x17736 <__sfvwrite_r+0x1ba>
   178cc: 31 47        	li	a4, 0xc
   178ce: 83 17 04 01  	lh	a5, 0x10(s0)
   178d2: 02 7b        	ld	s6, 0x20(sp)
   178d4: 42 6c        	ld	s8, 0x10(sp)
   178d6: a2 6c        	ld	s9, 0x8(sp)
   178d8: 23 a0 ea 00  	sw	a4, 0x0(s5)
   178dc: a9 bd        	j	0x17736 <__sfvwrite_r+0x1ba>

00000000000178de <_realloc_r>:
   178de: 5d 71        	addi	sp, sp, -0x50
   178e0: 4a f8        	sd	s2, 0x30(sp)
   178e2: 86 e4        	sd	ra, 0x48(sp)
   178e4: 32 89        	mv	s2, a2
   178e6: 63 84 05 16  	beqz	a1, 0x17a4e <_realloc_r+0x170>
   178ea: a2 e0        	sd	s0, 0x40(sp)
   178ec: 26 fc        	sd	s1, 0x38(sp)
   178ee: 2e 84        	mv	s0, a1
   178f0: 4e f4        	sd	s3, 0x28(sp)
   178f2: 52 f0        	sd	s4, 0x20(sp)
   178f4: 56 ec        	sd	s5, 0x18(sp)
   178f6: aa 89        	mv	s3, a0
   178f8: ef c0 df ad  	jal	0x143d4 <__malloc_lock>
   178fc: 83 37 84 ff  	ld	a5, -0x8(s0)
   17900: 93 04 79 01  	addi	s1, s2, 0x17
   17904: 13 07 e0 02  	li	a4, 0x2e
   17908: 93 0a 04 ff  	addi	s5, s0, -0x10
   1790c: 13 fa c7 ff  	andi	s4, a5, -0x4
   17910: 63 74 97 0c  	bgeu	a4, s1, 0x179d8 <_realloc_r+0xfa>
   17914: 37 07 00 80  	lui	a4, 0x80000
   17918: c1 98        	andi	s1, s1, -0x10
   1791a: 13 47 f7 ff  	not	a4, a4
   1791e: 63 61 97 0c  	bltu	a4, s1, 0x179e0 <_realloc_r+0x102>
   17922: 63 ef 24 0b  	bltu	s1, s2, 0x179e0 <_realloc_r+0x102>
   17926: 63 58 9a 0c  	bge	s4, s1, 0x179f6 <_realloc_r+0x118>
   1792a: 62 e0        	sd	s8, 0x0(sp)
   1792c: 17 7c 00 00  	auipc	s8, 0x7
   17930: 13 0c 4c 6f  	addi	s8, s8, 0x6f4
   17934: 03 36 0c 01  	ld	a2, 0x10(s8)
   17938: b3 86 4a 01  	add	a3, s5, s4
   1793c: 98 66        	ld	a4, 0x8(a3)
   1793e: 63 0f d6 12  	beq	a2, a3, 0x17a7c <_realloc_r+0x19e>
   17942: 13 76 e7 ff  	andi	a2, a4, -0x2
   17946: 36 96        	add	a2, a2, a3
   17948: 10 66        	ld	a2, 0x8(a2)
   1794a: 05 8a        	andi	a2, a2, 0x1
   1794c: 6d e6        	bnez	a2, 0x17a36 <_realloc_r+0x158>
   1794e: 71 9b        	andi	a4, a4, -0x4
   17950: 33 06 ea 00  	add	a2, s4, a4
   17954: 63 5b 96 08  	bge	a2, s1, 0x179ea <_realloc_r+0x10c>
   17958: 85 8b        	andi	a5, a5, 0x1
   1795a: 8d e7        	bnez	a5, 0x17984 <_realloc_r+0xa6>
   1795c: 5e e4        	sd	s7, 0x8(sp)
   1795e: 83 3b 04 ff  	ld	s7, -0x10(s0)
   17962: 5a e8        	sd	s6, 0x10(sp)
   17964: b3 8b 7a 41  	sub	s7, s5, s7
   17968: 83 b7 8b 00  	ld	a5, 0x8(s7)
   1796c: f1 9b        	andi	a5, a5, -0x4
   1796e: 3e 97        	add	a4, a4, a5
   17970: 33 0b 47 01  	add	s6, a4, s4
   17974: 63 55 9b 24  	bge	s6, s1, 0x17bbe <_realloc_r+0x2e0>
   17978: 33 0b fa 00  	add	s6, s4, a5
   1797c: 63 57 9b 1c  	bge	s6, s1, 0x17b4a <_realloc_r+0x26c>
   17980: 42 6b        	ld	s6, 0x10(sp)
   17982: a2 6b        	ld	s7, 0x8(sp)
   17984: ca 85        	mv	a1, s2
   17986: 4e 85        	mv	a0, s3
   17988: ef c0 8f c2  	jal	0x13db0 <_malloc_r>
   1798c: 2a 89        	mv	s2, a0
   1798e: 63 08 05 2e  	beqz	a0, 0x17c7e <_realloc_r+0x3a0>
   17992: 83 37 84 ff  	ld	a5, -0x8(s0)
   17996: 13 07 05 ff  	addi	a4, a0, -0x10
   1799a: f9 9b        	andi	a5, a5, -0x2
   1799c: d6 97        	add	a5, a5, s5
   1799e: 63 80 e7 1a  	beq	a5, a4, 0x17b3e <_realloc_r+0x260>
   179a2: 13 06 8a ff  	addi	a2, s4, -0x8
   179a6: 93 07 80 04  	li	a5, 0x48
   179aa: 63 e6 c7 20  	bltu	a5, a2, 0x17bb6 <_realloc_r+0x2d8>
   179ae: 13 07 70 02  	li	a4, 0x27
   179b2: 63 69 c7 16  	bltu	a4, a2, 0x17b24 <_realloc_r+0x246>
   179b6: aa 87        	mv	a5, a0
   179b8: 22 87        	mv	a4, s0
   179ba: 14 63        	ld	a3, 0x0(a4)
   179bc: 94 e3        	sd	a3, 0x0(a5)
   179be: 14 67        	ld	a3, 0x8(a4)
   179c0: 94 e7        	sd	a3, 0x8(a5)
   179c2: 18 6b        	ld	a4, 0x10(a4)
   179c4: 98 eb        	sd	a4, 0x10(a5)
   179c6: a2 85        	mv	a1, s0
   179c8: 4e 85        	mv	a0, s3
   179ca: ef c0 4f 99  	jal	0x13b5e <_free_r>
   179ce: 4e 85        	mv	a0, s3
   179d0: ef c0 1f a1  	jal	0x143e0 <__malloc_unlock>
   179d4: 02 6c        	ld	s8, 0x0(sp)
   179d6: b1 a0        	j	0x17a22 <_realloc_r+0x144>
   179d8: 93 04 00 02  	li	s1, 0x20
   179dc: e3 f5 24 f5  	bgeu	s1, s2, 0x17926 <_realloc_r+0x48>
   179e0: b1 47        	li	a5, 0xc
   179e2: 23 a0 f9 00  	sw	a5, 0x0(s3)
   179e6: 01 49        	li	s2, 0x0
   179e8: 2d a8        	j	0x17a22 <_realloc_r+0x144>
   179ea: 9c 6e        	ld	a5, 0x18(a3)
   179ec: 98 6a        	ld	a4, 0x10(a3)
   179ee: 02 6c        	ld	s8, 0x0(sp)
   179f0: 32 8a        	mv	s4, a2
   179f2: 1c ef        	sd	a5, 0x18(a4)
   179f4: 98 eb        	sd	a4, 0x10(a5)
   179f6: 83 b7 8a 00  	ld	a5, 0x8(s5)
   179fa: b3 06 9a 40  	sub	a3, s4, s1
   179fe: 7d 46        	li	a2, 0x1f
   17a00: 85 8b        	andi	a5, a5, 0x1
   17a02: 33 87 4a 01  	add	a4, s5, s4
   17a06: 63 6a d6 04  	bltu	a2, a3, 0x17a5a <_realloc_r+0x17c>
   17a0a: b3 e7 47 01  	or	a5, a5, s4
   17a0e: 23 b4 fa 00  	sd	a5, 0x8(s5)
   17a12: 1c 67        	ld	a5, 0x8(a4)
   17a14: 93 e7 17 00  	ori	a5, a5, 0x1
   17a18: 1c e7        	sd	a5, 0x8(a4)
   17a1a: 4e 85        	mv	a0, s3
   17a1c: ef c0 5f 9c  	jal	0x143e0 <__malloc_unlock>
   17a20: 22 89        	mv	s2, s0
   17a22: 06 64        	ld	s0, 0x40(sp)
   17a24: a6 60        	ld	ra, 0x48(sp)
   17a26: e2 74        	ld	s1, 0x38(sp)
   17a28: a2 79        	ld	s3, 0x28(sp)
   17a2a: 02 7a        	ld	s4, 0x20(sp)
   17a2c: e2 6a        	ld	s5, 0x18(sp)
   17a2e: 4a 85        	mv	a0, s2
   17a30: 42 79        	ld	s2, 0x30(sp)
   17a32: 61 61        	addi	sp, sp, 0x50
   17a34: 82 80        	ret
   17a36: 85 8b        	andi	a5, a5, 0x1
   17a38: b1 f7        	bnez	a5, 0x17984 <_realloc_r+0xa6>
   17a3a: 5e e4        	sd	s7, 0x8(sp)
   17a3c: 83 3b 04 ff  	ld	s7, -0x10(s0)
   17a40: 5a e8        	sd	s6, 0x10(sp)
   17a42: b3 8b 7a 41  	sub	s7, s5, s7
   17a46: 83 b7 8b 00  	ld	a5, 0x8(s7)
   17a4a: f1 9b        	andi	a5, a5, -0x4
   17a4c: 35 b7        	j	0x17978 <_realloc_r+0x9a>
   17a4e: a6 60        	ld	ra, 0x48(sp)
   17a50: 42 79        	ld	s2, 0x30(sp)
   17a52: b2 85        	mv	a1, a2
   17a54: 61 61        	addi	sp, sp, 0x50
   17a56: 6f c0 af b5  	j	0x13db0 <_malloc_r>
   17a5a: c5 8f        	or	a5, a5, s1
   17a5c: 23 b4 fa 00  	sd	a5, 0x8(s5)
   17a60: b3 85 9a 00  	add	a1, s5, s1
   17a64: 93 e6 16 00  	ori	a3, a3, 0x1
   17a68: 94 e5        	sd	a3, 0x8(a1)
   17a6a: 1c 67        	ld	a5, 0x8(a4)
   17a6c: c1 05        	addi	a1, a1, 0x10
   17a6e: 4e 85        	mv	a0, s3
   17a70: 93 e7 17 00  	ori	a5, a5, 0x1
   17a74: 1c e7        	sd	a5, 0x8(a4)
   17a76: ef c0 8f 8e  	jal	0x13b5e <_free_r>
   17a7a: 45 b7        	j	0x17a1a <_realloc_r+0x13c>
   17a7c: 71 9b        	andi	a4, a4, -0x4
   17a7e: b3 06 47 01  	add	a3, a4, s4
   17a82: 13 86 04 02  	addi	a2, s1, 0x20
   17a86: 63 d3 c6 1c  	bge	a3, a2, 0x17c4c <_realloc_r+0x36e>
   17a8a: 85 8b        	andi	a5, a5, 0x1
   17a8c: e3 9c 07 ee  	bnez	a5, 0x17984 <_realloc_r+0xa6>
   17a90: 5e e4        	sd	s7, 0x8(sp)
   17a92: 83 3b 04 ff  	ld	s7, -0x10(s0)
   17a96: 5a e8        	sd	s6, 0x10(sp)
   17a98: b3 8b 7a 41  	sub	s7, s5, s7
   17a9c: 83 b7 8b 00  	ld	a5, 0x8(s7)
   17aa0: f1 9b        	andi	a5, a5, -0x4
   17aa2: 3e 97        	add	a4, a4, a5
   17aa4: 33 0b 47 01  	add	s6, a4, s4
   17aa8: e3 48 cb ec  	blt	s6, a2, 0x17978 <_realloc_r+0x9a>
   17aac: 83 b7 8b 01  	ld	a5, 0x18(s7)
   17ab0: 03 b7 0b 01  	ld	a4, 0x10(s7)
   17ab4: 13 06 8a ff  	addi	a2, s4, -0x8
   17ab8: 93 06 80 04  	li	a3, 0x48
   17abc: 1c ef        	sd	a5, 0x18(a4)
   17abe: 98 eb        	sd	a4, 0x10(a5)
   17ac0: 13 89 0b 01  	addi	s2, s7, 0x10
   17ac4: 63 ec c6 1c  	bltu	a3, a2, 0x17c9c <_realloc_r+0x3be>
   17ac8: 13 07 70 02  	li	a4, 0x27
   17acc: ca 87        	mv	a5, s2
   17ace: 63 7f c7 00  	bgeu	a4, a2, 0x17aec <_realloc_r+0x20e>
   17ad2: 18 60        	ld	a4, 0x0(s0)
   17ad4: 93 07 70 03  	li	a5, 0x37
   17ad8: 23 b8 eb 00  	sd	a4, 0x10(s7)
   17adc: 18 64        	ld	a4, 0x8(s0)
   17ade: 23 bc eb 00  	sd	a4, 0x18(s7)
   17ae2: 63 e2 c7 1c  	bltu	a5, a2, 0x17ca6 <_realloc_r+0x3c8>
   17ae6: 41 04        	addi	s0, s0, 0x10
   17ae8: 93 87 0b 02  	addi	a5, s7, 0x20
   17aec: 18 60        	ld	a4, 0x0(s0)
   17aee: 98 e3        	sd	a4, 0x0(a5)
   17af0: 18 64        	ld	a4, 0x8(s0)
   17af2: 98 e7        	sd	a4, 0x8(a5)
   17af4: 18 68        	ld	a4, 0x10(s0)
   17af6: 98 eb        	sd	a4, 0x10(a5)
   17af8: 33 87 9b 00  	add	a4, s7, s1
   17afc: b3 07 9b 40  	sub	a5, s6, s1
   17b00: 23 38 ec 00  	sd	a4, 0x10(s8)
   17b04: 93 e7 17 00  	ori	a5, a5, 0x1
   17b08: 1c e7        	sd	a5, 0x8(a4)
   17b0a: 83 b7 8b 00  	ld	a5, 0x8(s7)
   17b0e: 4e 85        	mv	a0, s3
   17b10: 85 8b        	andi	a5, a5, 0x1
   17b12: c5 8f        	or	a5, a5, s1
   17b14: 23 b4 fb 00  	sd	a5, 0x8(s7)
   17b18: ef c0 9f 8c  	jal	0x143e0 <__malloc_unlock>
   17b1c: 42 6b        	ld	s6, 0x10(sp)
   17b1e: a2 6b        	ld	s7, 0x8(sp)
   17b20: 02 6c        	ld	s8, 0x0(sp)
   17b22: 01 b7        	j	0x17a22 <_realloc_r+0x144>
   17b24: 14 60        	ld	a3, 0x0(s0)
   17b26: 13 07 70 03  	li	a4, 0x37
   17b2a: 14 e1        	sd	a3, 0x0(a0)
   17b2c: 14 64        	ld	a3, 0x8(s0)
   17b2e: 14 e5        	sd	a3, 0x8(a0)
   17b30: 63 63 c7 10  	bltu	a4, a2, 0x17c36 <_realloc_r+0x358>
   17b34: 13 07 04 01  	addi	a4, s0, 0x10
   17b38: 93 07 05 01  	addi	a5, a0, 0x10
   17b3c: bd bd        	j	0x179ba <_realloc_r+0xdc>
   17b3e: 83 37 85 ff  	ld	a5, -0x8(a0)
   17b42: 02 6c        	ld	s8, 0x0(sp)
   17b44: f1 9b        	andi	a5, a5, -0x4
   17b46: 3e 9a        	add	s4, s4, a5
   17b48: 7d b5        	j	0x179f6 <_realloc_r+0x118>
   17b4a: 83 b7 8b 01  	ld	a5, 0x18(s7)
   17b4e: 03 b7 0b 01  	ld	a4, 0x10(s7)
   17b52: 13 06 8a ff  	addi	a2, s4, -0x8
   17b56: 93 06 80 04  	li	a3, 0x48
   17b5a: 1c ef        	sd	a5, 0x18(a4)
   17b5c: 98 eb        	sd	a4, 0x10(a5)
   17b5e: 13 89 0b 01  	addi	s2, s7, 0x10
   17b62: 63 e5 c6 0c  	bltu	a3, a2, 0x17c2c <_realloc_r+0x34e>
   17b66: 13 07 70 02  	li	a4, 0x27
   17b6a: ca 87        	mv	a5, s2
   17b6c: 63 78 c7 02  	bgeu	a4, a2, 0x17b9c <_realloc_r+0x2be>
   17b70: 18 60        	ld	a4, 0x0(s0)
   17b72: 93 07 70 03  	li	a5, 0x37
   17b76: 23 b8 eb 00  	sd	a4, 0x10(s7)
   17b7a: 18 64        	ld	a4, 0x8(s0)
   17b7c: 23 bc eb 00  	sd	a4, 0x18(s7)
   17b80: 63 fb c7 0e  	bgeu	a5, a2, 0x17c76 <_realloc_r+0x398>
   17b84: 1c 68        	ld	a5, 0x10(s0)
   17b86: 23 b0 fb 02  	sd	a5, 0x20(s7)
   17b8a: 1c 6c        	ld	a5, 0x18(s0)
   17b8c: 23 b4 fb 02  	sd	a5, 0x28(s7)
   17b90: 63 02 d6 08  	beq	a2, a3, 0x17c14 <_realloc_r+0x336>
   17b94: 13 04 04 02  	addi	s0, s0, 0x20
   17b98: 93 87 0b 03  	addi	a5, s7, 0x30
   17b9c: 18 60        	ld	a4, 0x0(s0)
   17b9e: 98 e3        	sd	a4, 0x0(a5)
   17ba0: 18 64        	ld	a4, 0x8(s0)
   17ba2: 98 e7        	sd	a4, 0x8(a5)
   17ba4: 18 68        	ld	a4, 0x10(s0)
   17ba6: 98 eb        	sd	a4, 0x10(a5)
   17ba8: 5a 8a        	mv	s4, s6
   17baa: de 8a        	mv	s5, s7
   17bac: 42 6b        	ld	s6, 0x10(sp)
   17bae: a2 6b        	ld	s7, 0x8(sp)
   17bb0: 02 6c        	ld	s8, 0x0(sp)
   17bb2: 4a 84        	mv	s0, s2
   17bb4: 89 b5        	j	0x179f6 <_realloc_r+0x118>
   17bb6: a2 85        	mv	a1, s0
   17bb8: ef 40 d0 1d  	jal	0x1c594 <memmove>
   17bbc: 29 b5        	j	0x179c6 <_realloc_r+0xe8>
   17bbe: 9c 6e        	ld	a5, 0x18(a3)
   17bc0: 98 6a        	ld	a4, 0x10(a3)
   17bc2: 13 06 8a ff  	addi	a2, s4, -0x8
   17bc6: 93 06 80 04  	li	a3, 0x48
   17bca: 1c ef        	sd	a5, 0x18(a4)
   17bcc: 98 eb        	sd	a4, 0x10(a5)
   17bce: 03 b7 0b 01  	ld	a4, 0x10(s7)
   17bd2: 83 b7 8b 01  	ld	a5, 0x18(s7)
   17bd6: 13 89 0b 01  	addi	s2, s7, 0x10
   17bda: 1c ef        	sd	a5, 0x18(a4)
   17bdc: 98 eb        	sd	a4, 0x10(a5)
   17bde: 63 e7 c6 04  	bltu	a3, a2, 0x17c2c <_realloc_r+0x34e>
   17be2: 13 07 70 02  	li	a4, 0x27
   17be6: ca 87        	mv	a5, s2
   17be8: e3 7a c7 fa  	bgeu	a4, a2, 0x17b9c <_realloc_r+0x2be>
   17bec: 18 60        	ld	a4, 0x0(s0)
   17bee: 93 07 70 03  	li	a5, 0x37
   17bf2: 23 b8 eb 00  	sd	a4, 0x10(s7)
   17bf6: 18 64        	ld	a4, 0x8(s0)
   17bf8: 23 bc eb 00  	sd	a4, 0x18(s7)
   17bfc: 63 fd c7 06  	bgeu	a5, a2, 0x17c76 <_realloc_r+0x398>
   17c00: 18 68        	ld	a4, 0x10(s0)
   17c02: 93 07 80 04  	li	a5, 0x48
   17c06: 23 b0 eb 02  	sd	a4, 0x20(s7)
   17c0a: 18 6c        	ld	a4, 0x18(s0)
   17c0c: 23 b4 eb 02  	sd	a4, 0x28(s7)
   17c10: e3 12 f6 f8  	bne	a2, a5, 0x17b94 <_realloc_r+0x2b6>
   17c14: 18 70        	ld	a4, 0x20(s0)
   17c16: 93 87 0b 04  	addi	a5, s7, 0x40
   17c1a: 13 04 04 03  	addi	s0, s0, 0x30
   17c1e: 23 b8 eb 02  	sd	a4, 0x30(s7)
   17c22: 03 37 84 ff  	ld	a4, -0x8(s0)
   17c26: 23 bc eb 02  	sd	a4, 0x38(s7)
   17c2a: 8d bf        	j	0x17b9c <_realloc_r+0x2be>
   17c2c: a2 85        	mv	a1, s0
   17c2e: 4a 85        	mv	a0, s2
   17c30: ef 40 50 16  	jal	0x1c594 <memmove>
   17c34: 95 bf        	j	0x17ba8 <_realloc_r+0x2ca>
   17c36: 18 68        	ld	a4, 0x10(s0)
   17c38: 18 e9        	sd	a4, 0x10(a0)
   17c3a: 18 6c        	ld	a4, 0x18(s0)
   17c3c: 18 ed        	sd	a4, 0x18(a0)
   17c3e: 63 06 f6 04  	beq	a2, a5, 0x17c8a <_realloc_r+0x3ac>
   17c42: 13 07 04 02  	addi	a4, s0, 0x20
   17c46: 93 07 05 02  	addi	a5, a0, 0x20
   17c4a: 85 bb        	j	0x179ba <_realloc_r+0xdc>
   17c4c: a6 9a        	add	s5, s5, s1
   17c4e: b3 87 96 40  	sub	a5, a3, s1
   17c52: 23 38 5c 01  	sd	s5, 0x10(s8)
   17c56: 93 e7 17 00  	ori	a5, a5, 0x1
   17c5a: 23 b4 fa 00  	sd	a5, 0x8(s5)
   17c5e: 83 37 84 ff  	ld	a5, -0x8(s0)
   17c62: 4e 85        	mv	a0, s3
   17c64: 22 89        	mv	s2, s0
   17c66: 85 8b        	andi	a5, a5, 0x1
   17c68: c5 8f        	or	a5, a5, s1
   17c6a: 23 3c f4 fe  	sd	a5, -0x8(s0)
   17c6e: ef c0 2f f7  	jal	0x143e0 <__malloc_unlock>
   17c72: 02 6c        	ld	s8, 0x0(sp)
   17c74: 7d b3        	j	0x17a22 <_realloc_r+0x144>
   17c76: 41 04        	addi	s0, s0, 0x10
   17c78: 93 87 0b 02  	addi	a5, s7, 0x20
   17c7c: 05 b7        	j	0x17b9c <_realloc_r+0x2be>
   17c7e: 4e 85        	mv	a0, s3
   17c80: ef c0 0f f6  	jal	0x143e0 <__malloc_unlock>
   17c84: 01 49        	li	s2, 0x0
   17c86: 02 6c        	ld	s8, 0x0(sp)
   17c88: 69 bb        	j	0x17a22 <_realloc_r+0x144>
   17c8a: 14 70        	ld	a3, 0x20(s0)
   17c8c: 13 07 04 03  	addi	a4, s0, 0x30
   17c90: 93 07 05 03  	addi	a5, a0, 0x30
   17c94: 14 f1        	sd	a3, 0x20(a0)
   17c96: 14 74        	ld	a3, 0x28(s0)
   17c98: 14 f5        	sd	a3, 0x28(a0)
   17c9a: 05 b3        	j	0x179ba <_realloc_r+0xdc>
   17c9c: a2 85        	mv	a1, s0
   17c9e: 4a 85        	mv	a0, s2
   17ca0: ef 40 50 0f  	jal	0x1c594 <memmove>
   17ca4: 91 bd        	j	0x17af8 <_realloc_r+0x21a>
   17ca6: 1c 68        	ld	a5, 0x10(s0)
   17ca8: 23 b0 fb 02  	sd	a5, 0x20(s7)
   17cac: 1c 6c        	ld	a5, 0x18(s0)
   17cae: 23 b4 fb 02  	sd	a5, 0x28(s7)
   17cb2: 63 07 d6 00  	beq	a2, a3, 0x17cc0 <_realloc_r+0x3e2>
   17cb6: 13 04 04 02  	addi	s0, s0, 0x20
   17cba: 93 87 0b 03  	addi	a5, s7, 0x30
   17cbe: 3d b5        	j	0x17aec <_realloc_r+0x20e>
   17cc0: 18 70        	ld	a4, 0x20(s0)
   17cc2: 93 87 0b 04  	addi	a5, s7, 0x40
   17cc6: 13 04 04 03  	addi	s0, s0, 0x30
   17cca: 23 b8 eb 02  	sd	a4, 0x30(s7)
   17cce: 03 37 84 ff  	ld	a4, -0x8(s0)
   17cd2: 23 bc eb 02  	sd	a4, 0x38(s7)
   17cd6: 19 bd        	j	0x17aec <_realloc_r+0x20e>

0000000000017cd8 <_wcrtomb_r>:
   17cd8: 79 71        	addi	sp, sp, -0x30
   17cda: 22 f0        	sd	s0, 0x20(sp)
   17cdc: 26 ec        	sd	s1, 0x18(sp)
   17cde: 06 f4        	sd	ra, 0x28(sp)
   17ce0: aa 84        	mv	s1, a0
   17ce2: 13 04 c5 13  	addi	s0, a0, 0x13c
   17ce6: 91 c2        	beqz	a3, 0x17cea <_wcrtomb_r+0x12>
   17ce8: 36 84        	mv	s0, a3
   17cea: 97 87 00 00  	auipc	a5, 0x8
   17cee: 83 b7 67 c2  	ld	a5, -0x3da(a5)
   17cf2: a2 86        	mv	a3, s0
   17cf4: 99 c9        	beqz	a1, 0x17d0a <_wcrtomb_r+0x32>
   17cf6: 26 85        	mv	a0, s1
   17cf8: 82 97        	jalr	a5
   17cfa: fd 57        	li	a5, -0x1
   17cfc: 63 0e f5 00  	beq	a0, a5, 0x17d18 <_wcrtomb_r+0x40>
   17d00: a2 70        	ld	ra, 0x28(sp)
   17d02: 02 74        	ld	s0, 0x20(sp)
   17d04: e2 64        	ld	s1, 0x18(sp)
   17d06: 45 61        	addi	sp, sp, 0x30
   17d08: 82 80        	ret
   17d0a: 01 46        	li	a2, 0x0
   17d0c: 8a 85        	mv	a1, sp
   17d0e: 26 85        	mv	a0, s1
   17d10: 82 97        	jalr	a5
   17d12: fd 57        	li	a5, -0x1
   17d14: e3 16 f5 fe  	bne	a0, a5, 0x17d00 <_wcrtomb_r+0x28>
   17d18: 23 20 04 00  	sw	zero, 0x0(s0)
   17d1c: a2 70        	ld	ra, 0x28(sp)
   17d1e: 02 74        	ld	s0, 0x20(sp)
   17d20: 93 07 a0 08  	li	a5, 0x8a
   17d24: 9c c0        	sw	a5, 0x0(s1)
   17d26: e2 64        	ld	s1, 0x18(sp)
   17d28: 45 61        	addi	sp, sp, 0x30
   17d2a: 82 80        	ret

0000000000017d2c <wcrtomb>:
   17d2c: 79 71        	addi	sp, sp, -0x30
   17d2e: 22 f0        	sd	s0, 0x20(sp)
   17d30: 26 ec        	sd	s1, 0x18(sp)
   17d32: 32 84        	mv	s0, a2
   17d34: 06 f4        	sd	ra, 0x28(sp)
   17d36: 2e 86        	mv	a2, a1
   17d38: 97 84 00 00  	auipc	s1, 0x8
   17d3c: 83 b4 04 e4  	ld	s1, -0x1c0(s1)
   17d40: 15 c0        	beqz	s0, 0x17d64 <wcrtomb+0x38>
   17d42: 97 87 00 00  	auipc	a5, 0x8
   17d46: 83 b7 e7 bc  	ld	a5, -0x432(a5)
   17d4a: a2 86        	mv	a3, s0
   17d4c: 05 c5        	beqz	a0, 0x17d74 <wcrtomb+0x48>
   17d4e: aa 85        	mv	a1, a0
   17d50: 26 85        	mv	a0, s1
   17d52: 82 97        	jalr	a5
   17d54: fd 57        	li	a5, -0x1
   17d56: 63 06 f5 02  	beq	a0, a5, 0x17d82 <wcrtomb+0x56>
   17d5a: a2 70        	ld	ra, 0x28(sp)
   17d5c: 02 74        	ld	s0, 0x20(sp)
   17d5e: e2 64        	ld	s1, 0x18(sp)
   17d60: 45 61        	addi	sp, sp, 0x30
   17d62: 82 80        	ret
   17d64: 13 84 c4 13  	addi	s0, s1, 0x13c
   17d68: 97 87 00 00  	auipc	a5, 0x8
   17d6c: 83 b7 87 ba  	ld	a5, -0x458(a5)
   17d70: a2 86        	mv	a3, s0
   17d72: 71 fd        	bnez	a0, 0x17d4e <wcrtomb+0x22>
   17d74: 01 46        	li	a2, 0x0
   17d76: 8a 85        	mv	a1, sp
   17d78: 26 85        	mv	a0, s1
   17d7a: 82 97        	jalr	a5
   17d7c: fd 57        	li	a5, -0x1
   17d7e: e3 1e f5 fc  	bne	a0, a5, 0x17d5a <wcrtomb+0x2e>
   17d82: 23 20 04 00  	sw	zero, 0x0(s0)
   17d86: a2 70        	ld	ra, 0x28(sp)
   17d88: 02 74        	ld	s0, 0x20(sp)
   17d8a: 93 07 a0 08  	li	a5, 0x8a
   17d8e: 9c c0        	sw	a5, 0x0(s1)
   17d90: e2 64        	ld	s1, 0x18(sp)
   17d92: 45 61        	addi	sp, sp, 0x30
   17d94: 82 80        	ret

0000000000017d96 <_wcsrtombs_r>:
   17d96: ba 87        	mv	a5, a4
   17d98: 36 87        	mv	a4, a3
   17d9a: fd 56        	li	a3, -0x1
   17d9c: 15 aa        	j	0x17ed0 <_wcsnrtombs_r>

0000000000017d9e <wcsrtombs>:
   17d9e: 32 87        	mv	a4, a2
   17da0: b6 87        	mv	a5, a3
   17da2: 2e 86        	mv	a2, a1
   17da4: fd 56        	li	a3, -0x1
   17da6: aa 85        	mv	a1, a0
   17da8: 17 85 00 00  	auipc	a0, 0x8
   17dac: 03 35 05 dd  	ld	a0, -0x230(a0)
   17db0: 05 a2        	j	0x17ed0 <_wcsnrtombs_r>

0000000000017db2 <_wcsnrtombs_l>:
   17db2: 75 71        	addi	sp, sp, -0x90
   17db4: 22 e1        	sd	s0, 0x80(sp)
   17db6: a6 fc        	sd	s1, 0x78(sp)
   17db8: ca f8        	sd	s2, 0x70(sp)
   17dba: ce f4        	sd	s3, 0x68(sp)
   17dbc: d6 ec        	sd	s5, 0x58(sp)
   17dbe: 06 e5        	sd	ra, 0x88(sp)
   17dc0: 66 fc        	sd	s9, 0x38(sp)
   17dc2: 6a f8        	sd	s10, 0x30(sp)
   17dc4: 2a e4        	sd	a0, 0x8(sp)
   17dc6: ae 89        	mv	s3, a1
   17dc8: b2 8a        	mv	s5, a2
   17dca: ba 84        	mv	s1, a4
   17dcc: 42 89        	mv	s2, a6
   17dce: 3e 84        	mv	s0, a5
   17dd0: e1 cb        	beqz	a5, 0x17ea0 <_wcsnrtombs_l+0xee>
   17dd2: 83 bc 0a 00  	ld	s9, 0x0(s5)
   17dd6: 63 8b 09 0c  	beqz	s3, 0x17eac <_wcsnrtombs_l+0xfa>
   17dda: e5 c4        	beqz	s1, 0x17ec2 <_wcsnrtombs_l+0x110>
   17ddc: da e8        	sd	s6, 0x50(sp)
   17dde: 13 8b f6 ff  	addi	s6, a3, -0x1
   17de2: e5 c6        	beqz	a3, 0x17eca <_wcsnrtombs_l+0x118>
   17de4: d2 f0        	sd	s4, 0x60(sp)
   17de6: 6e f4        	sd	s11, 0x28(sp)
   17de8: de e4        	sd	s7, 0x48(sp)
   17dea: e2 e0        	sd	s8, 0x40(sp)
   17dec: 4e 8a        	mv	s4, s3
   17dee: 01 4d        	li	s10, 0x0
   17df0: fd 5d        	li	s11, -0x1
   17df2: 29 a8        	j	0x17e0c <_wcsnrtombs_l+0x5a>
   17df4: 63 92 09 06  	bnez	s3, 0x17e58 <_wcsnrtombs_l+0xa6>
   17df8: 83 a7 0c 00  	lw	a5, 0x0(s9)
   17dfc: 91 0c        	addi	s9, s9, 0x4
   17dfe: c1 cb        	beqz	a5, 0x17e8e <_wcsnrtombs_l+0xdc>
   17e00: 63 73 97 0c  	bgeu	a4, s1, 0x17ec6 <_wcsnrtombs_l+0x114>
   17e04: 7d 1b        	addi	s6, s6, -0x1
   17e06: 3a 8d        	mv	s10, a4
   17e08: 63 08 bb 03  	beq	s6, s11, 0x17e38 <_wcsnrtombs_l+0x86>
   17e0c: 83 37 09 0e  	ld	a5, 0xe0(s2)
   17e10: 03 a6 0c 00  	lw	a2, 0x0(s9)
   17e14: 22 65        	ld	a0, 0x8(sp)
   17e16: a2 86        	mv	a3, s0
   17e18: 0c 08        	addi	a1, sp, 0x10
   17e1a: 03 2c 04 00  	lw	s8, 0x0(s0)
   17e1e: 83 2b 44 00  	lw	s7, 0x4(s0)
   17e22: 82 97        	jalr	a5
   17e24: 63 07 b5 09  	beq	a0, s11, 0x17eb2 <_wcsnrtombs_l+0x100>
   17e28: 33 07 a5 01  	add	a4, a0, s10
   17e2c: e3 f4 e4 fc  	bgeu	s1, a4, 0x17df4 <_wcsnrtombs_l+0x42>
   17e30: 23 20 84 01  	sw	s8, 0x0(s0)
   17e34: 23 22 74 01  	sw	s7, 0x4(s0)
   17e38: 06 7a        	ld	s4, 0x60(sp)
   17e3a: 46 6b        	ld	s6, 0x50(sp)
   17e3c: a6 6b        	ld	s7, 0x48(sp)
   17e3e: 06 6c        	ld	s8, 0x40(sp)
   17e40: a2 7d        	ld	s11, 0x28(sp)
   17e42: aa 60        	ld	ra, 0x88(sp)
   17e44: 0a 64        	ld	s0, 0x80(sp)
   17e46: e6 74        	ld	s1, 0x78(sp)
   17e48: 46 79        	ld	s2, 0x70(sp)
   17e4a: a6 79        	ld	s3, 0x68(sp)
   17e4c: e6 6a        	ld	s5, 0x58(sp)
   17e4e: e2 7c        	ld	s9, 0x38(sp)
   17e50: 6a 85        	mv	a0, s10
   17e52: 42 7d        	ld	s10, 0x30(sp)
   17e54: 49 61        	addi	sp, sp, 0x90
   17e56: 82 80        	ret
   17e58: 63 52 a0 02  	blez	a0, 0x17e7c <_wcsnrtombs_l+0xca>
   17e5c: 13 03 01 01  	addi	t1, sp, 0x10
   17e60: b3 06 aa 00  	add	a3, s4, a0
   17e64: d2 88        	mv	a7, s4
   17e66: 83 47 03 00  	lbu	a5, 0x0(t1)
   17e6a: 85 08        	addi	a7, a7, 0x1
   17e6c: 05 03        	addi	t1, t1, 0x1
   17e6e: a3 8f f8 fe  	sb	a5, -0x1(a7)
   17e72: e3 9a d8 fe  	bne	a7, a3, 0x17e66 <_wcsnrtombs_l+0xb4>
   17e76: 02 15        	slli	a0, a0, 0x20
   17e78: 01 91        	srli	a0, a0, 0x20
   17e7a: 2a 9a        	add	s4, s4, a0
   17e7c: 83 b7 0a 00  	ld	a5, 0x0(s5)
   17e80: 91 0c        	addi	s9, s9, 0x4
   17e82: 91 07        	addi	a5, a5, 0x4
   17e84: 23 b0 fa 00  	sd	a5, 0x0(s5)
   17e88: 83 a7 cc ff  	lw	a5, -0x4(s9)
   17e8c: b5 fb        	bnez	a5, 0x17e00 <_wcsnrtombs_l+0x4e>
   17e8e: 63 84 09 00  	beqz	s3, 0x17e96 <_wcsnrtombs_l+0xe4>
   17e92: 23 b0 0a 00  	sd	zero, 0x0(s5)
   17e96: 23 20 04 00  	sw	zero, 0x0(s0)
   17e9a: 13 0d f7 ff  	addi	s10, a4, -0x1
   17e9e: 69 bf        	j	0x17e38 <_wcsnrtombs_l+0x86>
   17ea0: 83 bc 0a 00  	ld	s9, 0x0(s5)
   17ea4: 13 04 45 14  	addi	s0, a0, 0x144
   17ea8: e3 99 09 f2  	bnez	s3, 0x17dda <_wcsnrtombs_l+0x28>
   17eac: da e8        	sd	s6, 0x50(sp)
   17eae: fd 54        	li	s1, -0x1
   17eb0: 3d b7        	j	0x17dde <_wcsnrtombs_l+0x2c>
   17eb2: 22 67        	ld	a4, 0x8(sp)
   17eb4: 93 07 a0 08  	li	a5, 0x8a
   17eb8: 7d 5d        	li	s10, -0x1
   17eba: 1c c3        	sw	a5, 0x0(a4)
   17ebc: 23 20 04 00  	sw	zero, 0x0(s0)
   17ec0: a5 bf        	j	0x17e38 <_wcsnrtombs_l+0x86>
   17ec2: 01 4d        	li	s10, 0x0
   17ec4: bd bf        	j	0x17e42 <_wcsnrtombs_l+0x90>
   17ec6: 3a 8d        	mv	s10, a4
   17ec8: 85 bf        	j	0x17e38 <_wcsnrtombs_l+0x86>
   17eca: 46 6b        	ld	s6, 0x50(sp)
   17ecc: 01 4d        	li	s10, 0x0
   17ece: 95 bf        	j	0x17e42 <_wcsnrtombs_l+0x90>

0000000000017ed0 <_wcsnrtombs_r>:
   17ed0: 17 88 00 00  	auipc	a6, 0x8
   17ed4: 13 08 08 96  	addi	a6, a6, -0x6a0
   17ed8: 17 85 00 00  	auipc	a0, 0x8
   17edc: 03 35 05 ca  	ld	a0, -0x360(a0)
   17ee0: c9 bd        	j	0x17db2 <_wcsnrtombs_l>

0000000000017ee2 <wcsnrtombs>:
   17ee2: ba 87        	mv	a5, a4
   17ee4: 17 88 00 00  	auipc	a6, 0x8
   17ee8: 13 08 c8 94  	addi	a6, a6, -0x6b4
   17eec: 36 87        	mv	a4, a3
   17eee: b2 86        	mv	a3, a2
   17ef0: 2e 86        	mv	a2, a1
   17ef2: aa 85        	mv	a1, a0
   17ef4: 17 85 00 00  	auipc	a0, 0x8
   17ef8: 03 35 45 c8  	ld	a0, -0x37c(a0)
   17efc: 5d bd        	j	0x17db2 <_wcsnrtombs_l>

0000000000017efe <quorem>:
   17efe: 39 71        	addi	sp, sp, -0x40
   17f00: 26 f4        	sd	s1, 0x28(sp)
   17f02: 5c 49        	lw	a5, 0x14(a0)
   17f04: c4 49        	lw	s1, 0x14(a1)
   17f06: 06 fc        	sd	ra, 0x38(sp)
   17f08: 63 c8 97 14  	blt	a5, s1, 0x18058 <quorem+0x15a>
   17f0c: fd 34        	addiw	s1, s1, -0x1
   17f0e: 13 93 24 00  	slli	t1, s1, 0x2
   17f12: 22 f8        	sd	s0, 0x30(sp)
   17f14: 13 84 85 01  	addi	s0, a1, 0x18
   17f18: 4a f0        	sd	s2, 0x20(sp)
   17f1a: 4e ec        	sd	s3, 0x18(sp)
   17f1c: 33 09 64 00  	add	s2, s0, t1
   17f20: 93 09 85 01  	addi	s3, a0, 0x18
   17f24: 56 e4        	sd	s5, 0x8(sp)
   17f26: 4e 93        	add	t1, t1, s3
   17f28: 83 2a 09 00  	lw	s5, 0x0(s2)
   17f2c: 83 27 03 00  	lw	a5, 0x0(t1)
   17f30: 5a e0        	sd	s6, 0x0(sp)
   17f32: 1b 87 1a 00  	addiw	a4, s5, 0x1
   17f36: 3b db e7 02  	divuw	s6, a5, a4
   17f3a: 52 e8        	sd	s4, 0x10(sp)
   17f3c: 2a 8a        	mv	s4, a0
   17f3e: da 8a        	mv	s5, s6
   17f40: 63 e7 e7 08  	bltu	a5, a4, 0x17fce <quorem+0xd0>
   17f44: 41 68        	lui	a6, 0x10
   17f46: 22 85        	mv	a0, s0
   17f48: ce 88        	mv	a7, s3
   17f4a: 81 4e        	li	t4, 0x0
   17f4c: 81 46        	li	a3, 0x0
   17f4e: 7d 18        	addi	a6, a6, -0x1
   17f50: 18 41        	lw	a4, 0x0(a0)
   17f52: 03 ae 08 00  	lw	t3, 0x0(a7)
   17f56: 91 08        	addi	a7, a7, 0x4
   17f58: 33 76 07 01  	and	a2, a4, a6
   17f5c: 3b 06 66 03  	mulw	a2, a2, s6
   17f60: 1b 57 07 01  	srliw	a4, a4, 0x10
   17f64: b3 77 0e 01  	and	a5, t3, a6
   17f68: 1b 5e 0e 01  	srliw	t3, t3, 0x10
   17f6c: 11 05        	addi	a0, a0, 0x4
   17f6e: 3b 07 67 03  	mulw	a4, a4, s6
   17f72: 3b 06 d6 01  	addw	a2, a2, t4
   17f76: b3 7e c8 00  	and	t4, a6, a2
   17f7a: bb 87 d7 41  	subw	a5, a5, t4
   17f7e: 1b 56 06 01  	srliw	a2, a2, 0x10
   17f82: b5 9f        	addw	a5, a5, a3
   17f84: 9b d6 07 41  	sraiw	a3, a5, 0x10
   17f88: b3 77 f8 00  	and	a5, a6, a5
   17f8c: 31 9f        	addw	a4, a4, a2
   17f8e: 33 76 e8 00  	and	a2, a6, a4
   17f92: 91 9e        	subw	a3, a3, a2
   17f94: bb 86 c6 01  	addw	a3, a3, t3
   17f98: 1b 96 06 01  	slliw	a2, a3, 0x10
   17f9c: d1 8f        	or	a5, a5, a2
   17f9e: 23 ae f8 fe  	sw	a5, -0x4(a7)
   17fa2: 9b 5e 07 01  	srliw	t4, a4, 0x10
   17fa6: 9b d6 06 41  	sraiw	a3, a3, 0x10
   17faa: e3 73 a9 fa  	bgeu	s2, a0, 0x17f50 <quorem+0x52>
   17fae: 83 27 03 00  	lw	a5, 0x0(t1)
   17fb2: 91 ef        	bnez	a5, 0x17fce <quorem+0xd0>
   17fb4: 71 13        	addi	t1, t1, -0x4
   17fb6: 63 e6 69 00  	bltu	s3, t1, 0x17fc2 <quorem+0xc4>
   17fba: 01 a8        	j	0x17fca <quorem+0xcc>
   17fbc: fd 34        	addiw	s1, s1, -0x1
   17fbe: 63 f6 69 00  	bgeu	s3, t1, 0x17fca <quorem+0xcc>
   17fc2: 83 27 03 00  	lw	a5, 0x0(t1)
   17fc6: 71 13        	addi	t1, t1, -0x4
   17fc8: f5 db        	beqz	a5, 0x17fbc <quorem+0xbe>
   17fca: 23 2a 9a 00  	sw	s1, 0x14(s4)
   17fce: 52 85        	mv	a0, s4
   17fd0: ef 10 80 51  	jal	0x194e8 <__mcmp>
   17fd4: 63 46 05 06  	bltz	a0, 0x18040 <quorem+0x142>
   17fd8: 41 65        	lui	a0, 0x10
   17fda: ce 85        	mv	a1, s3
   17fdc: 01 47        	li	a4, 0x0
   17fde: 7d 15        	addi	a0, a0, -0x1
   17fe0: 94 41        	lw	a3, 0x0(a1)
   17fe2: 10 40        	lw	a2, 0x0(s0)
   17fe4: 91 05        	addi	a1, a1, 0x4
   17fe6: b3 f7 a6 00  	and	a5, a3, a0
   17fea: 33 78 a6 00  	and	a6, a2, a0
   17fee: bb 87 07 41  	subw	a5, a5, a6
   17ff2: b9 9f        	addw	a5, a5, a4
   17ff4: 1b d7 07 41  	sraiw	a4, a5, 0x10
   17ff8: 1b 56 06 01  	srliw	a2, a2, 0x10
   17ffc: 9b d6 06 01  	srliw	a3, a3, 0x10
   18000: 11 9f        	subw	a4, a4, a2
   18002: 35 9f        	addw	a4, a4, a3
   18004: 9b 16 07 01  	slliw	a3, a4, 0x10
   18008: e9 8f        	and	a5, a5, a0
   1800a: d5 8f        	or	a5, a5, a3
   1800c: 11 04        	addi	s0, s0, 0x4
   1800e: 23 ae f5 fe  	sw	a5, -0x4(a1)
   18012: 1b 57 07 41  	sraiw	a4, a4, 0x10
   18016: e3 75 89 fc  	bgeu	s2, s0, 0x17fe0 <quorem+0xe2>
   1801a: 93 97 24 00  	slli	a5, s1, 0x2
   1801e: ce 97        	add	a5, a5, s3
   18020: 98 43        	lw	a4, 0x0(a5)
   18022: 09 ef        	bnez	a4, 0x1803c <quorem+0x13e>
   18024: f1 17        	addi	a5, a5, -0x4
   18026: 63 e6 f9 00  	bltu	s3, a5, 0x18032 <quorem+0x134>
   1802a: 39 a0        	j	0x18038 <quorem+0x13a>
   1802c: fd 34        	addiw	s1, s1, -0x1
   1802e: 63 f5 f9 00  	bgeu	s3, a5, 0x18038 <quorem+0x13a>
   18032: 98 43        	lw	a4, 0x0(a5)
   18034: f1 17        	addi	a5, a5, -0x4
   18036: 7d db        	beqz	a4, 0x1802c <quorem+0x12e>
   18038: 23 2a 9a 00  	sw	s1, 0x14(s4)
   1803c: 1b 8b 1a 00  	addiw	s6, s5, 0x1
   18040: 42 74        	ld	s0, 0x30(sp)
   18042: e2 70        	ld	ra, 0x38(sp)
   18044: 02 79        	ld	s2, 0x20(sp)
   18046: e2 69        	ld	s3, 0x18(sp)
   18048: 42 6a        	ld	s4, 0x10(sp)
   1804a: a2 6a        	ld	s5, 0x8(sp)
   1804c: a2 74        	ld	s1, 0x28(sp)
   1804e: 1b 05 0b 00  	sext.w	a0, s6
   18052: 02 6b        	ld	s6, 0x0(sp)
   18054: 21 61        	addi	sp, sp, 0x40
   18056: 82 80        	ret
   18058: e2 70        	ld	ra, 0x38(sp)
   1805a: a2 74        	ld	s1, 0x28(sp)
   1805c: 01 45        	li	a0, 0x0
   1805e: 21 61        	addi	sp, sp, 0x40
   18060: 82 80        	ret

0000000000018062 <_dtoa_r>:
   18062: 31 71        	addi	sp, sp, -0xc0
   18064: 4e ed        	sd	s3, 0x98(sp)
   18066: 03 38 05 05  	ld	a6, 0x50(a0)
   1806a: d3 09 05 e2  	fmv.x.d	s3, fa0
   1806e: 22 f9        	sd	s0, 0xb0(sp)
   18070: 26 f5        	sd	s1, 0xa8(sp)
   18072: 52 e9        	sd	s4, 0x90(sp)
   18074: 5a e1        	sd	s6, 0x80(sp)
   18076: ee ec        	sd	s11, 0x58(sp)
   18078: 06 fd        	sd	ra, 0xb8(sp)
   1807a: 56 e5        	sd	s5, 0x88(sp)
   1807c: e2 f8        	sd	s8, 0x70(sp)
   1807e: ea f0        	sd	s10, 0x60(sp)
   18080: 32 e4        	sd	a2, 0x8(sp)
   18082: 36 e0        	sd	a3, 0x0(sp)
   18084: 2a 84        	mv	s0, a0
   18086: 2e 8b        	mv	s6, a1
   18088: ba 84        	mv	s1, a4
   1808a: be 8d        	mv	s11, a5
   1808c: 4e 8a        	mv	s4, s3
   1808e: 63 01 08 02  	beqz	a6, 0x180b0 <_dtoa_r+0x4e>
   18092: 3c 4d        	lw	a5, 0x58(a0)
   18094: 05 47        	li	a4, 0x1
   18096: c2 85        	mv	a1, a6
   18098: 3b 17 f7 00  	sllw	a4, a4, a5
   1809c: 82 17        	slli	a5, a5, 0x20
   1809e: 02 17        	slli	a4, a4, 0x20
   180a0: 81 93        	srli	a5, a5, 0x20
   180a2: d9 8f        	or	a5, a5, a4
   180a4: 23 34 f8 00  	sd	a5, 0x8(a6)
   180a8: ef 00 b0 54  	jal	0x18df2 <_Bfree>
   180ac: 23 38 04 04  	sd	zero, 0x50(s0)
   180b0: 4e 8d        	mv	s10, s3
   180b2: 93 da 09 42  	srai	s5, s3, 0x20
   180b6: 81 47        	li	a5, 0x0
   180b8: 63 d0 09 02  	bgez	s3, 0x180d8 <_dtoa_r+0x76>
   180bc: 7d 5a        	li	s4, -0x1
   180be: 86 1a        	slli	s5, s5, 0x21
   180c0: 13 5a 0a 02  	srli	s4, s4, 0x20
   180c4: 93 d7 1a 00  	srli	a5, s5, 0x1
   180c8: 33 7a 3a 01  	and	s4, s4, s3
   180cc: 33 6a fa 00  	or	s4, s4, a5
   180d0: 52 8d        	mv	s10, s4
   180d2: 93 da 1a 02  	srli	s5, s5, 0x21
   180d6: 85 47        	li	a5, 0x1
   180d8: 9c c0        	sw	a5, 0x0(s1)
   180da: b7 07 f0 7f  	lui	a5, 0x7ff00
   180de: b3 f7 fa 00  	and	a5, s5, a5
   180e2: 37 07 f0 7f  	lui	a4, 0x7ff00
   180e6: 63 80 e7 32  	beq	a5, a4, 0x18406 <_dtoa_r+0x3a4>
   180ea: d3 07 00 f2  	fmv.d.x	fa5, zero
   180ee: 53 07 0d f2  	fmv.d.x	fa4, s10
   180f2: d3 27 f7 a2  	feq.d	a5, fa4, fa5
   180f6: 8d cf        	beqz	a5, 0x18130 <_dtoa_r+0xce>
   180f8: 02 67        	ld	a4, 0x0(sp)
   180fa: 85 47        	li	a5, 0x1
   180fc: 1c c3        	sw	a5, 0x0(a4)
   180fe: 63 88 0d 00  	beqz	s11, 0x1810e <_dtoa_r+0xac>
   18102: 97 87 ff ff  	auipc	a5, 0xffff8
   18106: 93 87 f7 48  	addi	a5, a5, 0x48f
   1810a: 23 b0 fd 00  	sd	a5, 0x0(s11)
   1810e: 17 8c ff ff  	auipc	s8, 0xffff8
   18112: 13 0c 2c 48  	addi	s8, s8, 0x482
   18116: ea 70        	ld	ra, 0xb8(sp)
   18118: 4a 74        	ld	s0, 0xb0(sp)
   1811a: aa 74        	ld	s1, 0xa8(sp)
   1811c: ea 69        	ld	s3, 0x98(sp)
   1811e: 4a 6a        	ld	s4, 0x90(sp)
   18120: aa 6a        	ld	s5, 0x88(sp)
   18122: 0a 6b        	ld	s6, 0x80(sp)
   18124: 06 7d        	ld	s10, 0x60(sp)
   18126: e6 6d        	ld	s11, 0x58(sp)
   18128: 62 85        	mv	a0, s8
   1812a: 46 7c        	ld	s8, 0x70(sp)
   1812c: 29 61        	addi	sp, sp, 0xc0
   1812e: 82 80        	ret
   18130: 53 05 0d f2  	fmv.d.x	fa0, s10
   18134: b0 00        	addi	a2, sp, 0x48
   18136: ec 00        	addi	a1, sp, 0x4c
   18138: 22 85        	mv	a0, s0
   1813a: 4a f1        	sd	s2, 0xa0(sp)
   1813c: de fc        	sd	s7, 0x78(sp)
   1813e: e6 f4        	sd	s9, 0x68(sp)
   18140: ef 10 20 70  	jal	0x19842 <__d2b>
   18144: 9b d7 4a 01  	srliw	a5, s5, 0x14
   18148: aa 84        	mv	s1, a0
   1814a: 1b d7 4a 01  	srliw	a4, s5, 0x14
   1814e: 63 91 07 2e  	bnez	a5, 0x18430 <_dtoa_r+0x3ce>
   18152: 26 46        	lw	a2, 0x48(sp)
   18154: 36 47        	lw	a4, 0x4c(sp)
   18156: 93 06 00 02  	li	a3, 0x20
   1815a: 81 29        	sext.w	s3, s3
   1815c: 31 9f        	addw	a4, a4, a2
   1815e: 9b 05 27 43  	addiw	a1, a4, 0x432
   18162: 63 d6 b6 68  	bge	a3, a1, 0x187ee <_dtoa_r+0x78c>
   18166: 93 06 00 04  	li	a3, 0x40
   1816a: 8d 9e        	subw	a3, a3, a1
   1816c: 9b 07 27 41  	addiw	a5, a4, 0x412
   18170: bb d9 f9 00  	srlw	s3, s3, a5
   18174: bb 9a da 00  	sllw	s5, s5, a3
   18178: b3 ea 3a 01  	or	s5, s5, s3
   1817c: 9b 89 0a 00  	sext.w	s3, s5
   18180: d3 87 19 d2  	fcvt.d.wu	fa5, s3
   18184: b7 06 10 fe  	lui	a3, 0xfe100
   18188: 7d 37        	addiw	a4, a4, -0x1
   1818a: d3 85 07 e2  	fmv.x.d	a1, fa5
   1818e: 93 d7 05 02  	srli	a5, a1, 0x20
   18192: bd 9e        	addw	a3, a3, a5
   18194: fd 57        	li	a5, -0x1
   18196: 81 93        	srli	a5, a5, 0x20
   18198: 82 16        	slli	a3, a3, 0x20
   1819a: ed 8f        	and	a5, a5, a1
   1819c: d5 8f        	or	a5, a5, a3
   1819e: 85 46        	li	a3, 0x1
   181a0: 36 f0        	sd	a3, 0x20(sp)
   181a2: 53 87 07 f2  	fmv.d.x	fa4, a5
   181a6: 97 96 ff ff  	auipc	a3, 0xffff9
   181aa: 87 b7 26 e6  	fld	fa5, -0x19e(a3)
   181ae: 97 97 ff ff  	auipc	a5, 0xffff9
   181b2: 87 b5 27 e7  	fld	fa1, -0x18e(a5)
   181b6: d3 77 f7 0a  	fsub.d	fa5, fa4, fa5
   181ba: 97 97 ff ff  	auipc	a5, 0xffff9
   181be: 07 b6 67 e5  	fld	fa2, -0x1aa(a5)
   181c2: 53 07 07 d2  	fcvt.d.w	fa4, a4
   181c6: 97 97 ff ff  	auipc	a5, 0xffff9
   181ca: 87 b6 27 e5  	fld	fa3, -0x1ae(a5)
   181ce: c3 f7 b7 62  	fmadd.d	fa5, fa5, fa1, fa2
   181d2: c3 77 d7 7a  	fmadd.d	fa5, fa4, fa3, fa5
   181d6: 53 07 00 f2  	fmv.d.x	fa4, zero
   181da: d3 97 07 c2  	fcvt.w.d	a5, fa5, rtz
   181de: d3 96 e7 a2  	flt.d	a3, fa5, fa4
   181e2: 9b 8b 07 00  	sext.w	s7, a5
   181e6: 63 90 06 58  	bnez	a3, 0x18766 <_dtoa_r+0x704>
   181ea: bb 06 e6 40  	subw	a3, a2, a4
   181ee: 59 47        	li	a4, 0x16
   181f0: b6 87        	mv	a5, a3
   181f2: 1b 89 f6 ff  	addiw	s2, a3, -0x1
   181f6: 63 65 77 57  	bltu	a4, s7, 0x18760 <_dtoa_r+0x6fe>
   181fa: 13 96 3b 00  	slli	a2, s7, 0x3
   181fe: 17 87 ff ff  	auipc	a4, 0xffff8
   18202: 13 07 a7 7c  	addi	a4, a4, 0x7ca
   18206: 32 97        	add	a4, a4, a2
   18208: 1c 23        	fld	fa5, 0x0(a4)
   1820a: 53 07 0d f2  	fmv.d.x	fa4, s10
   1820e: 53 17 f7 a2  	flt.d	a4, fa4, fa5
   18212: 63 05 07 5c  	beqz	a4, 0x187dc <_dtoa_r+0x77a>
   18216: fd 3b        	addiw	s7, s7, -0x1
   18218: 02 f8        	sd	zero, 0x30(sp)
   1821a: 81 4c        	li	s9, 0x0
   1821c: 63 4b 09 22  	bltz	s2, 0x18452 <_dtoa_r+0x3f0>
   18220: 63 df 0b 22  	bgez	s7, 0x1845e <_dtoa_r+0x3fc>
   18224: bb 07 70 41  	negw	a5, s7
   18228: 3e f4        	sd	a5, 0x28(sp)
   1822a: 5e e8        	sd	s7, 0x10(sp)
   1822c: a5 47        	li	a5, 0x9
   1822e: bb 8c 7c 41  	subw	s9, s9, s7
   18232: 81 4b        	li	s7, 0x0
   18234: 63 ec 67 23  	bltu	a5, s6, 0x1846c <_dtoa_r+0x40a>
   18238: 95 47        	li	a5, 0x5
   1823a: 63 d6 67 57  	bge	a5, s6, 0x187a6 <_dtoa_r+0x744>
   1823e: 71 3b        	addiw	s6, s6, -0x4
   18240: 8d 47        	li	a5, 0x3
   18242: 81 49        	li	s3, 0x0
   18244: e3 04 fb 08  	beq	s6, a5, 0x18acc <_dtoa_r+0xa6a>
   18248: e3 d3 67 07  	bge	a5, s6, 0x18aae <_dtoa_r+0xa4c>
   1824c: 91 47        	li	a5, 0x4
   1824e: 63 13 fb 7c  	bne	s6, a5, 0x18a14 <_dtoa_r+0x9b2>
   18252: 85 47        	li	a5, 0x1
   18254: 3e ec        	sd	a5, 0x18(sp)
   18256: 22 66        	ld	a2, 0x8(sp)
   18258: e3 56 c0 06  	blez	a2, 0x18ac4 <_dtoa_r+0xa62>
   1825c: 32 fc        	sd	a2, 0x38(sp)
   1825e: b2 8a        	mv	s5, a2
   18260: fd 46        	li	a3, 0x1f
   18262: 05 47        	li	a4, 0x1
   18264: 91 47        	li	a5, 0x4
   18266: e3 dc c6 2e  	bge	a3, a2, 0x18d5e <_dtoa_r+0xcfc>
   1826a: 9b 97 17 00  	slliw	a5, a5, 0x1
   1826e: 93 86 c7 01  	addi	a3, a5, 0x1c
   18272: 9b 05 07 00  	sext.w	a1, a4
   18276: 05 27        	addiw	a4, a4, 0x1
   18278: e3 79 d6 fe  	bgeu	a2, a3, 0x1826a <_dtoa_r+0x208>
   1827c: 81 25        	sext.w	a1, a1
   1827e: 2c cc        	sw	a1, 0x58(s0)
   18280: 22 85        	mv	a0, s0
   18282: ef 00 d0 30  	jal	0x18d8e <_Balloc>
   18286: 2a 8c        	mv	s8, a0
   18288: e3 0e 05 2a  	beqz	a0, 0x18d44 <_dtoa_r+0xce2>
   1828c: 28 e8        	sd	a0, 0x50(s0)
   1828e: 1b 86 0a 00  	sext.w	a2, s5
   18292: b9 47        	li	a5, 0xe
   18294: 63 ea c7 24  	bltu	a5, a2, 0x184e8 <_dtoa_r+0x486>
   18298: 63 88 09 24  	beqz	s3, 0x184e8 <_dtoa_r+0x486>
   1829c: c2 67        	ld	a5, 0x10(sp)
   1829e: e3 5b f0 04  	blez	a5, 0x18af4 <_dtoa_r+0xa92>
   182a2: 93 f6 f7 00  	andi	a3, a5, 0xf
   182a6: 8e 06        	slli	a3, a3, 0x3
   182a8: 9b d7 47 40  	sraiw	a5, a5, 0x4
   182ac: 17 87 ff ff  	auipc	a4, 0xffff8
   182b0: 13 07 c7 71  	addi	a4, a4, 0x71c
   182b4: 36 97        	add	a4, a4, a3
   182b6: 93 f6 07 01  	andi	a3, a5, 0x10
   182ba: 18 23        	fld	fa4, 0x0(a4)
   182bc: 63 84 06 7e  	beqz	a3, 0x18aa4 <_dtoa_r+0xa42>
   182c0: d3 06 0d f2  	fmv.d.x	fa3, s10
   182c4: 17 87 ff ff  	auipc	a4, 0xffff8
   182c8: 87 37 c7 6f  	fld	fa5, 0x6fc(a4)
   182cc: bd 8b        	andi	a5, a5, 0xf
   182ce: d3 f7 f6 1a  	fdiv.d	fa5, fa3, fa5
   182d2: 8d 45        	li	a1, 0x3
   182d4: 99 cf        	beqz	a5, 0x182f2 <_dtoa_r+0x290>
   182d6: 17 87 ff ff  	auipc	a4, 0xffff8
   182da: 13 07 a7 6c  	addi	a4, a4, 0x6ca
   182de: 93 f6 17 00  	andi	a3, a5, 0x1
   182e2: 89 c6        	beqz	a3, 0x182ec <_dtoa_r+0x28a>
   182e4: 14 23        	fld	fa3, 0x0(a4)
   182e6: 85 25        	addiw	a1, a1, 0x1
   182e8: 53 77 d7 12  	fmul.d	fa4, fa4, fa3
   182ec: 85 87        	srai	a5, a5, 0x1
   182ee: 21 07        	addi	a4, a4, 0x8
   182f0: fd f7        	bnez	a5, 0x182de <_dtoa_r+0x27c>
   182f2: d3 f7 e7 1a  	fdiv.d	fa5, fa5, fa4
   182f6: c2 77        	ld	a5, 0x30(sp)
   182f8: 89 cb        	beqz	a5, 0x1830a <_dtoa_r+0x2a8>
   182fa: 97 97 ff ff  	auipc	a5, 0xffff9
   182fe: 87 b5 e7 cd  	fld	fa1, -0x322(a5)
   18302: d3 97 b7 a2  	flt.d	a5, fa5, fa1
   18306: e3 9d 07 16  	bnez	a5, 0x18c80 <_dtoa_r+0xc1e>
   1830a: 53 87 05 d2  	fcvt.d.w	fa4, a1
   1830e: 97 97 ff ff  	auipc	a5, 0xffff9
   18312: 87 b6 27 cf  	fld	fa3, -0x30e(a5)
   18316: b7 07 c0 fc  	lui	a5, 0xfcc00
   1831a: 43 77 f7 6a  	fmadd.d	fa4, fa4, fa5, fa3
   1831e: d3 06 07 e2  	fmv.x.d	a3, fa4
   18322: 13 d7 06 02  	srli	a4, a3, 0x20
   18326: b9 9f        	addw	a5, a5, a4
   18328: 7d 57        	li	a4, -0x1
   1832a: 01 93        	srli	a4, a4, 0x20
   1832c: 82 17        	slli	a5, a5, 0x20
   1832e: 75 8f        	and	a4, a4, a3
   18330: 5d 8f        	or	a4, a4, a5
   18332: 63 89 0a 18  	beqz	s5, 0x184c4 <_dtoa_r+0x462>
   18336: c2 65        	ld	a1, 0x10(sp)
   18338: 56 85        	mv	a0, s5
   1833a: 53 9e 07 c2  	fcvt.w.d	t3, fa5, rtz
   1833e: 9b 06 f5 ff  	addiw	a3, a0, -0x1
   18342: 97 8e ff ff  	auipc	t4, 0xffff8
   18346: 93 8e 6e 68  	addi	t4, t4, 0x686
   1834a: 8e 06        	slli	a3, a3, 0x3
   1834c: f6 96        	add	a3, a3, t4
   1834e: 53 07 0e d2  	fcvt.d.w	fa4, t3
   18352: 94 22        	fld	fa3, 0x0(a3)
   18354: e2 66        	ld	a3, 0x18(sp)
   18356: 1b 0f 0e 03  	addiw	t5, t3, 0x30
   1835a: 93 07 1c 00  	addi	a5, s8, 0x1
   1835e: d3 f7 e7 0a  	fsub.d	fa5, fa5, fa4
   18362: 3e 8e        	mv	t3, a5
   18364: 13 7f ff 0f  	andi	t5, t5, 0xff
   18368: e3 89 06 06  	beqz	a3, 0x18bda <_dtoa_r+0xb78>
   1836c: 97 96 ff ff  	auipc	a3, 0xffff9
   18370: 07 b7 46 c8  	fld	fa4, -0x37c(a3)
   18374: 53 77 d7 1a  	fdiv.d	fa4, fa4, fa3
   18378: d3 06 07 f2  	fmv.d.x	fa3, a4
   1837c: 23 00 ec 01  	sb	t5, 0x0(s8)
   18380: 53 77 d7 0a  	fsub.d	fa4, fa4, fa3
   18384: 53 97 e7 a2  	flt.d	a4, fa5, fa4
   18388: e3 17 07 18  	bnez	a4, 0x18d16 <_dtoa_r+0xcb4>
   1838c: 05 47        	li	a4, 0x1
   1838e: be 86        	mv	a3, a5
   18390: 3b 07 c7 41  	subw	a4, a4, t3
   18394: 97 97 ff ff  	auipc	a5, 0xffff9
   18398: 87 b5 47 c4  	fld	fa1, -0x3bc(a5)
   1839c: 97 97 ff ff  	auipc	a5, 0xffff9
   183a0: 07 b6 47 c4  	fld	fa2, -0x3bc(a5)
   183a4: 05 a8        	j	0x183d4 <_dtoa_r+0x372>
   183a6: bb 07 d7 00  	addw	a5, a4, a3
   183aa: 63 de a7 12  	bge	a5, a0, 0x184e6 <_dtoa_r+0x484>
   183ae: d3 f7 c7 12  	fmul.d	fa5, fa5, fa2
   183b2: 53 77 c7 12  	fmul.d	fa4, fa4, fa2
   183b6: 85 06        	addi	a3, a3, 0x1
   183b8: d3 97 07 c2  	fcvt.w.d	a5, fa5, rtz
   183bc: d3 86 07 d2  	fcvt.d.w	fa3, a5
   183c0: 9b 87 07 03  	addiw	a5, a5, 0x30
   183c4: a3 8f f6 fe  	sb	a5, -0x1(a3)
   183c8: d3 f7 d7 0a  	fsub.d	fa5, fa5, fa3
   183cc: d3 97 e7 a2  	flt.d	a5, fa5, fa4
   183d0: e3 97 07 12  	bnez	a5, 0x18cfe <_dtoa_r+0xc9c>
   183d4: d3 f6 f5 0a  	fsub.d	fa3, fa1, fa5
   183d8: d3 97 e6 a2  	flt.d	a5, fa3, fa4
   183dc: e9 d7        	beqz	a5, 0x183a6 <_dtoa_r+0x344>
   183de: 85 25        	addiw	a1, a1, 0x1
   183e0: 13 06 90 03  	li	a2, 0x39
   183e4: 19 a0        	j	0x183ea <_dtoa_r+0x388>
   183e6: e3 02 dc 0e  	beq	s8, a3, 0x18cca <_dtoa_r+0xc68>
   183ea: 03 c7 f6 ff  	lbu	a4, -0x1(a3)
   183ee: b6 87        	mv	a5, a3
   183f0: fd 16        	addi	a3, a3, -0x1
   183f2: e3 0a c7 fe  	beq	a4, a2, 0x183e6 <_dtoa_r+0x384>
   183f6: 05 27        	addiw	a4, a4, 0x1
   183f8: 13 77 f7 0f  	andi	a4, a4, 0xff
   183fc: 23 80 e6 00  	sb	a4, 0x0(a3)
   18400: 1b 8a 05 00  	sext.w	s4, a1
   18404: e5 ac        	j	0x186fc <_dtoa_r+0x69a>
   18406: 02 67        	ld	a4, 0x0(sp)
   18408: 89 67        	lui	a5, 0x2
   1840a: 93 87 f7 70  	addi	a5, a5, 0x70f
   1840e: 1c c3        	sw	a5, 0x0(a4)
   18410: 32 0d        	slli	s10, s10, 0xc
   18412: 63 18 0d 06  	bnez	s10, 0x18482 <_dtoa_r+0x420>
   18416: 17 8c ff ff  	auipc	s8, 0xffff8
   1841a: 13 0c 2c 21  	addi	s8, s8, 0x212
   1841e: 97 87 ff ff  	auipc	a5, 0xffff8
   18422: 93 87 27 21  	addi	a5, a5, 0x212
   18426: e3 88 0d ce  	beqz	s11, 0x18116 <_dtoa_r+0xb4>
   1842a: 23 b0 fd 00  	sd	a5, 0x0(s11)
   1842e: e5 b1        	j	0x18116 <_dtoa_r+0xb4>
   18430: 93 16 cd 00  	slli	a3, s10, 0xc
   18434: b7 07 f0 3f  	lui	a5, 0x3ff00
   18438: b1 92        	srli	a3, a3, 0x2c
   1843a: dd 8e        	or	a3, a3, a5
   1843c: fd 57        	li	a5, -0x1
   1843e: 81 93        	srli	a5, a5, 0x20
   18440: 82 16        	slli	a3, a3, 0x20
   18442: b3 f7 a7 01  	and	a5, a5, s10
   18446: 26 46        	lw	a2, 0x48(sp)
   18448: d5 8f        	or	a5, a5, a3
   1844a: 1b 07 17 c0  	addiw	a4, a4, -0x3ff
   1844e: 02 f0        	sd	zero, 0x20(sp)
   18450: 89 bb        	j	0x181a2 <_dtoa_r+0x140>
   18452: 05 43        	li	t1, 0x1
   18454: bb 0c f3 40  	subw	s9, t1, a5
   18458: 01 49        	li	s2, 0x0
   1845a: e3 c5 0b dc  	bltz	s7, 0x18224 <_dtoa_r+0x1c2>
   1845e: 5e e8        	sd	s7, 0x10(sp)
   18460: 02 f4        	sd	zero, 0x28(sp)
   18462: a5 47        	li	a5, 0x9
   18464: 3b 89 2b 01  	addw	s2, s7, s2
   18468: e3 f8 67 dd  	bgeu	a5, s6, 0x18238 <_dtoa_r+0x1d6>
   1846c: 85 47        	li	a5, 0x1
   1846e: 85 49        	li	s3, 0x1
   18470: 01 4b        	li	s6, 0x0
   18472: 3e ec        	sd	a5, 0x18(sp)
   18474: fd 5a        	li	s5, -0x1
   18476: 02 e4        	sd	zero, 0x8(sp)
   18478: 23 2c 04 04  	sw	zero, 0x58(s0)
   1847c: 56 fc        	sd	s5, 0x38(sp)
   1847e: 81 45        	li	a1, 0x0
   18480: 01 b5        	j	0x18280 <_dtoa_r+0x21e>
   18482: 17 8c ff ff  	auipc	s8, 0xffff8
   18486: 13 0c 6c 02  	addi	s8, s8, 0x26
   1848a: 97 87 ff ff  	auipc	a5, 0xffff8
   1848e: 93 87 17 02  	addi	a5, a5, 0x21
   18492: e3 82 0d c8  	beqz	s11, 0x18116 <_dtoa_r+0xb4>
   18496: 23 b0 fd 00  	sd	a5, 0x0(s11)
   1849a: b5 b9        	j	0x18116 <_dtoa_r+0xb4>
   1849c: 53 87 05 d2  	fcvt.d.w	fa4, a1
   184a0: 97 97 ff ff  	auipc	a5, 0xffff9
   184a4: 87 b6 07 b6  	fld	fa3, -0x4a0(a5)
   184a8: b7 07 c0 fc  	lui	a5, 0xfcc00
   184ac: 43 f7 e7 6a  	fmadd.d	fa4, fa5, fa4, fa3
   184b0: d3 06 07 e2  	fmv.x.d	a3, fa4
   184b4: 13 d7 06 02  	srli	a4, a3, 0x20
   184b8: b9 9f        	addw	a5, a5, a4
   184ba: 7d 57        	li	a4, -0x1
   184bc: 01 93        	srli	a4, a4, 0x20
   184be: 82 17        	slli	a5, a5, 0x20
   184c0: 75 8f        	and	a4, a4, a3
   184c2: 5d 8f        	or	a4, a4, a5
   184c4: 97 97 ff ff  	auipc	a5, 0xffff9
   184c8: 07 b7 47 b2  	fld	fa4, -0x4dc(a5)
   184cc: d3 f7 e7 0a  	fsub.d	fa5, fa5, fa4
   184d0: 53 07 07 f2  	fmv.d.x	fa4, a4
   184d4: d3 17 f7 a2  	flt.d	a5, fa4, fa5
   184d8: e3 99 07 00  	bnez	a5, 0x18cea <_dtoa_r+0xc88>
   184dc: 53 17 e7 22  	fneg.d	fa4, fa4
   184e0: d3 97 e7 a2  	flt.d	a5, fa5, fa4
   184e4: a9 e7        	bnez	a5, 0x1852e <_dtoa_r+0x4cc>
   184e6: 6a 8a        	mv	s4, s10
   184e8: b6 47        	lw	a5, 0x4c(sp)
   184ea: 63 c6 07 0c  	bltz	a5, 0x185b6 <_dtoa_r+0x554>
   184ee: c2 66        	ld	a3, 0x10(sp)
   184f0: 39 47        	li	a4, 0xe
   184f2: 63 42 d7 0c  	blt	a4, a3, 0x185b6 <_dtoa_r+0x554>
   184f6: c2 67        	ld	a5, 0x10(sp)
   184f8: 13 97 37 00  	slli	a4, a5, 0x3
   184fc: 97 87 ff ff  	auipc	a5, 0xffff8
   18500: 93 87 c7 4c  	addi	a5, a5, 0x4cc
   18504: ba 97        	add	a5, a5, a4
   18506: 98 23        	fld	fa4, 0x0(a5)
   18508: a2 67        	ld	a5, 0x8(sp)
   1850a: 63 d9 07 02  	bgez	a5, 0x1853c <_dtoa_r+0x4da>
   1850e: 63 47 50 03  	bgtz	s5, 0x1853c <_dtoa_r+0x4da>
   18512: 63 9e 0a 00  	bnez	s5, 0x1852e <_dtoa_r+0x4cc>
   18516: 97 97 ff ff  	auipc	a5, 0xffff9
   1851a: 87 b7 27 ad  	fld	fa5, -0x52e(a5)
   1851e: 53 77 f7 12  	fmul.d	fa4, fa4, fa5
   18522: d3 07 0a f2  	fmv.d.x	fa5, s4
   18526: d3 87 e7 a2  	fle.d	a5, fa5, fa4
   1852a: 63 80 07 7c  	beqz	a5, 0x18cea <_dtoa_r+0xc88>
   1852e: e2 87        	mv	a5, s8
   18530: 01 4d        	li	s10, 0x0
   18532: 81 49        	li	s3, 0x0
   18534: 22 67        	ld	a4, 0x8(sp)
   18536: 13 4a f7 ff  	not	s4, a4
   1853a: b5 a1        	j	0x189a6 <_dtoa_r+0x944>
   1853c: 13 0e 1c 00  	addi	t3, s8, 0x1
   18540: d3 07 0a f2  	fmv.d.x	fa5, s4
   18544: d3 06 0a f2  	fmv.d.x	fa3, s4
   18548: 85 46        	li	a3, 0x1
   1854a: d3 f7 e7 1a  	fdiv.d	fa5, fa5, fa4
   1854e: f2 87        	mv	a5, t3
   18550: 53 97 07 c2  	fcvt.w.d	a4, fa5, rtz
   18554: d3 07 07 d2  	fcvt.d.w	fa5, a4
   18558: 9b 05 07 03  	addiw	a1, a4, 0x30
   1855c: 23 00 bc 00  	sb	a1, 0x0(s8)
   18560: cb f7 e7 6a  	fnmsub.d	fa5, fa5, fa4, fa3
   18564: 01 27        	sext.w	a4, a4
   18566: 63 86 da 5e  	beq	s5, a3, 0x18b52 <_dtoa_r+0xaf0>
   1856a: 9b 06 e6 ff  	addiw	a3, a2, -0x2
   1856e: 82 16        	slli	a3, a3, 0x20
   18570: 81 92        	srli	a3, a3, 0x20
   18572: 89 06        	addi	a3, a3, 0x2
   18574: d3 05 00 f2  	fmv.d.x	fa1, zero
   18578: e2 96        	add	a3, a3, s8
   1857a: 17 97 ff ff  	auipc	a4, 0xffff9
   1857e: 07 36 67 a6  	fld	fa2, -0x59a(a4)
   18582: 0d a0        	j	0x185a4 <_dtoa_r+0x542>
   18584: d3 f6 e7 1a  	fdiv.d	fa3, fa5, fa4
   18588: 85 07        	addi	a5, a5, 0x1
   1858a: 53 97 06 c2  	fcvt.w.d	a4, fa3, rtz
   1858e: d3 06 07 d2  	fcvt.d.w	fa3, a4
   18592: 1b 06 07 03  	addiw	a2, a4, 0x30
   18596: a3 8f c7 fe  	sb	a2, -0x1(a5)
   1859a: cb f7 e6 7a  	fnmsub.d	fa5, fa3, fa4, fa5
   1859e: 01 27        	sext.w	a4, a4
   185a0: 63 8a f6 5a  	beq	a3, a5, 0x18b54 <_dtoa_r+0xaf2>
   185a4: d3 f7 c7 12  	fmul.d	fa5, fa5, fa2
   185a8: 53 a7 b7 a2  	feq.d	a4, fa5, fa1
   185ac: 61 df        	beqz	a4, 0x18584 <_dtoa_r+0x522>
   185ae: 42 67        	ld	a4, 0x10(sp)
   185b0: 1b 0a 17 00  	addiw	s4, a4, 0x1
   185b4: a1 a2        	j	0x186fc <_dtoa_r+0x69a>
   185b6: 62 67        	ld	a4, 0x18(sp)
   185b8: 63 12 07 1c  	bnez	a4, 0x1877c <_dtoa_r+0x71a>
   185bc: 22 7d        	ld	s10, 0x28(sp)
   185be: 66 f0        	sd	s9, 0x20(sp)
   185c0: 02 ec        	sd	zero, 0x18(sp)
   185c2: 81 49        	li	s3, 0x0
   185c4: 02 77        	ld	a4, 0x20(sp)
   185c6: ba 87        	mv	a5, a4
   185c8: 01 cf        	beqz	a4, 0x185e0 <_dtoa_r+0x57e>
   185ca: 63 5b 20 01  	blez	s2, 0x185e0 <_dtoa_r+0x57e>
   185ce: 63 47 e9 48  	blt	s2, a4, 0x18a5c <_dtoa_r+0x9fa>
   185d2: 02 77        	ld	a4, 0x20(sp)
   185d4: bb 8c fc 40  	subw	s9, s9, a5
   185d8: 3b 09 f9 40  	subw	s2, s2, a5
   185dc: 1d 9f        	subw	a4, a4, a5
   185de: 3a f0        	sd	a4, 0x20(sp)
   185e0: a2 77        	ld	a5, 0x28(sp)
   185e2: 99 cb        	beqz	a5, 0x185f8 <_dtoa_r+0x596>
   185e4: e2 67        	ld	a5, 0x18(sp)
   185e6: 99 c3        	beqz	a5, 0x185ec <_dtoa_r+0x58a>
   185e8: 63 11 0d 5c  	bnez	s10, 0x18baa <_dtoa_r+0xb48>
   185ec: 22 76        	ld	a2, 0x28(sp)
   185ee: a6 85        	mv	a1, s1
   185f0: 22 85        	mv	a0, s0
   185f2: ef 00 50 4f  	jal	0x192e6 <__pow5mult>
   185f6: aa 84        	mv	s1, a0
   185f8: 85 45        	li	a1, 0x1
   185fa: 22 85        	mv	a0, s0
   185fc: ef 00 30 2d  	jal	0x190ce <__i2b>
   18600: 2a 8d        	mv	s10, a0
   18602: 63 9c 0b 3a  	bnez	s7, 0x189ba <_dtoa_r+0x958>
   18606: 85 47        	li	a5, 0x1
   18608: 63 d0 67 3f  	bge	a5, s6, 0x189e8 <_dtoa_r+0x986>
   1860c: bb 87 27 01  	addw	a5, a5, s2
   18610: fd 8b        	andi	a5, a5, 0x1f
   18612: 63 83 07 16  	beqz	a5, 0x18778 <_dtoa_r+0x716>
   18616: 13 07 00 02  	li	a4, 0x20
   1861a: 1d 9f        	subw	a4, a4, a5
   1861c: 91 46        	li	a3, 0x4
   1861e: 63 d4 e6 3e  	bge	a3, a4, 0x18a06 <_dtoa_r+0x9a4>
   18622: 71 47        	li	a4, 0x1c
   18624: bb 07 f7 40  	subw	a5, a4, a5
   18628: 02 77        	ld	a4, 0x20(sp)
   1862a: bb 8c 97 01  	addw	s9, a5, s9
   1862e: 3b 89 27 01  	addw	s2, a5, s2
   18632: 3d 9f        	addw	a4, a4, a5
   18634: 3a f0        	sd	a4, 0x20(sp)
   18636: 63 46 90 0f  	bgtz	s9, 0x18722 <_dtoa_r+0x6c0>
   1863a: 63 58 20 01  	blez	s2, 0x1864a <_dtoa_r+0x5e8>
   1863e: ea 85        	mv	a1, s10
   18640: 4a 86        	mv	a2, s2
   18642: 22 85        	mv	a0, s0
   18644: ef 00 d0 57  	jal	0x193c0 <__lshift>
   18648: 2a 8d        	mv	s10, a0
   1864a: c2 77        	ld	a5, 0x30(sp)
   1864c: 63 92 07 0e  	bnez	a5, 0x18730 <_dtoa_r+0x6ce>
   18650: 63 5d 50 31  	blez	s5, 0x1896a <_dtoa_r+0x908>
   18654: e2 67        	ld	a5, 0x18(sp)
   18656: 63 9f 07 1a  	bnez	a5, 0x18814 <_dtoa_r+0x7b2>
   1865a: c2 67        	ld	a5, 0x10(sp)
   1865c: 1b 8a 17 00  	addiw	s4, a5, 0x1
   18660: 05 4b        	li	s6, 0x1
   18662: 62 89        	mv	s2, s8
   18664: 3b 0b 8b 41  	subw	s6, s6, s8
   18668: 09 a8        	j	0x1867a <_dtoa_r+0x618>
   1866a: a6 85        	mv	a1, s1
   1866c: 81 46        	li	a3, 0x0
   1866e: 29 46        	li	a2, 0xa
   18670: 22 85        	mv	a0, s0
   18672: ef 00 20 79  	jal	0x18e04 <__multadd>
   18676: aa 84        	mv	s1, a0
   18678: 05 09        	addi	s2, s2, 0x1
   1867a: ea 85        	mv	a1, s10
   1867c: 26 85        	mv	a0, s1
   1867e: ef f0 1f 88  	jal	0x17efe <quorem>
   18682: 9b 0b 05 03  	addiw	s7, a0, 0x30
   18686: 23 00 79 01  	sb	s7, 0x0(s2)
   1868a: bb 07 2b 01  	addw	a5, s6, s2
   1868e: e3 ce 57 fd  	blt	a5, s5, 0x1866a <_dtoa_r+0x608>
   18692: 05 49        	li	s2, 0x1
   18694: 63 4d 50 3b  	bgtz	s5, 0x18a4e <_dtoa_r+0x9ec>
   18698: 62 99        	add	s2, s2, s8
   1869a: 81 4a        	li	s5, 0x0
   1869c: a6 85        	mv	a1, s1
   1869e: 05 46        	li	a2, 0x1
   186a0: 22 85        	mv	a0, s0
   186a2: ef 00 f0 51  	jal	0x193c0 <__lshift>
   186a6: ea 85        	mv	a1, s10
   186a8: aa 84        	mv	s1, a0
   186aa: ef 00 f0 63  	jal	0x194e8 <__mcmp>
   186ae: 63 52 a0 38  	blez	a0, 0x18a32 <_dtoa_r+0x9d0>
   186b2: 93 06 90 03  	li	a3, 0x39
   186b6: 19 a0        	j	0x186bc <_dtoa_r+0x65a>
   186b8: 63 08 89 43  	beq	s2, s8, 0x18ae8 <_dtoa_r+0xa86>
   186bc: 03 47 f9 ff  	lbu	a4, -0x1(s2)
   186c0: ca 87        	mv	a5, s2
   186c2: 7d 19        	addi	s2, s2, -0x1
   186c4: e3 0a d7 fe  	beq	a4, a3, 0x186b8 <_dtoa_r+0x656>
   186c8: 05 27        	addiw	a4, a4, 0x1
   186ca: 23 00 e9 00  	sb	a4, 0x0(s2)
   186ce: ea 85        	mv	a1, s10
   186d0: 22 85        	mv	a0, s0
   186d2: 3e e4        	sd	a5, 0x8(sp)
   186d4: ef 00 e0 71  	jal	0x18df2 <_Bfree>
   186d8: a2 67        	ld	a5, 0x8(sp)
   186da: 63 81 09 02  	beqz	s3, 0x186fc <_dtoa_r+0x69a>
   186de: 63 89 0a 00  	beqz	s5, 0x186f0 <_dtoa_r+0x68e>
   186e2: 63 87 3a 01  	beq	s5, s3, 0x186f0 <_dtoa_r+0x68e>
   186e6: d6 85        	mv	a1, s5
   186e8: 22 85        	mv	a0, s0
   186ea: ef 00 80 70  	jal	0x18df2 <_Bfree>
   186ee: a2 67        	ld	a5, 0x8(sp)
   186f0: ce 85        	mv	a1, s3
   186f2: 22 85        	mv	a0, s0
   186f4: 3e e4        	sd	a5, 0x8(sp)
   186f6: ef 00 c0 6f  	jal	0x18df2 <_Bfree>
   186fa: a2 67        	ld	a5, 0x8(sp)
   186fc: a6 85        	mv	a1, s1
   186fe: 22 85        	mv	a0, s0
   18700: 3e e4        	sd	a5, 0x8(sp)
   18702: ef 00 00 6f  	jal	0x18df2 <_Bfree>
   18706: a2 67        	ld	a5, 0x8(sp)
   18708: 02 67        	ld	a4, 0x0(sp)
   1870a: 23 80 07 00  	sb	zero, 0x0(a5)
   1870e: 23 20 47 01  	sw	s4, 0x0(a4)
   18712: 63 87 0d 24  	beqz	s11, 0x18960 <_dtoa_r+0x8fe>
   18716: 0a 79        	ld	s2, 0xa0(sp)
   18718: e6 7b        	ld	s7, 0x78(sp)
   1871a: a6 7c        	ld	s9, 0x68(sp)
   1871c: 23 b0 fd 00  	sd	a5, 0x0(s11)
   18720: dd ba        	j	0x18116 <_dtoa_r+0xb4>
   18722: a6 85        	mv	a1, s1
   18724: 66 86        	mv	a2, s9
   18726: 22 85        	mv	a0, s0
   18728: ef 00 90 49  	jal	0x193c0 <__lshift>
   1872c: aa 84        	mv	s1, a0
   1872e: 31 b7        	j	0x1863a <_dtoa_r+0x5d8>
   18730: ea 85        	mv	a1, s10
   18732: 26 85        	mv	a0, s1
   18734: ef 00 50 5b  	jal	0x194e8 <__mcmp>
   18738: e3 5c 05 f0  	bgez	a0, 0x18650 <_dtoa_r+0x5ee>
   1873c: c2 67        	ld	a5, 0x10(sp)
   1873e: a6 85        	mv	a1, s1
   18740: 81 46        	li	a3, 0x0
   18742: 29 46        	li	a2, 0xa
   18744: 22 85        	mv	a0, s0
   18746: 9b 8a f7 ff  	addiw	s5, a5, -0x1
   1874a: ef 00 a0 6b  	jal	0x18e04 <__multadd>
   1874e: e2 67        	ld	a5, 0x18(sp)
   18750: aa 84        	mv	s1, a0
   18752: cd e7        	bnez	a5, 0x187fc <_dtoa_r+0x79a>
   18754: e2 77        	ld	a5, 0x38(sp)
   18756: 63 53 f0 5c  	blez	a5, 0x18d1c <_dtoa_r+0xcba>
   1875a: 42 6a        	ld	s4, 0x10(sp)
   1875c: be 8a        	mv	s5, a5
   1875e: 09 b7        	j	0x18660 <_dtoa_r+0x5fe>
   18760: 05 47        	li	a4, 0x1
   18762: 3a f8        	sd	a4, 0x30(sp)
   18764: 5d bc        	j	0x1821a <_dtoa_r+0x1b8>
   18766: 53 87 07 d2  	fcvt.d.w	fa4, a5
   1876a: d3 26 f7 a2  	feq.d	a3, fa4, fa5
   1876e: e3 9e 06 a6  	bnez	a3, 0x181ea <_dtoa_r+0x188>
   18772: 9b 8b f7 ff  	addiw	s7, a5, -0x1
   18776: 95 bc        	j	0x181ea <_dtoa_r+0x188>
   18778: f1 47        	li	a5, 0x1c
   1877a: 7d b5        	j	0x18628 <_dtoa_r+0x5c6>
   1877c: 05 47        	li	a4, 0x1
   1877e: 63 59 67 35  	bge	a4, s6, 0x18ad0 <_dtoa_r+0xa6e>
   18782: 22 77        	ld	a4, 0x28(sp)
   18784: 9b 87 fa ff  	addiw	a5, s5, -0x1
   18788: 63 4c f7 2c  	blt	a4, a5, 0x18a60 <_dtoa_r+0x9fe>
   1878c: 3b 0d f7 40  	subw	s10, a4, a5
   18790: bb 87 5c 41  	subw	a5, s9, s5
   18794: 3e f0        	sd	a5, 0x20(sp)
   18796: 63 c1 0a 2e  	bltz	s5, 0x18a78 <_dtoa_r+0xa16>
   1879a: 66 f0        	sd	s9, 0x20(sp)
   1879c: 3b 09 59 01  	addw	s2, s2, s5
   187a0: bb 8c 5c 01  	addw	s9, s9, s5
   187a4: d1 ac        	j	0x18a78 <_dtoa_r+0xa16>
   187a6: 8d 47        	li	a5, 0x3
   187a8: 85 49        	li	s3, 0x1
   187aa: 63 01 fb 32  	beq	s6, a5, 0x18acc <_dtoa_r+0xa6a>
   187ae: e3 cf 67 a9  	blt	a5, s6, 0x1824c <_dtoa_r+0x1ea>
   187b2: 89 47        	li	a5, 0x2
   187b4: 63 0a fb 5c  	beq	s6, a5, 0x18d88 <_dtoa_r+0xd26>
   187b8: 23 2c 04 04  	sw	zero, 0x58(s0)
   187bc: 81 45        	li	a1, 0x0
   187be: 22 85        	mv	a0, s0
   187c0: ef 00 e0 5c  	jal	0x18d8e <_Balloc>
   187c4: 2a 8c        	mv	s8, a0
   187c6: 63 0f 05 56  	beqz	a0, 0x18d44 <_dtoa_r+0xce2>
   187ca: 85 47        	li	a5, 0x1
   187cc: 3e ec        	sd	a5, 0x18(sp)
   187ce: fd 57        	li	a5, -0x1
   187d0: 28 e8        	sd	a0, 0x50(s0)
   187d2: 3e fc        	sd	a5, 0x38(sp)
   187d4: fd 5a        	li	s5, -0x1
   187d6: 02 e4        	sd	zero, 0x8(sp)
   187d8: 7d 56        	li	a2, -0x1
   187da: 39 b3        	j	0x184e8 <_dtoa_r+0x486>
   187dc: 02 f8        	sd	zero, 0x30(sp)
   187de: 81 4c        	li	s9, 0x0
   187e0: e3 4f d0 c6  	bgtz	a3, 0x1845e <_dtoa_r+0x3fc>
   187e4: 05 43        	li	t1, 0x1
   187e6: bb 0c d3 40  	subw	s9, t1, a3
   187ea: 01 49        	li	s2, 0x0
   187ec: 8d b9        	j	0x1845e <_dtoa_r+0x3fc>
   187ee: 93 06 00 02  	li	a3, 0x20
   187f2: bb 87 b6 40  	subw	a5, a3, a1
   187f6: bb 99 f9 00  	sllw	s3, s3, a5
   187fa: 59 b2        	j	0x18180 <_dtoa_r+0x11e>
   187fc: ce 85        	mv	a1, s3
   187fe: 81 46        	li	a3, 0x0
   18800: 29 46        	li	a2, 0xa
   18802: 22 85        	mv	a0, s0
   18804: ef 00 00 60  	jal	0x18e04 <__multadd>
   18808: e2 77        	ld	a5, 0x38(sp)
   1880a: aa 89        	mv	s3, a0
   1880c: 63 53 f0 52  	blez	a5, 0x18d32 <_dtoa_r+0xcd0>
   18810: 56 e8        	sd	s5, 0x10(sp)
   18812: be 8a        	mv	s5, a5
   18814: 82 77        	ld	a5, 0x20(sp)
   18816: 63 58 f0 00  	blez	a5, 0x18826 <_dtoa_r+0x7c4>
   1881a: ce 85        	mv	a1, s3
   1881c: 3e 86        	mv	a2, a5
   1881e: 22 85        	mv	a0, s0
   18820: ef 00 10 3a  	jal	0x193c0 <__lshift>
   18824: aa 89        	mv	s3, a0
   18826: ce 8c        	mv	s9, s3
   18828: 63 99 0b 34  	bnez	s7, 0x18b7a <_dtoa_r+0xb18>
   1882c: b3 07 5c 01  	add	a5, s8, s5
   18830: 3e ec        	sd	a5, 0x18(sp)
   18832: 93 77 1a 00  	andi	a5, s4, 0x1
   18836: 62 89        	mv	s2, s8
   18838: 3e fc        	sd	a5, 0x38(sp)
   1883a: 3e f8        	sd	a5, 0x30(sp)
   1883c: ea 85        	mv	a1, s10
   1883e: 26 85        	mv	a0, s1
   18840: ef f0 ef eb  	jal	0x17efe <quorem>
   18844: 2a f4        	sd	a0, 0x28(sp)
   18846: 9b 0b 05 03  	addiw	s7, a0, 0x30
   1884a: ce 85        	mv	a1, s3
   1884c: 26 85        	mv	a0, s1
   1884e: 5e d0        	sw	s7, 0x20(sp)
   18850: ef 00 90 49  	jal	0x194e8 <__mcmp>
   18854: ea 85        	mv	a1, s10
   18856: aa 8a        	mv	s5, a0
   18858: 66 86        	mv	a2, s9
   1885a: 22 85        	mv	a0, s0
   1885c: ef 00 50 4c  	jal	0x19520 <__mdiff>
   18860: 1c 49        	lw	a5, 0x10(a0)
   18862: aa 85        	mv	a1, a0
   18864: bd e3        	bnez	a5, 0x188ca <_dtoa_r+0x868>
   18866: 2a e4        	sd	a0, 0x8(sp)
   18868: 26 85        	mv	a0, s1
   1886a: ef 00 f0 47  	jal	0x194e8 <__mcmp>
   1886e: a2 65        	ld	a1, 0x8(sp)
   18870: aa 87        	mv	a5, a0
   18872: 22 85        	mv	a0, s0
   18874: 3e e4        	sd	a5, 0x8(sp)
   18876: ef 00 c0 57  	jal	0x18df2 <_Bfree>
   1887a: a2 67        	ld	a5, 0x8(sp)
   1887c: 33 e7 67 01  	or	a4, a5, s6
   18880: 01 27        	sext.w	a4, a4
   18882: 5d e3        	bnez	a4, 0x18928 <_dtoa_r+0x8c6>
   18884: c2 77        	ld	a5, 0x30(sp)
   18886: 63 85 07 46  	beqz	a5, 0x18cf0 <_dtoa_r+0xc8e>
   1888a: 63 c0 0a 08  	bltz	s5, 0x1890a <_dtoa_r+0x8a8>
   1888e: e2 67        	ld	a5, 0x18(sp)
   18890: 05 09        	addi	s2, s2, 0x1
   18892: a3 0f 79 ff  	sb	s7, -0x1(s2)
   18896: 63 0a f9 3c  	beq	s2, a5, 0x18c6a <_dtoa_r+0xc08>
   1889a: a6 85        	mv	a1, s1
   1889c: 81 46        	li	a3, 0x0
   1889e: 29 46        	li	a2, 0xa
   188a0: 22 85        	mv	a0, s0
   188a2: ef 00 20 56  	jal	0x18e04 <__multadd>
   188a6: aa 84        	mv	s1, a0
   188a8: 81 46        	li	a3, 0x0
   188aa: 29 46        	li	a2, 0xa
   188ac: ce 85        	mv	a1, s3
   188ae: 22 85        	mv	a0, s0
   188b0: 63 87 99 07  	beq	s3, s9, 0x1891e <_dtoa_r+0x8bc>
   188b4: ef 00 00 55  	jal	0x18e04 <__multadd>
   188b8: e6 85        	mv	a1, s9
   188ba: aa 89        	mv	s3, a0
   188bc: 81 46        	li	a3, 0x0
   188be: 29 46        	li	a2, 0xa
   188c0: 22 85        	mv	a0, s0
   188c2: ef 00 20 54  	jal	0x18e04 <__multadd>
   188c6: aa 8c        	mv	s9, a0
   188c8: 95 bf        	j	0x1883c <_dtoa_r+0x7da>
   188ca: 22 85        	mv	a0, s0
   188cc: ef 00 60 52  	jal	0x18df2 <_Bfree>
   188d0: 63 cb 0a 00  	bltz	s5, 0x188e6 <_dtoa_r+0x884>
   188d4: 13 7a 1a 00  	andi	s4, s4, 0x1
   188d8: b3 ea 6a 01  	or	s5, s5, s6
   188dc: 33 6a 5a 01  	or	s4, s4, s5
   188e0: 01 2a        	sext.w	s4, s4
   188e2: 63 1e 0a 04  	bnez	s4, 0x1893e <_dtoa_r+0x8dc>
   188e6: a6 85        	mv	a1, s1
   188e8: 05 46        	li	a2, 0x1
   188ea: 22 85        	mv	a0, s0
   188ec: ef 00 50 2d  	jal	0x193c0 <__lshift>
   188f0: ea 85        	mv	a1, s10
   188f2: aa 84        	mv	s1, a0
   188f4: ef 00 50 3f  	jal	0x194e8 <__mcmp>
   188f8: 63 5f a0 1a  	blez	a0, 0x18ab6 <_dtoa_r+0xa54>
   188fc: 93 07 90 03  	li	a5, 0x39
   18900: 63 8a fb 3c  	beq	s7, a5, 0x18cd4 <_dtoa_r+0xc72>
   18904: a2 77        	ld	a5, 0x28(sp)
   18906: 9b 8b 17 03  	addiw	s7, a5, 0x31
   1890a: 42 67        	ld	a4, 0x10(sp)
   1890c: ce 8a        	mv	s5, s3
   1890e: 93 07 19 00  	addi	a5, s2, 0x1
   18912: 23 00 79 01  	sb	s7, 0x0(s2)
   18916: 1b 0a 17 00  	addiw	s4, a4, 0x1
   1891a: e6 89        	mv	s3, s9
   1891c: 4d bb        	j	0x186ce <_dtoa_r+0x66c>
   1891e: ef 00 60 4e  	jal	0x18e04 <__multadd>
   18922: aa 89        	mv	s3, a0
   18924: aa 8c        	mv	s9, a0
   18926: 19 bf        	j	0x1883c <_dtoa_r+0x7da>
   18928: 63 cd 0a 44  	bltz	s5, 0x18d82 <_dtoa_r+0xd20>
   1892c: e2 76        	ld	a3, 0x38(sp)
   1892e: 33 e7 6a 01  	or	a4, s5, s6
   18932: 55 8f        	or	a4, a4, a3
   18934: 01 27        	sext.w	a4, a4
   18936: 63 06 07 44  	beqz	a4, 0x18d82 <_dtoa_r+0xd20>
   1893a: e3 5a f0 f4  	blez	a5, 0x1888e <_dtoa_r+0x82c>
   1893e: 93 07 90 03  	li	a5, 0x39
   18942: 63 89 fb 38  	beq	s7, a5, 0x18cd4 <_dtoa_r+0xc72>
   18946: 82 57        	lw	a5, 0x20(sp)
   18948: c2 66        	ld	a3, 0x10(sp)
   1894a: ce 8a        	mv	s5, s3
   1894c: 1b 87 17 00  	addiw	a4, a5, 0x1
   18950: 1b 8a 16 00  	addiw	s4, a3, 0x1
   18954: 93 07 19 00  	addi	a5, s2, 0x1
   18958: 23 00 e9 00  	sb	a4, 0x0(s2)
   1895c: e6 89        	mv	s3, s9
   1895e: 85 bb        	j	0x186ce <_dtoa_r+0x66c>
   18960: 0a 79        	ld	s2, 0xa0(sp)
   18962: e6 7b        	ld	s7, 0x78(sp)
   18964: a6 7c        	ld	s9, 0x68(sp)
   18966: 6f f0 0f fb  	j	0x18116 <_dtoa_r+0xb4>
   1896a: 89 47        	li	a5, 0x2
   1896c: e3 d4 67 cf  	bge	a5, s6, 0x18654 <_dtoa_r+0x5f2>
   18970: e2 87        	mv	a5, s8
   18972: e3 91 0a bc  	bnez	s5, 0x18534 <_dtoa_r+0x4d2>
   18976: ea 85        	mv	a1, s10
   18978: 81 46        	li	a3, 0x0
   1897a: 15 46        	li	a2, 0x5
   1897c: 22 85        	mv	a0, s0
   1897e: 62 ec        	sd	s8, 0x18(sp)
   18980: ef 00 40 48  	jal	0x18e04 <__multadd>
   18984: aa 85        	mv	a1, a0
   18986: 2a 8d        	mv	s10, a0
   18988: 26 85        	mv	a0, s1
   1898a: ef 00 f0 35  	jal	0x194e8 <__mcmp>
   1898e: e2 67        	ld	a5, 0x18(sp)
   18990: e3 52 a0 ba  	blez	a0, 0x18534 <_dtoa_r+0x4d2>
   18994: 13 07 10 03  	li	a4, 0x31
   18998: 23 00 ec 00  	sb	a4, 0x0(s8)
   1899c: 42 67        	ld	a4, 0x10(sp)
   1899e: 93 07 1c 00  	addi	a5, s8, 0x1
   189a2: 1b 0a 17 00  	addiw	s4, a4, 0x1
   189a6: ea 85        	mv	a1, s10
   189a8: 22 85        	mv	a0, s0
   189aa: 3e e4        	sd	a5, 0x8(sp)
   189ac: ef 00 60 44  	jal	0x18df2 <_Bfree>
   189b0: a2 67        	ld	a5, 0x8(sp)
   189b2: 05 2a        	addiw	s4, s4, 0x1
   189b4: e3 9e 09 d2  	bnez	s3, 0x186f0 <_dtoa_r+0x68e>
   189b8: 91 b3        	j	0x186fc <_dtoa_r+0x69a>
   189ba: aa 85        	mv	a1, a0
   189bc: 5e 86        	mv	a2, s7
   189be: 22 85        	mv	a0, s0
   189c0: ef 00 70 12  	jal	0x192e6 <__pow5mult>
   189c4: 85 47        	li	a5, 0x1
   189c6: 2a 8d        	mv	s10, a0
   189c8: 63 d0 67 0d  	bge	a5, s6, 0x18a88 <_dtoa_r+0xa26>
   189cc: 81 4b        	li	s7, 0x0
   189ce: 83 27 4d 01  	lw	a5, 0x14(s10)
   189d2: fd 37        	addiw	a5, a5, -0x1
   189d4: 91 07        	addi	a5, a5, 0x4
   189d6: 8a 07        	slli	a5, a5, 0x2
   189d8: ea 97        	add	a5, a5, s10
   189da: 88 47        	lw	a0, 0x8(a5)
   189dc: ef 00 c0 5f  	jal	0x18fd8 <__hi0bits>
   189e0: 93 07 00 02  	li	a5, 0x20
   189e4: 89 9f        	subw	a5, a5, a0
   189e6: 1d b1        	j	0x1860c <_dtoa_r+0x5aa>
   189e8: 93 17 ca 00  	slli	a5, s4, 0xc
   189ec: c1 ef        	bnez	a5, 0x18a84 <_dtoa_r+0xa22>
   189ee: 93 57 0a 02  	srli	a5, s4, 0x20
   189f2: 13 d7 47 01  	srli	a4, a5, 0x14
   189f6: 13 77 f7 7f  	andi	a4, a4, 0x7ff
   189fa: 49 c7        	beqz	a4, 0x18a84 <_dtoa_r+0xa22>
   189fc: 85 2c        	addiw	s9, s9, 0x1
   189fe: 05 29        	addiw	s2, s2, 0x1
   18a00: 85 4b        	li	s7, 0x1
   18a02: 85 47        	li	a5, 0x1
   18a04: 21 b1        	j	0x1860c <_dtoa_r+0x5aa>
   18a06: e3 08 d7 c2  	beq	a4, a3, 0x18636 <_dtoa_r+0x5d4>
   18a0a: 13 07 c0 03  	li	a4, 0x3c
   18a0e: bb 07 f7 40  	subw	a5, a4, a5
   18a12: 19 b9        	j	0x18628 <_dtoa_r+0x5c6>
   18a14: 85 47        	li	a5, 0x1
   18a16: 15 4b        	li	s6, 0x5
   18a18: 3e ec        	sd	a5, 0x18(sp)
   18a1a: a2 67        	ld	a5, 0x8(sp)
   18a1c: 42 67        	ld	a4, 0x10(sp)
   18a1e: b9 9f        	addw	a5, a5, a4
   18a20: 9b 8a 17 00  	addiw	s5, a5, 0x1
   18a24: 3e fc        	sd	a5, 0x38(sp)
   18a26: 56 86        	mv	a2, s5
   18a28: e3 4c 50 83  	bgtz	s5, 0x18260 <_dtoa_r+0x1fe>
   18a2c: 05 46        	li	a2, 0x1
   18a2e: 6f f0 3f 83  	j	0x18260 <_dtoa_r+0x1fe>
   18a32: 09 e5        	bnez	a0, 0x18a3c <_dtoa_r+0x9da>
   18a34: 93 fb 1b 00  	andi	s7, s7, 0x1
   18a38: e3 9d 0b c6  	bnez	s7, 0x186b2 <_dtoa_r+0x650>
   18a3c: 93 06 00 03  	li	a3, 0x30
   18a40: 03 47 f9 ff  	lbu	a4, -0x1(s2)
   18a44: ca 87        	mv	a5, s2
   18a46: 7d 19        	addi	s2, s2, -0x1
   18a48: e3 0c d7 fe  	beq	a4, a3, 0x18a40 <_dtoa_r+0x9de>
   18a4c: 49 b1        	j	0x186ce <_dtoa_r+0x66c>
   18a4e: 1b 89 fa ff  	addiw	s2, s5, -0x1
   18a52: 02 19        	slli	s2, s2, 0x20
   18a54: 13 59 09 02  	srli	s2, s2, 0x20
   18a58: 05 09        	addi	s2, s2, 0x1
   18a5a: 3d b9        	j	0x18698 <_dtoa_r+0x636>
   18a5c: ca 87        	mv	a5, s2
   18a5e: 95 be        	j	0x185d2 <_dtoa_r+0x570>
   18a60: 22 77        	ld	a4, 0x28(sp)
   18a62: 66 f0        	sd	s9, 0x20(sp)
   18a64: 3b 09 59 01  	addw	s2, s2, s5
   18a68: 3b 8d e7 40  	subw	s10, a5, a4
   18a6c: bb 0b 7d 01  	addw	s7, s10, s7
   18a70: bb 8c 5c 01  	addw	s9, s9, s5
   18a74: 3e f4        	sd	a5, 0x28(sp)
   18a76: 01 4d        	li	s10, 0x0
   18a78: 85 45        	li	a1, 0x1
   18a7a: 22 85        	mv	a0, s0
   18a7c: ef 00 20 65  	jal	0x190ce <__i2b>
   18a80: aa 89        	mv	s3, a0
   18a82: 89 b6        	j	0x185c4 <_dtoa_r+0x562>
   18a84: 85 47        	li	a5, 0x1
   18a86: 59 b6        	j	0x1860c <_dtoa_r+0x5aa>
   18a88: 93 17 ca 00  	slli	a5, s4, 0xc
   18a8c: a1 f3        	bnez	a5, 0x189cc <_dtoa_r+0x96a>
   18a8e: 93 57 0a 02  	srli	a5, s4, 0x20
   18a92: 13 d7 47 01  	srli	a4, a5, 0x14
   18a96: 13 77 f7 7f  	andi	a4, a4, 0x7ff
   18a9a: 0d db        	beqz	a4, 0x189cc <_dtoa_r+0x96a>
   18a9c: 85 2c        	addiw	s9, s9, 0x1
   18a9e: 05 29        	addiw	s2, s2, 0x1
   18aa0: 85 4b        	li	s7, 0x1
   18aa2: 35 b7        	j	0x189ce <_dtoa_r+0x96c>
   18aa4: d3 07 0d f2  	fmv.d.x	fa5, s10
   18aa8: 89 45        	li	a1, 0x2
   18aaa: 6f f0 bf 82  	j	0x182d4 <_dtoa_r+0x272>
   18aae: 09 4b        	li	s6, 0x2
   18ab0: 02 ec        	sd	zero, 0x18(sp)
   18ab2: 6f f0 4f fa  	j	0x18256 <_dtoa_r+0x1f4>
   18ab6: e3 1a 05 e4  	bnez	a0, 0x1890a <_dtoa_r+0x8a8>
   18aba: 93 f7 1b 00  	andi	a5, s7, 0x1
   18abe: e3 9f 07 e2  	bnez	a5, 0x188fc <_dtoa_r+0x89a>
   18ac2: a1 b5        	j	0x1890a <_dtoa_r+0x8a8>
   18ac4: 85 47        	li	a5, 0x1
   18ac6: 85 4a        	li	s5, 0x1
   18ac8: 3e e4        	sd	a5, 0x8(sp)
   18aca: 7d b2        	j	0x18478 <_dtoa_r+0x416>
   18acc: 02 ec        	sd	zero, 0x18(sp)
   18ace: b1 b7        	j	0x18a1a <_dtoa_r+0x9b8>
   18ad0: 02 77        	ld	a4, 0x20(sp)
   18ad2: 63 01 07 18  	beqz	a4, 0x18c54 <_dtoa_r+0xbf2>
   18ad6: 9b 87 37 43  	addiw	a5, a5, 0x433
   18ada: 66 f0        	sd	s9, 0x20(sp)
   18adc: 22 7d        	ld	s10, 0x28(sp)
   18ade: 3b 89 27 01  	addw	s2, a5, s2
   18ae2: bb 8c 97 01  	addw	s9, a5, s9
   18ae6: 49 bf        	j	0x18a78 <_dtoa_r+0xa16>
   18ae8: 13 07 10 03  	li	a4, 0x31
   18aec: 23 00 ec 00  	sb	a4, 0x0(s8)
   18af0: 05 2a        	addiw	s4, s4, 0x1
   18af2: f1 be        	j	0x186ce <_dtoa_r+0x66c>
   18af4: c2 67        	ld	a5, 0x10(sp)
   18af6: 63 80 07 18  	beqz	a5, 0x18c76 <_dtoa_r+0xc14>
   18afa: bb 07 f0 40  	negw	a5, a5
   18afe: 93 f6 f7 00  	andi	a3, a5, 0xf
   18b02: 8e 06        	slli	a3, a3, 0x3
   18b04: 17 87 ff ff  	auipc	a4, 0xffff8
   18b08: 13 07 47 ec  	addi	a4, a4, -0x13c
   18b0c: 36 97        	add	a4, a4, a3
   18b0e: d3 07 0d f2  	fmv.d.x	fa5, s10
   18b12: 14 23        	fld	fa3, 0x0(a4)
   18b14: 9b d7 47 40  	sraiw	a5, a5, 0x4
   18b18: d3 f6 d7 12  	fmul.d	fa3, fa5, fa3
   18b1c: d3 87 d6 22  	fmv.d	fa5, fa3
   18b20: 63 8f 07 20  	beqz	a5, 0x18d3e <_dtoa_r+0xcdc>
   18b24: 17 87 ff ff  	auipc	a4, 0xffff8
   18b28: 13 07 c7 e7  	addi	a4, a4, -0x184
   18b2c: 01 45        	li	a0, 0x0
   18b2e: 89 45        	li	a1, 0x2
   18b30: 93 f6 17 00  	andi	a3, a5, 0x1
   18b34: 91 c6        	beqz	a3, 0x18b40 <_dtoa_r+0xade>
   18b36: 18 23        	fld	fa4, 0x0(a4)
   18b38: 85 25        	addiw	a1, a1, 0x1
   18b3a: 05 45        	li	a0, 0x1
   18b3c: d3 f7 e7 12  	fmul.d	fa5, fa5, fa4
   18b40: 85 87        	srai	a5, a5, 0x1
   18b42: 21 07        	addi	a4, a4, 0x8
   18b44: f5 f7        	bnez	a5, 0x18b30 <_dtoa_r+0xace>
   18b46: 63 18 05 fa  	bnez	a0, 0x182f6 <_dtoa_r+0x294>
   18b4a: d3 87 d6 22  	fmv.d	fa5, fa3
   18b4e: 6f f0 8f fa  	j	0x182f6 <_dtoa_r+0x294>
   18b52: f2 86        	mv	a3, t3
   18b54: d3 f7 f7 02  	fadd.d	fa5, fa5, fa5
   18b58: c2 67        	ld	a5, 0x10(sp)
   18b5a: 1b 8a 17 00  	addiw	s4, a5, 0x1
   18b5e: d2 85        	mv	a1, s4
   18b60: d3 17 f7 a2  	flt.d	a5, fa4, fa5
   18b64: e3 9e 07 86  	bnez	a5, 0x183e0 <_dtoa_r+0x37e>
   18b68: 53 a6 e7 a2  	feq.d	a2, fa5, fa4
   18b6c: b6 87        	mv	a5, a3
   18b6e: e3 07 06 b8  	beqz	a2, 0x186fc <_dtoa_r+0x69a>
   18b72: 05 8b        	andi	a4, a4, 0x1
   18b74: e3 16 07 86  	bnez	a4, 0x183e0 <_dtoa_r+0x37e>
   18b78: 51 b6        	j	0x186fc <_dtoa_r+0x69a>
   18b7a: 83 a5 89 00  	lw	a1, 0x8(s3)
   18b7e: 22 85        	mv	a0, s0
   18b80: ef 00 e0 20  	jal	0x18d8e <_Balloc>
   18b84: 2a 89        	mv	s2, a0
   18b86: 63 01 05 1e  	beqz	a0, 0x18d68 <_dtoa_r+0xd06>
   18b8a: 03 a6 49 01  	lw	a2, 0x14(s3)
   18b8e: 93 85 09 01  	addi	a1, s3, 0x10
   18b92: 41 05        	addi	a0, a0, 0x10
   18b94: 09 06        	addi	a2, a2, 0x2
   18b96: 0a 06        	slli	a2, a2, 0x2
   18b98: ef 30 90 37  	jal	0x1c710 <memcpy>
   18b9c: 05 46        	li	a2, 0x1
   18b9e: ca 85        	mv	a1, s2
   18ba0: 22 85        	mv	a0, s0
   18ba2: ef 00 f0 01  	jal	0x193c0 <__lshift>
   18ba6: aa 8c        	mv	s9, a0
   18ba8: 51 b1        	j	0x1882c <_dtoa_r+0x7ca>
   18baa: ce 85        	mv	a1, s3
   18bac: 6a 86        	mv	a2, s10
   18bae: 22 85        	mv	a0, s0
   18bb0: ef 00 60 73  	jal	0x192e6 <__pow5mult>
   18bb4: 26 86        	mv	a2, s1
   18bb6: aa 85        	mv	a1, a0
   18bb8: aa 89        	mv	s3, a0
   18bba: 22 85        	mv	a0, s0
   18bbc: ef 00 e0 57  	jal	0x1913a <__multiply>
   18bc0: aa 87        	mv	a5, a0
   18bc2: a6 85        	mv	a1, s1
   18bc4: 22 85        	mv	a0, s0
   18bc6: be 84        	mv	s1, a5
   18bc8: ef 00 a0 22  	jal	0x18df2 <_Bfree>
   18bcc: a2 77        	ld	a5, 0x28(sp)
   18bce: bb 87 a7 41  	subw	a5, a5, s10
   18bd2: 3e f4        	sd	a5, 0x28(sp)
   18bd4: e3 82 07 a2  	beqz	a5, 0x185f8 <_dtoa_r+0x596>
   18bd8: 11 bc        	j	0x185ec <_dtoa_r+0x58a>
   18bda: 53 07 07 f2  	fmv.d.x	fa4, a4
   18bde: 23 00 ec 01  	sb	t5, 0x0(s8)
   18be2: 85 46        	li	a3, 0x1
   18be4: d3 f6 e6 12  	fmul.d	fa3, fa3, fa4
   18be8: 63 03 d5 14  	beq	a0, a3, 0x18d2e <_dtoa_r+0xccc>
   18bec: 02 15        	slli	a0, a0, 0x20
   18bee: 01 91        	srli	a0, a0, 0x20
   18bf0: b3 06 ac 00  	add	a3, s8, a0
   18bf4: 17 87 ff ff  	auipc	a4, 0xffff8
   18bf8: 07 36 c7 3e  	fld	fa2, 0x3ec(a4)
   18bfc: d3 f7 c7 12  	fmul.d	fa5, fa5, fa2
   18c00: 85 07        	addi	a5, a5, 0x1
   18c02: 53 97 07 c2  	fcvt.w.d	a4, fa5, rtz
   18c06: 53 07 07 d2  	fcvt.d.w	fa4, a4
   18c0a: 1b 07 07 03  	addiw	a4, a4, 0x30
   18c0e: a3 8f e7 fe  	sb	a4, -0x1(a5)
   18c12: d3 f7 e7 0a  	fsub.d	fa5, fa5, fa4
   18c16: e3 93 f6 fe  	bne	a3, a5, 0x18bfc <_dtoa_r+0xb9a>
   18c1a: 97 87 ff ff  	auipc	a5, 0xffff8
   18c1e: 07 b7 67 3d  	fld	fa4, 0x3d6(a5)
   18c22: 53 f6 e6 02  	fadd.d	fa2, fa3, fa4
   18c26: d3 17 f6 a2  	flt.d	a5, fa2, fa5
   18c2a: 63 9a 07 fa  	bnez	a5, 0x183de <_dtoa_r+0x37c>
   18c2e: 53 77 d7 0a  	fsub.d	fa4, fa4, fa3
   18c32: d3 97 e7 a2  	flt.d	a5, fa5, fa4
   18c36: e1 eb        	bnez	a5, 0x18d06 <_dtoa_r+0xca4>
   18c38: b6 47        	lw	a5, 0x4c(sp)
   18c3a: 6a 8a        	mv	s4, s10
   18c3c: e3 c0 07 98  	bltz	a5, 0x185bc <_dtoa_r+0x55a>
   18c40: 42 67        	ld	a4, 0x10(sp)
   18c42: b9 47        	li	a5, 0xe
   18c44: e3 cc e7 96  	blt	a5, a4, 0x185bc <_dtoa_r+0x55a>
   18c48: c2 67        	ld	a5, 0x10(sp)
   18c4a: 8e 07        	slli	a5, a5, 0x3
   18c4c: be 9e        	add	t4, t4, a5
   18c4e: 07 b7 0e 00  	fld	fa4, 0x0(t4)
   18c52: fd b0        	j	0x18540 <_dtoa_r+0x4de>
   18c54: 26 47        	lw	a4, 0x48(sp)
   18c56: 93 07 60 03  	li	a5, 0x36
   18c5a: 66 f0        	sd	s9, 0x20(sp)
   18c5c: 99 9f        	subw	a5, a5, a4
   18c5e: 22 7d        	ld	s10, 0x28(sp)
   18c60: 3b 89 27 01  	addw	s2, a5, s2
   18c64: bb 8c 97 01  	addw	s9, a5, s9
   18c68: 01 bd        	j	0x18a78 <_dtoa_r+0xa16>
   18c6a: c2 67        	ld	a5, 0x10(sp)
   18c6c: ce 8a        	mv	s5, s3
   18c6e: e6 89        	mv	s3, s9
   18c70: 1b 8a 17 00  	addiw	s4, a5, 0x1
   18c74: 25 b4        	j	0x1869c <_dtoa_r+0x63a>
   18c76: d3 07 0d f2  	fmv.d.x	fa5, s10
   18c7a: 89 45        	li	a1, 0x2
   18c7c: 6f f0 af e7  	j	0x182f6 <_dtoa_r+0x294>
   18c80: e3 8e 0a 80  	beqz	s5, 0x1849c <_dtoa_r+0x43a>
   18c84: 62 75        	ld	a0, 0x38(sp)
   18c86: e3 50 a0 86  	blez	a0, 0x184e6 <_dtoa_r+0x484>
   18c8a: 97 87 ff ff  	auipc	a5, 0xffff8
   18c8e: 07 b6 67 35  	fld	fa2, 0x356(a5)
   18c92: d3 f7 c7 12  	fmul.d	fa5, fa5, fa2
   18c96: 85 25        	addiw	a1, a1, 0x1
   18c98: 53 87 05 d2  	fcvt.d.w	fa4, a1
   18c9c: 97 87 ff ff  	auipc	a5, 0xffff8
   18ca0: 87 b6 47 36  	fld	fa3, 0x364(a5)
   18ca4: c2 67        	ld	a5, 0x10(sp)
   18ca6: 43 f7 e7 6a  	fmadd.d	fa4, fa5, fa4, fa3
   18caa: 9b 85 f7 ff  	addiw	a1, a5, -0x1
   18cae: b7 07 c0 fc  	lui	a5, 0xfcc00
   18cb2: d3 06 07 e2  	fmv.x.d	a3, fa4
   18cb6: 13 d7 06 02  	srli	a4, a3, 0x20
   18cba: b9 9f        	addw	a5, a5, a4
   18cbc: 7d 57        	li	a4, -0x1
   18cbe: 01 93        	srli	a4, a4, 0x20
   18cc0: 82 17        	slli	a5, a5, 0x20
   18cc2: 75 8f        	and	a4, a4, a3
   18cc4: 5d 8f        	or	a4, a4, a5
   18cc6: 6f f0 4f e7  	j	0x1833a <_dtoa_r+0x2d8>
   18cca: 13 07 10 03  	li	a4, 0x31
   18cce: 85 25        	addiw	a1, a1, 0x1
   18cd0: 6f f0 cf f2  	j	0x183fc <_dtoa_r+0x39a>
   18cd4: 93 07 90 03  	li	a5, 0x39
   18cd8: 23 00 f9 00  	sb	a5, 0x0(s2)
   18cdc: c2 67        	ld	a5, 0x10(sp)
   18cde: ce 8a        	mv	s5, s3
   18ce0: 05 09        	addi	s2, s2, 0x1
   18ce2: 1b 8a 17 00  	addiw	s4, a5, 0x1
   18ce6: e6 89        	mv	s3, s9
   18ce8: e9 b2        	j	0x186b2 <_dtoa_r+0x650>
   18cea: 01 4d        	li	s10, 0x0
   18cec: 81 49        	li	s3, 0x0
   18cee: 5d b1        	j	0x18994 <_dtoa_r+0x932>
   18cf0: 93 07 90 03  	li	a5, 0x39
   18cf4: e3 80 fb fe  	beq	s7, a5, 0x18cd4 <_dtoa_r+0xc72>
   18cf8: e3 46 50 c1  	bgtz	s5, 0x18904 <_dtoa_r+0x8a2>
   18cfc: 39 b1        	j	0x1890a <_dtoa_r+0x8a8>
   18cfe: 1b 8a 15 00  	addiw	s4, a1, 0x1
   18d02: b6 87        	mv	a5, a3
   18d04: e5 ba        	j	0x186fc <_dtoa_r+0x69a>
   18d06: 13 06 00 03  	li	a2, 0x30
   18d0a: 03 c7 f6 ff  	lbu	a4, -0x1(a3)
   18d0e: b6 87        	mv	a5, a3
   18d10: fd 16        	addi	a3, a3, -0x1
   18d12: e3 0c c7 fe  	beq	a4, a2, 0x18d0a <_dtoa_r+0xca8>
   18d16: 1b 8a 15 00  	addiw	s4, a1, 0x1
   18d1a: cd b2        	j	0x186fc <_dtoa_r+0x69a>
   18d1c: 89 47        	li	a5, 0x2
   18d1e: 63 c5 67 01  	blt	a5, s6, 0x18d28 <_dtoa_r+0xcc6>
   18d22: 42 6a        	ld	s4, 0x10(sp)
   18d24: e2 7a        	ld	s5, 0x38(sp)
   18d26: 2d ba        	j	0x18660 <_dtoa_r+0x5fe>
   18d28: 56 e8        	sd	s5, 0x10(sp)
   18d2a: e2 7a        	ld	s5, 0x38(sp)
   18d2c: 91 b1        	j	0x18970 <_dtoa_r+0x90e>
   18d2e: be 86        	mv	a3, a5
   18d30: ed b5        	j	0x18c1a <_dtoa_r+0xbb8>
   18d32: 89 47        	li	a5, 0x2
   18d34: e3 ca 67 ff  	blt	a5, s6, 0x18d28 <_dtoa_r+0xcc6>
   18d38: 56 e8        	sd	s5, 0x10(sp)
   18d3a: e2 7a        	ld	s5, 0x38(sp)
   18d3c: e1 bc        	j	0x18814 <_dtoa_r+0x7b2>
   18d3e: 89 45        	li	a1, 0x2
   18d40: 6f f0 6f db  	j	0x182f6 <_dtoa_r+0x294>
   18d44: 97 76 ff ff  	auipc	a3, 0xffff7
   18d48: 93 86 46 5c  	addi	a3, a3, 0x5c4
   18d4c: 01 46        	li	a2, 0x0
   18d4e: 93 05 f0 1a  	li	a1, 0x1af
   18d52: 17 75 ff ff  	auipc	a0, 0xffff7
   18d56: 13 05 e5 75  	addi	a0, a0, 0x75e
   18d5a: ef 00 50 5c  	jal	0x19b1e <__assert_func>
   18d5e: 23 2c 04 04  	sw	zero, 0x58(s0)
   18d62: 81 45        	li	a1, 0x0
   18d64: 6f f0 cf d1  	j	0x18280 <_dtoa_r+0x21e>
   18d68: 97 76 ff ff  	auipc	a3, 0xffff7
   18d6c: 93 86 06 5a  	addi	a3, a3, 0x5a0
   18d70: 01 46        	li	a2, 0x0
   18d72: 93 05 f0 2e  	li	a1, 0x2ef
   18d76: 17 75 ff ff  	auipc	a0, 0xffff7
   18d7a: 13 05 a5 73  	addi	a0, a0, 0x73a
   18d7e: ef 00 10 5a  	jal	0x19b1e <__assert_func>
   18d82: e3 42 f0 b6  	bgtz	a5, 0x188e6 <_dtoa_r+0x884>
   18d86: 51 b6        	j	0x1890a <_dtoa_r+0x8a8>
   18d88: 02 ec        	sd	zero, 0x18(sp)
   18d8a: 6f f0 cf cc  	j	0x18256 <_dtoa_r+0x1f4>

0000000000018d8e <_Balloc>:
   18d8e: 3c 75        	ld	a5, 0x68(a0)
   18d90: 01 11        	addi	sp, sp, -0x20
   18d92: 22 e8        	sd	s0, 0x10(sp)
   18d94: 26 e4        	sd	s1, 0x8(sp)
   18d96: 06 ec        	sd	ra, 0x18(sp)
   18d98: aa 84        	mv	s1, a0
   18d9a: 2e 84        	mv	s0, a1
   18d9c: 99 cf        	beqz	a5, 0x18dba <_Balloc+0x2c>
   18d9e: 13 17 34 00  	slli	a4, s0, 0x3
   18da2: ba 97        	add	a5, a5, a4
   18da4: 88 63        	ld	a0, 0x0(a5)
   18da6: 05 c5        	beqz	a0, 0x18dce <_Balloc+0x40>
   18da8: 18 61        	ld	a4, 0x0(a0)
   18daa: 98 e3        	sd	a4, 0x0(a5)
   18dac: 23 38 05 00  	sd	zero, 0x10(a0)
   18db0: e2 60        	ld	ra, 0x18(sp)
   18db2: 42 64        	ld	s0, 0x10(sp)
   18db4: a2 64        	ld	s1, 0x8(sp)
   18db6: 05 61        	addi	sp, sp, 0x20
   18db8: 82 80        	ret
   18dba: 13 06 10 04  	li	a2, 0x41
   18dbe: a1 45        	li	a1, 0x8
   18dc0: ef 00 30 4b  	jal	0x19a72 <_calloc_r>
   18dc4: a8 f4        	sd	a0, 0x68(s1)
   18dc6: aa 87        	mv	a5, a0
   18dc8: 79 f9        	bnez	a0, 0x18d9e <_Balloc+0x10>
   18dca: 01 45        	li	a0, 0x0
   18dcc: d5 b7        	j	0x18db0 <_Balloc+0x22>
   18dce: 85 47        	li	a5, 0x1
   18dd0: bb 97 87 00  	sllw	a5, a5, s0
   18dd4: 1b 86 07 00  	sext.w	a2, a5
   18dd8: 1d 06        	addi	a2, a2, 0x7
   18dda: 02 14        	slli	s0, s0, 0x20
   18ddc: 82 17        	slli	a5, a5, 0x20
   18dde: 01 90        	srli	s0, s0, 0x20
   18de0: 0a 06        	slli	a2, a2, 0x2
   18de2: 85 45        	li	a1, 0x1
   18de4: 26 85        	mv	a0, s1
   18de6: 5d 8c        	or	s0, s0, a5
   18de8: ef 00 b0 48  	jal	0x19a72 <_calloc_r>
   18dec: 79 dd        	beqz	a0, 0x18dca <_Balloc+0x3c>
   18dee: 00 e5        	sd	s0, 0x8(a0)
   18df0: 75 bf        	j	0x18dac <_Balloc+0x1e>

0000000000018df2 <_Bfree>:
   18df2: 81 c9        	beqz	a1, 0x18e02 <_Bfree+0x10>
   18df4: 98 45        	lw	a4, 0x8(a1)
   18df6: 3c 75        	ld	a5, 0x68(a0)
   18df8: 0e 07        	slli	a4, a4, 0x3
   18dfa: ba 97        	add	a5, a5, a4
   18dfc: 98 63        	ld	a4, 0x0(a5)
   18dfe: 98 e1        	sd	a4, 0x0(a1)
   18e00: 8c e3        	sd	a1, 0x0(a5)
   18e02: 82 80        	ret

0000000000018e04 <__multadd>:
   18e04: 79 71        	addi	sp, sp, -0x30
   18e06: 22 f0        	sd	s0, 0x20(sp)
   18e08: c0 49        	lw	s0, 0x14(a1)
   18e0a: 41 63        	lui	t1, 0x10
   18e0c: 4a e8        	sd	s2, 0x10(sp)
   18e0e: 4e e4        	sd	s3, 0x8(sp)
   18e10: 06 f4        	sd	ra, 0x28(sp)
   18e12: 26 ec        	sd	s1, 0x18(sp)
   18e14: 2e 89        	mv	s2, a1
   18e16: aa 89        	mv	s3, a0
   18e18: 13 88 85 01  	addi	a6, a1, 0x18
   18e1c: 81 48        	li	a7, 0x0
   18e1e: 7d 13        	addi	t1, t1, -0x1
   18e20: 83 27 08 00  	lw	a5, 0x0(a6)
   18e24: 11 08        	addi	a6, a6, 0x4
   18e26: 85 28        	addiw	a7, a7, 0x1
   18e28: 33 f7 67 00  	and	a4, a5, t1
   18e2c: 3b 07 c7 02  	mulw	a4, a4, a2
   18e30: 9b d7 07 01  	srliw	a5, a5, 0x10
   18e34: bb 87 c7 02  	mulw	a5, a5, a2
   18e38: 35 9f        	addw	a4, a4, a3
   18e3a: 9b 56 07 01  	srliw	a3, a4, 0x10
   18e3e: 33 77 e3 00  	and	a4, t1, a4
   18e42: b5 9f        	addw	a5, a5, a3
   18e44: 9b 96 07 01  	slliw	a3, a5, 0x10
   18e48: 35 9f        	addw	a4, a4, a3
   18e4a: 23 2e e8 fe  	sw	a4, -0x4(a6)
   18e4e: 9b d4 07 01  	srliw	s1, a5, 0x10
   18e52: 9b d6 07 01  	srliw	a3, a5, 0x10
   18e56: e3 c5 88 fc  	blt	a7, s0, 0x18e20 <__multadd+0x1c>
   18e5a: 89 ce        	beqz	a3, 0x18e74 <__multadd+0x70>
   18e5c: 83 27 c9 00  	lw	a5, 0xc(s2)
   18e60: 63 52 f4 02  	bge	s0, a5, 0x18e84 <__multadd+0x80>
   18e64: 93 07 44 00  	addi	a5, s0, 0x4
   18e68: 8a 07        	slli	a5, a5, 0x2
   18e6a: ca 97        	add	a5, a5, s2
   18e6c: 84 c7        	sw	s1, 0x8(a5)
   18e6e: 05 24        	addiw	s0, s0, 0x1
   18e70: 23 2a 89 00  	sw	s0, 0x14(s2)
   18e74: a2 70        	ld	ra, 0x28(sp)
   18e76: 02 74        	ld	s0, 0x20(sp)
   18e78: e2 64        	ld	s1, 0x18(sp)
   18e7a: a2 69        	ld	s3, 0x8(sp)
   18e7c: 4a 85        	mv	a0, s2
   18e7e: 42 69        	ld	s2, 0x10(sp)
   18e80: 45 61        	addi	sp, sp, 0x30
   18e82: 82 80        	ret
   18e84: 83 25 89 00  	lw	a1, 0x8(s2)
   18e88: 4e 85        	mv	a0, s3
   18e8a: 52 e0        	sd	s4, 0x0(sp)
   18e8c: 85 25        	addiw	a1, a1, 0x1
   18e8e: ef f0 1f f0  	jal	0x18d8e <_Balloc>
   18e92: 2a 8a        	mv	s4, a0
   18e94: 21 c1        	beqz	a0, 0x18ed4 <__multadd+0xd0>
   18e96: 03 26 49 01  	lw	a2, 0x14(s2)
   18e9a: 93 05 09 01  	addi	a1, s2, 0x10
   18e9e: 41 05        	addi	a0, a0, 0x10
   18ea0: 09 06        	addi	a2, a2, 0x2
   18ea2: 0a 06        	slli	a2, a2, 0x2
   18ea4: ef 30 d0 06  	jal	0x1c710 <memcpy>
   18ea8: 03 27 89 00  	lw	a4, 0x8(s2)
   18eac: 83 b7 89 06  	ld	a5, 0x68(s3)
   18eb0: 0e 07        	slli	a4, a4, 0x3
   18eb2: ba 97        	add	a5, a5, a4
   18eb4: 98 63        	ld	a4, 0x0(a5)
   18eb6: 23 30 e9 00  	sd	a4, 0x0(s2)
   18eba: 23 b0 27 01  	sd	s2, 0x0(a5)
   18ebe: 93 07 44 00  	addi	a5, s0, 0x4
   18ec2: 52 89        	mv	s2, s4
   18ec4: 8a 07        	slli	a5, a5, 0x2
   18ec6: ca 97        	add	a5, a5, s2
   18ec8: 02 6a        	ld	s4, 0x0(sp)
   18eca: 05 24        	addiw	s0, s0, 0x1
   18ecc: 84 c7        	sw	s1, 0x8(a5)
   18ece: 23 2a 89 00  	sw	s0, 0x14(s2)
   18ed2: 4d b7        	j	0x18e74 <__multadd+0x70>
   18ed4: 97 76 ff ff  	auipc	a3, 0xffff7
   18ed8: 93 86 46 43  	addi	a3, a3, 0x434
   18edc: 01 46        	li	a2, 0x0
   18ede: 93 05 a0 0b  	li	a1, 0xba
   18ee2: 17 75 ff ff  	auipc	a0, 0xffff7
   18ee6: 13 05 e5 45  	addi	a0, a0, 0x45e
   18eea: ef 00 50 43  	jal	0x19b1e <__assert_func>

0000000000018eee <__s2b>:
   18eee: 39 71        	addi	sp, sp, -0x40
   18ef0: 22 f8        	sd	s0, 0x30(sp)
   18ef2: 26 f4        	sd	s1, 0x28(sp)
   18ef4: 4a f0        	sd	s2, 0x20(sp)
   18ef6: 4e ec        	sd	s3, 0x18(sp)
   18ef8: 52 e8        	sd	s4, 0x10(sp)
   18efa: b6 84        	mv	s1, a3
   18efc: 2e 84        	mv	s0, a1
   18efe: a1 26        	addiw	a3, a3, 0x8
   18f00: a5 45        	li	a1, 0x9
   18f02: 06 fc        	sd	ra, 0x38(sp)
   18f04: a5 47        	li	a5, 0x9
   18f06: bb c6 b6 02  	divw	a3, a3, a1
   18f0a: 2a 89        	mv	s2, a0
   18f0c: 32 8a        	mv	s4, a2
   18f0e: ba 89        	mv	s3, a4
   18f10: 63 d3 97 0a  	bge	a5, s1, 0x18fb6 <__s2b+0xc8>
   18f14: 85 47        	li	a5, 0x1
   18f16: 81 45        	li	a1, 0x0
   18f18: 9b 97 17 00  	slliw	a5, a5, 0x1
   18f1c: 85 25        	addiw	a1, a1, 0x1
   18f1e: e3 cd d7 fe  	blt	a5, a3, 0x18f18 <__s2b+0x2a>
   18f22: 4a 85        	mv	a0, s2
   18f24: ef f0 bf e6  	jal	0x18d8e <_Balloc>
   18f28: aa 85        	mv	a1, a0
   18f2a: 41 c9        	beqz	a0, 0x18fba <__s2b+0xcc>
   18f2c: 85 47        	li	a5, 0x1
   18f2e: 5c c9        	sw	a5, 0x14(a0)
   18f30: 23 2c 35 01  	sw	s3, 0x18(a0)
   18f34: a5 47        	li	a5, 0x9
   18f36: 63 dd 47 07  	bge	a5, s4, 0x18fb0 <__s2b+0xc2>
   18f3a: 93 17 0a 02  	slli	a5, s4, 0x20
   18f3e: 5a e0        	sd	s6, 0x0(sp)
   18f40: 81 93        	srli	a5, a5, 0x20
   18f42: 13 0b 94 00  	addi	s6, s0, 0x9
   18f46: 56 e4        	sd	s5, 0x8(sp)
   18f48: 3e 94        	add	s0, s0, a5
   18f4a: 9b 0a 0a 00  	sext.w	s5, s4
   18f4e: da 89        	mv	s3, s6
   18f50: 83 c6 09 00  	lbu	a3, 0x0(s3)
   18f54: 29 46        	li	a2, 0xa
   18f56: 4a 85        	mv	a0, s2
   18f58: 9b 86 06 fd  	addiw	a3, a3, -0x30
   18f5c: ef f0 9f ea  	jal	0x18e04 <__multadd>
   18f60: 85 09        	addi	s3, s3, 0x1
   18f62: aa 85        	mv	a1, a0
   18f64: e3 96 89 fe  	bne	s3, s0, 0x18f50 <__s2b+0x62>
   18f68: e1 3a        	addiw	s5, s5, -0x8
   18f6a: 82 1a        	slli	s5, s5, 0x20
   18f6c: 93 da 0a 02  	srli	s5, s5, 0x20
   18f70: 33 04 5b 01  	add	s0, s6, s5
   18f74: a2 6a        	ld	s5, 0x8(sp)
   18f76: 02 6b        	ld	s6, 0x0(sp)
   18f78: 63 53 9a 02  	bge	s4, s1, 0x18f9e <__s2b+0xb0>
   18f7c: bb 84 44 41  	subw	s1, s1, s4
   18f80: 82 14        	slli	s1, s1, 0x20
   18f82: 81 90        	srli	s1, s1, 0x20
   18f84: a2 94        	add	s1, s1, s0
   18f86: 83 46 04 00  	lbu	a3, 0x0(s0)
   18f8a: 29 46        	li	a2, 0xa
   18f8c: 4a 85        	mv	a0, s2
   18f8e: 9b 86 06 fd  	addiw	a3, a3, -0x30
   18f92: ef f0 3f e7  	jal	0x18e04 <__multadd>
   18f96: 05 04        	addi	s0, s0, 0x1
   18f98: aa 85        	mv	a1, a0
   18f9a: e3 16 94 fe  	bne	s0, s1, 0x18f86 <__s2b+0x98>
   18f9e: e2 70        	ld	ra, 0x38(sp)
   18fa0: 42 74        	ld	s0, 0x30(sp)
   18fa2: a2 74        	ld	s1, 0x28(sp)
   18fa4: 02 79        	ld	s2, 0x20(sp)
   18fa6: e2 69        	ld	s3, 0x18(sp)
   18fa8: 42 6a        	ld	s4, 0x10(sp)
   18faa: 2e 85        	mv	a0, a1
   18fac: 21 61        	addi	sp, sp, 0x40
   18fae: 82 80        	ret
   18fb0: 29 04        	addi	s0, s0, 0xa
   18fb2: 25 4a        	li	s4, 0x9
   18fb4: d1 b7        	j	0x18f78 <__s2b+0x8a>
   18fb6: 81 45        	li	a1, 0x0
   18fb8: ad b7        	j	0x18f22 <__s2b+0x34>
   18fba: 97 76 ff ff  	auipc	a3, 0xffff7
   18fbe: 93 86 e6 34  	addi	a3, a3, 0x34e
   18fc2: 01 46        	li	a2, 0x0
   18fc4: 93 05 30 0d  	li	a1, 0xd3
   18fc8: 17 75 ff ff  	auipc	a0, 0xffff7
   18fcc: 13 05 85 37  	addi	a0, a0, 0x378
   18fd0: 56 e4        	sd	s5, 0x8(sp)
   18fd2: 5a e0        	sd	s6, 0x0(sp)
   18fd4: ef 00 b0 34  	jal	0x19b1e <__assert_func>

0000000000018fd8 <__hi0bits>:
   18fd8: aa 87        	mv	a5, a0
   18fda: 41 67        	lui	a4, 0x10
   18fdc: 01 45        	li	a0, 0x0
   18fde: 63 f5 e7 00  	bgeu	a5, a4, 0x18fe8 <__hi0bits+0x10>
   18fe2: 9b 97 07 01  	slliw	a5, a5, 0x10
   18fe6: 41 45        	li	a0, 0x10
   18fe8: 37 07 00 01  	lui	a4, 0x1000
   18fec: 63 f5 e7 00  	bgeu	a5, a4, 0x18ff6 <__hi0bits+0x1e>
   18ff0: 9b 97 87 00  	slliw	a5, a5, 0x8
   18ff4: 21 25        	addiw	a0, a0, 0x8
   18ff6: 37 07 00 10  	lui	a4, 0x10000
   18ffa: 63 f5 e7 00  	bgeu	a5, a4, 0x19004 <__hi0bits+0x2c>
   18ffe: 9b 97 47 00  	slliw	a5, a5, 0x4
   19002: 11 25        	addiw	a0, a0, 0x4
   19004: 37 07 00 40  	lui	a4, 0x40000
   19008: 63 e6 e7 00  	bltu	a5, a4, 0x19014 <__hi0bits+0x3c>
   1900c: 63 c0 07 02  	bltz	a5, 0x1902c <__hi0bits+0x54>
   19010: 05 25        	addiw	a0, a0, 0x1
   19012: 82 80        	ret
   19014: 93 96 27 02  	slli	a3, a5, 0x22
   19018: 1b 97 27 00  	slliw	a4, a5, 0x2
   1901c: 63 c9 06 00  	bltz	a3, 0x1902e <__hi0bits+0x56>
   19020: 93 17 17 02  	slli	a5, a4, 0x21
   19024: 63 c7 07 00  	bltz	a5, 0x19032 <__hi0bits+0x5a>
   19028: 13 05 00 02  	li	a0, 0x20
   1902c: 82 80        	ret
   1902e: 09 25        	addiw	a0, a0, 0x2
   19030: 82 80        	ret
   19032: 0d 25        	addiw	a0, a0, 0x3
   19034: 82 80        	ret

0000000000019036 <__lo0bits>:
   19036: 1c 41        	lw	a5, 0x0(a0)
   19038: 2a 87        	mv	a4, a0
   1903a: 93 f6 77 00  	andi	a3, a5, 0x7
   1903e: 3e 86        	mv	a2, a5
   19040: 81 ce        	beqz	a3, 0x19058 <__lo0bits+0x22>
   19042: 93 f6 17 00  	andi	a3, a5, 0x1
   19046: 01 45        	li	a0, 0x0
   19048: 9d ee        	bnez	a3, 0x19086 <__lo0bits+0x50>
   1904a: 09 8a        	andi	a2, a2, 0x2
   1904c: 25 ce        	beqz	a2, 0x190c4 <__lo0bits+0x8e>
   1904e: 9b d7 17 00  	srliw	a5, a5, 0x1
   19052: 1c c3        	sw	a5, 0x0(a4)
   19054: 05 45        	li	a0, 0x1
   19056: 82 80        	ret
   19058: 93 96 07 03  	slli	a3, a5, 0x30
   1905c: c1 92        	srli	a3, a3, 0x30
   1905e: 01 45        	li	a0, 0x0
   19060: b9 ca        	beqz	a3, 0x190b6 <__lo0bits+0x80>
   19062: 93 f6 f7 0f  	andi	a3, a5, 0xff
   19066: a9 c2        	beqz	a3, 0x190a8 <__lo0bits+0x72>
   19068: 93 f6 f7 00  	andi	a3, a5, 0xf
   1906c: 9d c6        	beqz	a3, 0x1909a <__lo0bits+0x64>
   1906e: 93 f6 37 00  	andi	a3, a5, 0x3
   19072: 89 ce        	beqz	a3, 0x1908c <__lo0bits+0x56>
   19074: 93 f6 17 00  	andi	a3, a5, 0x1
   19078: 81 ea        	bnez	a3, 0x19088 <__lo0bits+0x52>
   1907a: 9b d7 17 00  	srliw	a5, a5, 0x1
   1907e: 05 25        	addiw	a0, a0, 0x1
   19080: 81 e7        	bnez	a5, 0x19088 <__lo0bits+0x52>
   19082: 13 05 00 02  	li	a0, 0x20
   19086: 82 80        	ret
   19088: 1c c3        	sw	a5, 0x0(a4)
   1908a: 82 80        	ret
   1908c: 9b d7 27 00  	srliw	a5, a5, 0x2
   19090: 93 f6 17 00  	andi	a3, a5, 0x1
   19094: 09 25        	addiw	a0, a0, 0x2
   19096: ed fa        	bnez	a3, 0x19088 <__lo0bits+0x52>
   19098: cd b7        	j	0x1907a <__lo0bits+0x44>
   1909a: 9b d7 47 00  	srliw	a5, a5, 0x4
   1909e: 93 f6 37 00  	andi	a3, a5, 0x3
   190a2: 11 25        	addiw	a0, a0, 0x4
   190a4: e1 fa        	bnez	a3, 0x19074 <__lo0bits+0x3e>
   190a6: dd b7        	j	0x1908c <__lo0bits+0x56>
   190a8: 9b d7 87 00  	srliw	a5, a5, 0x8
   190ac: 93 f6 f7 00  	andi	a3, a5, 0xf
   190b0: 21 25        	addiw	a0, a0, 0x8
   190b2: d5 fe        	bnez	a3, 0x1906e <__lo0bits+0x38>
   190b4: dd b7        	j	0x1909a <__lo0bits+0x64>
   190b6: 9b d7 07 01  	srliw	a5, a5, 0x10
   190ba: 93 f6 f7 0f  	andi	a3, a5, 0xff
   190be: 41 45        	li	a0, 0x10
   190c0: c5 f6        	bnez	a3, 0x19068 <__lo0bits+0x32>
   190c2: dd b7        	j	0x190a8 <__lo0bits+0x72>
   190c4: 9b d7 27 00  	srliw	a5, a5, 0x2
   190c8: 1c c3        	sw	a5, 0x0(a4)
   190ca: 09 45        	li	a0, 0x2
   190cc: 82 80        	ret

00000000000190ce <__i2b>:
   190ce: 3c 75        	ld	a5, 0x68(a0)
   190d0: 01 11        	addi	sp, sp, -0x20
   190d2: 22 e8        	sd	s0, 0x10(sp)
   190d4: 26 e4        	sd	s1, 0x8(sp)
   190d6: 06 ec        	sd	ra, 0x18(sp)
   190d8: 2a 84        	mv	s0, a0
   190da: ae 84        	mv	s1, a1
   190dc: 91 cf        	beqz	a5, 0x190f8 <__i2b+0x2a>
   190de: 88 67        	ld	a0, 0x8(a5)
   190e0: 29 c1        	beqz	a0, 0x19122 <__i2b+0x54>
   190e2: 18 61        	ld	a4, 0x0(a0)
   190e4: 98 e7        	sd	a4, 0x8(a5)
   190e6: e2 60        	ld	ra, 0x18(sp)
   190e8: 42 64        	ld	s0, 0x10(sp)
   190ea: 85 47        	li	a5, 0x1
   190ec: 82 17        	slli	a5, a5, 0x20
   190ee: 04 cd        	sw	s1, 0x18(a0)
   190f0: 1c e9        	sd	a5, 0x10(a0)
   190f2: a2 64        	ld	s1, 0x8(sp)
   190f4: 05 61        	addi	sp, sp, 0x20
   190f6: 82 80        	ret
   190f8: 13 06 10 04  	li	a2, 0x41
   190fc: a1 45        	li	a1, 0x8
   190fe: ef 00 50 17  	jal	0x19a72 <_calloc_r>
   19102: 28 f4        	sd	a0, 0x68(s0)
   19104: aa 87        	mv	a5, a0
   19106: 61 fd        	bnez	a0, 0x190de <__i2b+0x10>
   19108: 97 76 ff ff  	auipc	a3, 0xffff7
   1910c: 93 86 06 20  	addi	a3, a3, 0x200
   19110: 01 46        	li	a2, 0x0
   19112: 93 05 50 14  	li	a1, 0x145
   19116: 17 75 ff ff  	auipc	a0, 0xffff7
   1911a: 13 05 a5 22  	addi	a0, a0, 0x22a
   1911e: ef 00 10 20  	jal	0x19b1e <__assert_func>
   19122: 13 06 40 02  	li	a2, 0x24
   19126: 85 45        	li	a1, 0x1
   19128: 22 85        	mv	a0, s0
   1912a: ef 00 90 14  	jal	0x19a72 <_calloc_r>
   1912e: 69 dd        	beqz	a0, 0x19108 <__i2b+0x3a>
   19130: 85 47        	li	a5, 0x1
   19132: 86 17        	slli	a5, a5, 0x21
   19134: 85 07        	addi	a5, a5, 0x1
   19136: 1c e5        	sd	a5, 0x8(a0)
   19138: 7d b7        	j	0x190e6 <__i2b+0x18>

000000000001913a <__multiply>:
   1913a: 79 71        	addi	sp, sp, -0x30
   1913c: 4a e8        	sd	s2, 0x10(sp)
   1913e: 4e e4        	sd	s3, 0x8(sp)
   19140: 03 29 46 01  	lw	s2, 0x14(a2)
   19144: 83 a9 45 01  	lw	s3, 0x14(a1)
   19148: 26 ec        	sd	s1, 0x18(sp)
   1914a: 52 e0        	sd	s4, 0x0(sp)
   1914c: 06 f4        	sd	ra, 0x28(sp)
   1914e: 22 f0        	sd	s0, 0x20(sp)
   19150: 2e 8a        	mv	s4, a1
   19152: b2 84        	mv	s1, a2
   19154: 63 c7 29 01  	blt	s3, s2, 0x19162 <__multiply+0x28>
   19158: ca 87        	mv	a5, s2
   1915a: ae 84        	mv	s1, a1
   1915c: 4e 89        	mv	s2, s3
   1915e: 32 8a        	mv	s4, a2
   19160: be 89        	mv	s3, a5
   19162: dc 44        	lw	a5, 0xc(s1)
   19164: 3b 04 39 01  	addw	s0, s2, s3
   19168: 8c 44        	lw	a1, 0x8(s1)
   1916a: 63 d3 87 00  	bge	a5, s0, 0x19170 <__multiply+0x36>
   1916e: 85 25        	addiw	a1, a1, 0x1
   19170: ef f0 ff c1  	jal	0x18d8e <_Balloc>
   19174: 63 0c 05 14  	beqz	a0, 0x192cc <__multiply+0x192>
   19178: 13 03 85 01  	addi	t1, a0, 0x18
   1917c: 93 18 24 00  	slli	a7, s0, 0x2
   19180: 9a 98        	add	a7, a7, t1
   19182: 9a 87        	mv	a5, t1
   19184: 63 77 13 01  	bgeu	t1, a7, 0x19192 <__multiply+0x58>
   19188: 23 a0 07 00  	sw	zero, 0x0(a5)
   1918c: 91 07        	addi	a5, a5, 0x4
   1918e: e3 ed 17 ff  	bltu	a5, a7, 0x19188 <__multiply+0x4e>
   19192: 13 08 8a 01  	addi	a6, s4, 0x18
   19196: 13 9e 29 00  	slli	t3, s3, 0x2
   1919a: 93 8e 84 01  	addi	t4, s1, 0x18
   1919e: 93 15 29 00  	slli	a1, s2, 0x2
   191a2: 42 9e        	add	t3, t3, a6
   191a4: f6 95        	add	a1, a1, t4
   191a6: 63 7a c8 0f  	bgeu	a6, t3, 0x1929a <__multiply+0x160>
   191aa: 93 87 94 01  	addi	a5, s1, 0x19
   191ae: 11 4f        	li	t5, 0x4
   191b0: 63 f7 f5 10  	bgeu	a1, a5, 0x192be <__multiply+0x184>
   191b4: c1 66        	lui	a3, 0x10
   191b6: fd 16        	addi	a3, a3, -0x1
   191b8: 09 a8        	j	0x191ca <__multiply+0x90>
   191ba: 9b df 0f 01  	srliw	t6, t6, 0x10
   191be: 63 9d 0f 06  	bnez	t6, 0x19238 <__multiply+0xfe>
   191c2: 11 08        	addi	a6, a6, 0x4
   191c4: 11 03        	addi	t1, t1, 0x4
   191c6: 63 7a c8 0d  	bgeu	a6, t3, 0x1929a <__multiply+0x160>
   191ca: 83 2f 08 00  	lw	t6, 0x0(a6)
   191ce: b3 f3 df 00  	and	t2, t6, a3
   191d2: e3 84 03 fe  	beqz	t2, 0x191ba <__multiply+0x80>
   191d6: 9a 82        	mv	t0, t1
   191d8: f6 8f        	mv	t6, t4
   191da: 81 44        	li	s1, 0x0
   191dc: 83 a7 0f 00  	lw	a5, 0x0(t6)
   191e0: 03 a6 02 00  	lw	a2, 0x0(t0)
   191e4: 91 02        	addi	t0, t0, 0x4
   191e6: 33 f7 d7 00  	and	a4, a5, a3
   191ea: 3b 07 77 02  	mulw	a4, a4, t2
   191ee: 9b d7 07 01  	srliw	a5, a5, 0x10
   191f2: 33 79 d6 00  	and	s2, a2, a3
   191f6: 1b 56 06 01  	srliw	a2, a2, 0x10
   191fa: 91 0f        	addi	t6, t6, 0x4
   191fc: bb 87 77 02  	mulw	a5, a5, t2
   19200: 3b 07 27 01  	addw	a4, a4, s2
   19204: 25 9f        	addw	a4, a4, s1
   19206: 9b 54 07 01  	srliw	s1, a4, 0x10
   1920a: 75 8f        	and	a4, a4, a3
   1920c: b1 9f        	addw	a5, a5, a2
   1920e: a5 9f        	addw	a5, a5, s1
   19210: 1b 96 07 01  	slliw	a2, a5, 0x10
   19214: 51 8f        	or	a4, a4, a2
   19216: 23 ae e2 fe  	sw	a4, -0x4(t0)
   1921a: 9b d4 07 01  	srliw	s1, a5, 0x10
   1921e: 1b d7 07 01  	srliw	a4, a5, 0x10
   19222: e3 ed bf fa  	bltu	t6, a1, 0x191dc <__multiply+0xa2>
   19226: b3 07 e3 01  	add	a5, t1, t5
   1922a: 98 c3        	sw	a4, 0x0(a5)
   1922c: 83 2f 08 00  	lw	t6, 0x0(a6)
   19230: 9b df 0f 01  	srliw	t6, t6, 0x10
   19234: e3 87 0f f8  	beqz	t6, 0x191c2 <__multiply+0x88>
   19238: 03 27 03 00  	lw	a4, 0x0(t1)
   1923c: 9a 82        	mv	t0, t1
   1923e: 76 86        	mv	a2, t4
   19240: ba 83        	mv	t2, a4
   19242: 81 44        	li	s1, 0x0
   19244: 1c 42        	lw	a5, 0x0(a2)
   19246: 9b d9 03 01  	srliw	s3, t2, 0x10
   1924a: 75 8f        	and	a4, a4, a3
   1924c: f5 8f        	and	a5, a5, a3
   1924e: bb 87 f7 03  	mulw	a5, a5, t6
   19252: 83 a3 42 00  	lw	t2, 0x4(t0)
   19256: 91 02        	addi	t0, t0, 0x4
   19258: 11 06        	addi	a2, a2, 0x4
   1925a: 33 f9 d3 00  	and	s2, t2, a3
   1925e: a5 9f        	addw	a5, a5, s1
   19260: bb 87 37 01  	addw	a5, a5, s3
   19264: 9b 94 07 01  	slliw	s1, a5, 0x10
   19268: 45 8f        	or	a4, a4, s1
   1926a: 23 ae e2 fe  	sw	a4, -0x4(t0)
   1926e: 03 57 e6 ff  	lhu	a4, -0x2(a2)
   19272: 9b d7 07 01  	srliw	a5, a5, 0x10
   19276: 3b 07 f7 03  	mulw	a4, a4, t6
   1927a: 3b 07 27 01  	addw	a4, a4, s2
   1927e: b9 9f        	addw	a5, a5, a4
   19280: 1b 87 07 00  	sext.w	a4, a5
   19284: 9b d4 07 01  	srliw	s1, a5, 0x10
   19288: e3 6e b6 fa  	bltu	a2, a1, 0x19244 <__multiply+0x10a>
   1928c: 33 07 e3 01  	add	a4, t1, t5
   19290: 1c c3        	sw	a5, 0x0(a4)
   19292: 11 08        	addi	a6, a6, 0x4
   19294: 11 03        	addi	t1, t1, 0x4
   19296: e3 6a c8 f3  	bltu	a6, t3, 0x191ca <__multiply+0x90>
   1929a: 63 45 80 00  	bgtz	s0, 0x192a4 <__multiply+0x16a>
   1929e: 39 a0        	j	0x192ac <__multiply+0x172>
   192a0: 7d 34        	addiw	s0, s0, -0x1
   192a2: 09 c4        	beqz	s0, 0x192ac <__multiply+0x172>
   192a4: 83 a7 c8 ff  	lw	a5, -0x4(a7)
   192a8: f1 18        	addi	a7, a7, -0x4
   192aa: fd db        	beqz	a5, 0x192a0 <__multiply+0x166>
   192ac: a2 70        	ld	ra, 0x28(sp)
   192ae: 40 c9        	sw	s0, 0x14(a0)
   192b0: 02 74        	ld	s0, 0x20(sp)
   192b2: e2 64        	ld	s1, 0x18(sp)
   192b4: 42 69        	ld	s2, 0x10(sp)
   192b6: a2 69        	ld	s3, 0x8(sp)
   192b8: 02 6a        	ld	s4, 0x0(sp)
   192ba: 45 61        	addi	sp, sp, 0x30
   192bc: 82 80        	ret
   192be: b3 87 95 40  	sub	a5, a1, s1
   192c2: 9d 17        	addi	a5, a5, -0x19
   192c4: f1 9b        	andi	a5, a5, -0x4
   192c6: 13 8f 47 00  	addi	t5, a5, 0x4
   192ca: ed b5        	j	0x191b4 <__multiply+0x7a>
   192cc: 97 76 ff ff  	auipc	a3, 0xffff7
   192d0: 93 86 c6 03  	addi	a3, a3, 0x3c
   192d4: 01 46        	li	a2, 0x0
   192d6: 93 05 20 16  	li	a1, 0x162
   192da: 17 75 ff ff  	auipc	a0, 0xffff7
   192de: 13 05 65 06  	addi	a0, a0, 0x66
   192e2: ef 00 d0 03  	jal	0x19b1e <__assert_func>

00000000000192e6 <__pow5mult>:
   192e6: 79 71        	addi	sp, sp, -0x30
   192e8: 22 f0        	sd	s0, 0x20(sp)
   192ea: 4a e8        	sd	s2, 0x10(sp)
   192ec: 4e e4        	sd	s3, 0x8(sp)
   192ee: 06 f4        	sd	ra, 0x28(sp)
   192f0: 93 77 36 00  	andi	a5, a2, 0x3
   192f4: 32 84        	mv	s0, a2
   192f6: aa 89        	mv	s3, a0
   192f8: 2e 89        	mv	s2, a1
   192fa: ad eb        	bnez	a5, 0x1936c <__pow5mult+0x86>
   192fc: 09 84        	srai	s0, s0, 0x2
   192fe: 31 c4        	beqz	s0, 0x1934a <__pow5mult+0x64>
   19300: 26 ec        	sd	s1, 0x18(sp)
   19302: 83 b4 09 06  	ld	s1, 0x60(s3)
   19306: c1 c0        	beqz	s1, 0x19386 <__pow5mult+0xa0>
   19308: 93 77 14 00  	andi	a5, s0, 0x1
   1930c: 89 eb        	bnez	a5, 0x1931e <__pow5mult+0x38>
   1930e: 05 84        	srai	s0, s0, 0x1
   19310: 05 cc        	beqz	s0, 0x19348 <__pow5mult+0x62>
   19312: 88 60        	ld	a0, 0x0(s1)
   19314: 31 c1        	beqz	a0, 0x19358 <__pow5mult+0x72>
   19316: aa 84        	mv	s1, a0
   19318: 93 77 14 00  	andi	a5, s0, 0x1
   1931c: ed db        	beqz	a5, 0x1930e <__pow5mult+0x28>
   1931e: 26 86        	mv	a2, s1
   19320: ca 85        	mv	a1, s2
   19322: 4e 85        	mv	a0, s3
   19324: ef f0 7f e1  	jal	0x1913a <__multiply>
   19328: 63 0d 09 00  	beqz	s2, 0x19342 <__pow5mult+0x5c>
   1932c: 03 27 89 00  	lw	a4, 0x8(s2)
   19330: 83 b7 89 06  	ld	a5, 0x68(s3)
   19334: 0e 07        	slli	a4, a4, 0x3
   19336: ba 97        	add	a5, a5, a4
   19338: 98 63        	ld	a4, 0x0(a5)
   1933a: 23 30 e9 00  	sd	a4, 0x0(s2)
   1933e: 23 b0 27 01  	sd	s2, 0x0(a5)
   19342: 05 84        	srai	s0, s0, 0x1
   19344: 2a 89        	mv	s2, a0
   19346: 71 f4        	bnez	s0, 0x19312 <__pow5mult+0x2c>
   19348: e2 64        	ld	s1, 0x18(sp)
   1934a: a2 70        	ld	ra, 0x28(sp)
   1934c: 02 74        	ld	s0, 0x20(sp)
   1934e: a2 69        	ld	s3, 0x8(sp)
   19350: 4a 85        	mv	a0, s2
   19352: 42 69        	ld	s2, 0x10(sp)
   19354: 45 61        	addi	sp, sp, 0x30
   19356: 82 80        	ret
   19358: 26 86        	mv	a2, s1
   1935a: a6 85        	mv	a1, s1
   1935c: 4e 85        	mv	a0, s3
   1935e: ef f0 df dd  	jal	0x1913a <__multiply>
   19362: 88 e0        	sd	a0, 0x0(s1)
   19364: 23 30 05 00  	sd	zero, 0x0(a0)
   19368: aa 84        	mv	s1, a0
   1936a: 7d b7        	j	0x19318 <__pow5mult+0x32>
   1936c: fd 37        	addiw	a5, a5, -0x1
   1936e: 17 77 ff ff  	auipc	a4, 0xffff7
   19372: 13 07 a7 5f  	addi	a4, a4, 0x5fa
   19376: 8a 07        	slli	a5, a5, 0x2
   19378: ba 97        	add	a5, a5, a4
   1937a: 90 43        	lw	a2, 0x0(a5)
   1937c: 81 46        	li	a3, 0x0
   1937e: ef f0 7f a8  	jal	0x18e04 <__multadd>
   19382: 2a 89        	mv	s2, a0
   19384: a5 bf        	j	0x192fc <__pow5mult+0x16>
   19386: 85 45        	li	a1, 0x1
   19388: 4e 85        	mv	a0, s3
   1938a: ef f0 5f a0  	jal	0x18d8e <_Balloc>
   1938e: aa 84        	mv	s1, a0
   19390: 19 c9        	beqz	a0, 0x193a6 <__pow5mult+0xc0>
   19392: 93 07 10 27  	li	a5, 0x271
   19396: 1c cd        	sw	a5, 0x18(a0)
   19398: 85 47        	li	a5, 0x1
   1939a: 5c c9        	sw	a5, 0x14(a0)
   1939c: 23 b0 a9 06  	sd	a0, 0x60(s3)
   193a0: 23 30 05 00  	sd	zero, 0x0(a0)
   193a4: 95 b7        	j	0x19308 <__pow5mult+0x22>
   193a6: 97 76 ff ff  	auipc	a3, 0xffff7
   193aa: 93 86 26 f6  	addi	a3, a3, -0x9e
   193ae: 01 46        	li	a2, 0x0
   193b0: 93 05 50 14  	li	a1, 0x145
   193b4: 17 75 ff ff  	auipc	a0, 0xffff7
   193b8: 13 05 c5 f8  	addi	a0, a0, -0x74
   193bc: ef 00 20 76  	jal	0x19b1e <__assert_func>

00000000000193c0 <__lshift>:
   193c0: 39 71        	addi	sp, sp, -0x40
   193c2: 22 f8        	sd	s0, 0x30(sp)
   193c4: c0 49        	lw	s0, 0x14(a1)
   193c6: dc 45        	lw	a5, 0xc(a1)
   193c8: 56 e4        	sd	s5, 0x8(sp)
   193ca: 9b 5a 56 40  	sraiw	s5, a2, 0x5
   193ce: 3b 84 8a 00  	addw	s0, s5, s0
   193d2: 26 f4        	sd	s1, 0x28(sp)
   193d4: 4a f0        	sd	s2, 0x20(sp)
   193d6: 4e ec        	sd	s3, 0x18(sp)
   193d8: 52 e8        	sd	s4, 0x10(sp)
   193da: 5a e0        	sd	s6, 0x0(sp)
   193dc: 06 fc        	sd	ra, 0x38(sp)
   193de: 1b 09 14 00  	addiw	s2, s0, 0x1
   193e2: ae 84        	mv	s1, a1
   193e4: 32 8a        	mv	s4, a2
   193e6: 8c 45        	lw	a1, 0x8(a1)
   193e8: aa 89        	mv	s3, a0
   193ea: 13 5b 56 40  	srai	s6, a2, 0x5
   193ee: 63 d7 27 01  	bge	a5, s2, 0x193fc <__lshift+0x3c>
   193f2: 9b 97 17 00  	slliw	a5, a5, 0x1
   193f6: 85 25        	addiw	a1, a1, 0x1
   193f8: e3 cd 27 ff  	blt	a5, s2, 0x193f2 <__lshift+0x32>
   193fc: 4e 85        	mv	a0, s3
   193fe: ef f0 1f 99  	jal	0x18d8e <_Balloc>
   19402: 71 c5        	beqz	a0, 0x194ce <__lshift+0x10e>
   19404: 13 07 85 01  	addi	a4, a0, 0x18
   19408: 63 51 60 03  	blez	s6, 0x1942a <__lshift+0x6a>
   1940c: 9b 86 6a 00  	addiw	a3, s5, 0x6
   19410: 8a 06        	slli	a3, a3, 0x2
   19412: aa 96        	add	a3, a3, a0
   19414: ba 87        	mv	a5, a4
   19416: 91 07        	addi	a5, a5, 0x4
   19418: 23 ae 07 fe  	sw	zero, -0x4(a5)
   1941c: e3 9d d7 fe  	bne	a5, a3, 0x19416 <__lshift+0x56>
   19420: 93 97 0a 02  	slli	a5, s5, 0x20
   19424: 93 da e7 01  	srli	s5, a5, 0x1e
   19428: 56 97        	add	a4, a4, s5
   1942a: 83 a8 44 01  	lw	a7, 0x14(s1)
   1942e: 93 87 84 01  	addi	a5, s1, 0x18
   19432: 13 76 fa 01  	andi	a2, s4, 0x1f
   19436: 8a 08        	slli	a7, a7, 0x2
   19438: be 98        	add	a7, a7, a5
   1943a: 3d ca        	beqz	a2, 0x194b0 <__lshift+0xf0>
   1943c: 93 05 00 02  	li	a1, 0x20
   19440: 91 9d        	subw	a1, a1, a2
   19442: 3a 83        	mv	t1, a4
   19444: 81 46        	li	a3, 0x0
   19446: 03 a8 07 00  	lw	a6, 0x0(a5)
   1944a: 11 03        	addi	t1, t1, 0x4
   1944c: 91 07        	addi	a5, a5, 0x4
   1944e: 3b 18 c8 00  	sllw	a6, a6, a2
   19452: b3 e6 06 01  	or	a3, a3, a6
   19456: 23 2e d3 fe  	sw	a3, -0x4(t1)
   1945a: 03 a8 c7 ff  	lw	a6, -0x4(a5)
   1945e: bb 56 b8 00  	srlw	a3, a6, a1
   19462: 36 88        	mv	a6, a3
   19464: e3 e1 17 ff  	bltu	a5, a7, 0x19446 <__lshift+0x86>
   19468: 93 87 94 01  	addi	a5, s1, 0x19
   1946c: 11 46        	li	a2, 0x4
   1946e: 63 e8 f8 00  	bltu	a7, a5, 0x1947e <__lshift+0xbe>
   19472: b3 87 98 40  	sub	a5, a7, s1
   19476: 9d 17        	addi	a5, a5, -0x19
   19478: f1 9b        	andi	a5, a5, -0x4
   1947a: 13 86 47 00  	addi	a2, a5, 0x4
   1947e: 32 97        	add	a4, a4, a2
   19480: 23 20 07 01  	sw	a6, 0x0(a4)
   19484: 91 e2        	bnez	a3, 0x19488 <__lshift+0xc8>
   19486: 22 89        	mv	s2, s0
   19488: 98 44        	lw	a4, 0x8(s1)
   1948a: 83 b7 89 06  	ld	a5, 0x68(s3)
   1948e: e2 70        	ld	ra, 0x38(sp)
   19490: 0e 07        	slli	a4, a4, 0x3
   19492: ba 97        	add	a5, a5, a4
   19494: 98 63        	ld	a4, 0x0(a5)
   19496: 23 2a 25 01  	sw	s2, 0x14(a0)
   1949a: 42 74        	ld	s0, 0x30(sp)
   1949c: 98 e0        	sd	a4, 0x0(s1)
   1949e: 84 e3        	sd	s1, 0x0(a5)
   194a0: 02 79        	ld	s2, 0x20(sp)
   194a2: a2 74        	ld	s1, 0x28(sp)
   194a4: e2 69        	ld	s3, 0x18(sp)
   194a6: 42 6a        	ld	s4, 0x10(sp)
   194a8: a2 6a        	ld	s5, 0x8(sp)
   194aa: 02 6b        	ld	s6, 0x0(sp)
   194ac: 21 61        	addi	sp, sp, 0x40
   194ae: 82 80        	ret
   194b0: 94 43        	lw	a3, 0x0(a5)
   194b2: 91 07        	addi	a5, a5, 0x4
   194b4: 11 07        	addi	a4, a4, 0x4
   194b6: 23 2e d7 fe  	sw	a3, -0x4(a4)
   194ba: e3 f6 17 fd  	bgeu	a5, a7, 0x19486 <__lshift+0xc6>
   194be: 94 43        	lw	a3, 0x0(a5)
   194c0: 91 07        	addi	a5, a5, 0x4
   194c2: 11 07        	addi	a4, a4, 0x4
   194c4: 23 2e d7 fe  	sw	a3, -0x4(a4)
   194c8: e3 e4 17 ff  	bltu	a5, a7, 0x194b0 <__lshift+0xf0>
   194cc: 6d bf        	j	0x19486 <__lshift+0xc6>
   194ce: 97 76 ff ff  	auipc	a3, 0xffff7
   194d2: 93 86 a6 e3  	addi	a3, a3, -0x1c6
   194d6: 01 46        	li	a2, 0x0
   194d8: 93 05 e0 1d  	li	a1, 0x1de
   194dc: 17 75 ff ff  	auipc	a0, 0xffff7
   194e0: 13 05 45 e6  	addi	a0, a0, -0x19c
   194e4: ef 00 a0 63  	jal	0x19b1e <__assert_func>

00000000000194e8 <__mcmp>:
   194e8: dc 49        	lw	a5, 0x14(a1)
   194ea: 2a 88        	mv	a6, a0
   194ec: 48 49        	lw	a0, 0x14(a0)
   194ee: 1d 9d        	subw	a0, a0, a5
   194f0: 1d e5        	bnez	a0, 0x1951e <__mcmp+0x36>
   194f2: 8a 07        	slli	a5, a5, 0x2
   194f4: 61 08        	addi	a6, a6, 0x18
   194f6: e1 05        	addi	a1, a1, 0x18
   194f8: 33 07 f8 00  	add	a4, a6, a5
   194fc: ae 97        	add	a5, a5, a1
   194fe: 19 a0        	j	0x19504 <__mcmp+0x1c>
   19500: 63 7f e8 00  	bgeu	a6, a4, 0x1951e <__mcmp+0x36>
   19504: 03 26 c7 ff  	lw	a2, -0x4(a4)
   19508: 83 a6 c7 ff  	lw	a3, -0x4(a5)
   1950c: 71 17        	addi	a4, a4, -0x4
   1950e: f1 17        	addi	a5, a5, -0x4
   19510: e3 08 d6 fe  	beq	a2, a3, 0x19500 <__mcmp+0x18>
   19514: 05 45        	li	a0, 0x1
   19516: 63 74 d6 00  	bgeu	a2, a3, 0x1951e <__mcmp+0x36>
   1951a: 7d 55        	li	a0, -0x1
   1951c: 82 80        	ret
   1951e: 82 80        	ret

0000000000019520 <__mdiff>:
   19520: d8 49        	lw	a4, 0x14(a1)
   19522: 5c 4a        	lw	a5, 0x14(a2)
   19524: 01 11        	addi	sp, sp, -0x20
   19526: 22 e8        	sd	s0, 0x10(sp)
   19528: 26 e4        	sd	s1, 0x8(sp)
   1952a: 06 ec        	sd	ra, 0x18(sp)
   1952c: 4a e0        	sd	s2, 0x0(sp)
   1952e: 1d 9f        	subw	a4, a4, a5
   19530: 2e 84        	mv	s0, a1
   19532: b2 84        	mv	s1, a2
   19534: 63 10 07 14  	bnez	a4, 0x19674 <__mdiff+0x154>
   19538: 93 96 27 00  	slli	a3, a5, 0x2
   1953c: 13 86 85 01  	addi	a2, a1, 0x18
   19540: 13 87 84 01  	addi	a4, s1, 0x18
   19544: b3 07 d6 00  	add	a5, a2, a3
   19548: 36 97        	add	a4, a4, a3
   1954a: 19 a0        	j	0x19550 <__mdiff+0x30>
   1954c: 63 7c f6 12  	bgeu	a2, a5, 0x19684 <__mdiff+0x164>
   19550: 83 a5 c7 ff  	lw	a1, -0x4(a5)
   19554: 83 26 c7 ff  	lw	a3, -0x4(a4)
   19558: f1 17        	addi	a5, a5, -0x4
   1955a: 71 17        	addi	a4, a4, -0x4
   1955c: e3 88 d5 fe  	beq	a1, a3, 0x1954c <__mdiff+0x2c>
   19560: 05 49        	li	s2, 0x1
   19562: 63 e6 d5 00  	bltu	a1, a3, 0x1956e <__mdiff+0x4e>
   19566: a6 87        	mv	a5, s1
   19568: 01 49        	li	s2, 0x0
   1956a: a2 84        	mv	s1, s0
   1956c: 3e 84        	mv	s0, a5
   1956e: 8c 44        	lw	a1, 0x8(s1)
   19570: ef f0 ff 81  	jal	0x18d8e <_Balloc>
   19574: 63 0f 05 12  	beqz	a0, 0x196b2 <__mdiff+0x192>
   19578: 03 a3 44 01  	lw	t1, 0x14(s1)
   1957c: 83 22 44 01  	lw	t0, 0x14(s0)
   19580: 13 8f 84 01  	addi	t5, s1, 0x18
   19584: 13 1e 23 00  	slli	t3, t1, 0x2
   19588: 13 08 84 01  	addi	a6, s0, 0x18
   1958c: 8a 02        	slli	t0, t0, 0x2
   1958e: 93 0f 85 01  	addi	t6, a0, 0x18
   19592: c1 68        	lui	a7, 0x10
   19594: 23 28 25 01  	sw	s2, 0x10(a0)
   19598: 7a 9e        	add	t3, t3, t5
   1959a: c2 92        	add	t0, t0, a6
   1959c: fe 85        	mv	a1, t6
   1959e: fa 8e        	mv	t4, t5
   195a0: 01 46        	li	a2, 0x0
   195a2: fd 18        	addi	a7, a7, -0x1
   195a4: 03 a7 0e 00  	lw	a4, 0x0(t4)
   195a8: 83 26 08 00  	lw	a3, 0x0(a6)
   195ac: 91 05        	addi	a1, a1, 0x4
   195ae: b3 77 17 01  	and	a5, a4, a7
   195b2: b3 f3 16 01  	and	t2, a3, a7
   195b6: bb 87 77 40  	subw	a5, a5, t2
   195ba: b1 9f        	addw	a5, a5, a2
   195bc: 9b d6 06 01  	srliw	a3, a3, 0x10
   195c0: 1b 57 07 01  	srliw	a4, a4, 0x10
   195c4: 15 9f        	subw	a4, a4, a3
   195c6: 9b d6 07 41  	sraiw	a3, a5, 0x10
   195ca: 35 9f        	addw	a4, a4, a3
   195cc: b3 f7 f8 00  	and	a5, a7, a5
   195d0: 9b 16 07 01  	slliw	a3, a4, 0x10
   195d4: d5 8f        	or	a5, a5, a3
   195d6: 81 27        	sext.w	a5, a5
   195d8: 11 08        	addi	a6, a6, 0x4
   195da: 23 ae f5 fe  	sw	a5, -0x4(a1)
   195de: 91 0e        	addi	t4, t4, 0x4
   195e0: 1b 56 07 41  	sraiw	a2, a4, 0x10
   195e4: e3 60 58 fc  	bltu	a6, t0, 0x195a4 <__mdiff+0x84>
   195e8: 13 07 94 01  	addi	a4, s0, 0x19
   195ec: 33 84 82 40  	sub	s0, t0, s0
   195f0: 1d 14        	addi	s0, s0, -0x19
   195f2: b3 b2 e2 00  	sltu	t0, t0, a4
   195f6: 93 c8 12 00  	xori	a7, t0, 0x1
   195fa: 09 80        	srli	s0, s0, 0x2
   195fc: 11 47        	li	a4, 0x4
   195fe: 63 8f 02 06  	beqz	t0, 0x1967c <__mdiff+0x15c>
   19602: 3a 9f        	add	t5, t5, a4
   19604: b3 8e ef 00  	add	t4, t6, a4
   19608: 41 68        	lui	a6, 0x10
   1960a: f6 85        	mv	a1, t4
   1960c: fa 86        	mv	a3, t5
   1960e: 7d 18        	addi	a6, a6, -0x1
   19610: 63 78 cf 09  	bgeu	t5, t3, 0x196a0 <__mdiff+0x180>
   19614: 9c 42        	lw	a5, 0x0(a3)
   19616: 9b 08 06 00  	sext.w	a7, a2
   1961a: 91 05        	addi	a1, a1, 0x4
   1961c: 33 f7 07 01  	and	a4, a5, a6
   19620: 31 9f        	addw	a4, a4, a2
   19622: 1b 57 07 41  	sraiw	a4, a4, 0x10
   19626: 1b d6 07 01  	srliw	a2, a5, 0x10
   1962a: 31 9f        	addw	a4, a4, a2
   1962c: bb 87 17 01  	addw	a5, a5, a7
   19630: 1b 16 07 01  	slliw	a2, a4, 0x10
   19634: b3 f7 07 01  	and	a5, a5, a6
   19638: d1 8f        	or	a5, a5, a2
   1963a: 81 27        	sext.w	a5, a5
   1963c: 91 06        	addi	a3, a3, 0x4
   1963e: 23 ae f5 fe  	sw	a5, -0x4(a1)
   19642: 1b 56 07 41  	sraiw	a2, a4, 0x10
   19646: e3 e7 c6 fd  	bltu	a3, t3, 0x19614 <__mdiff+0xf4>
   1964a: 7d 1e        	addi	t3, t3, -0x1
   1964c: 33 0e ee 41  	sub	t3, t3, t5
   19650: 13 7e ce ff  	andi	t3, t3, -0x4
   19654: 33 87 ce 01  	add	a4, t4, t3
   19658: 91 e7        	bnez	a5, 0x19664 <__mdiff+0x144>
   1965a: 83 27 c7 ff  	lw	a5, -0x4(a4)
   1965e: 7d 33        	addiw	t1, t1, -0x1
   19660: 71 17        	addi	a4, a4, -0x4
   19662: e5 df        	beqz	a5, 0x1965a <__mdiff+0x13a>
   19664: e2 60        	ld	ra, 0x18(sp)
   19666: 42 64        	ld	s0, 0x10(sp)
   19668: 23 2a 65 00  	sw	t1, 0x14(a0)
   1966c: a2 64        	ld	s1, 0x8(sp)
   1966e: 02 69        	ld	s2, 0x0(sp)
   19670: 05 61        	addi	sp, sp, 0x20
   19672: 82 80        	ret
   19674: 05 49        	li	s2, 0x1
   19676: e3 58 07 ee  	bgez	a4, 0x19566 <__mdiff+0x46>
   1967a: d5 bd        	j	0x1956e <__mdiff+0x4e>
   1967c: 13 07 14 00  	addi	a4, s0, 0x1
   19680: 0a 07        	slli	a4, a4, 0x2
   19682: 41 b7        	j	0x19602 <__mdiff+0xe2>
   19684: 81 45        	li	a1, 0x0
   19686: ef f0 8f f0  	jal	0x18d8e <_Balloc>
   1968a: 29 c1        	beqz	a0, 0x196cc <__mdiff+0x1ac>
   1968c: e2 60        	ld	ra, 0x18(sp)
   1968e: 42 64        	ld	s0, 0x10(sp)
   19690: 85 47        	li	a5, 0x1
   19692: 5c c9        	sw	a5, 0x14(a0)
   19694: 23 2c 05 00  	sw	zero, 0x18(a0)
   19698: a2 64        	ld	s1, 0x8(sp)
   1969a: 02 69        	ld	s2, 0x0(sp)
   1969c: 05 61        	addi	sp, sp, 0x20
   1969e: 82 80        	ret
   196a0: 01 47        	li	a4, 0x0
   196a2: 63 94 08 00  	bnez	a7, 0x196aa <__mdiff+0x18a>
   196a6: 7e 97        	add	a4, a4, t6
   196a8: 45 bf        	j	0x19658 <__mdiff+0x138>
   196aa: 13 17 24 00  	slli	a4, s0, 0x2
   196ae: 7e 97        	add	a4, a4, t6
   196b0: 65 b7        	j	0x19658 <__mdiff+0x138>
   196b2: 97 76 ff ff  	auipc	a3, 0xffff7
   196b6: 93 86 66 c5  	addi	a3, a3, -0x3aa
   196ba: 01 46        	li	a2, 0x0
   196bc: 93 05 50 24  	li	a1, 0x245
   196c0: 17 75 ff ff  	auipc	a0, 0xffff7
   196c4: 13 05 05 c8  	addi	a0, a0, -0x380
   196c8: ef 00 60 45  	jal	0x19b1e <__assert_func>
   196cc: 97 76 ff ff  	auipc	a3, 0xffff7
   196d0: 93 86 c6 c3  	addi	a3, a3, -0x3c4
   196d4: 01 46        	li	a2, 0x0
   196d6: 93 05 70 23  	li	a1, 0x237
   196da: 17 75 ff ff  	auipc	a0, 0xffff7
   196de: 13 05 65 c6  	addi	a0, a0, -0x39a
   196e2: ef 00 c0 43  	jal	0x19b1e <__assert_func>

00000000000196e6 <__ulp>:
   196e6: 53 07 05 e2  	fmv.x.d	a4, fa0
   196ea: b7 07 f0 7f  	lui	a5, 0x7ff00
   196ee: 01 93        	srli	a4, a4, 0x20
   196f0: 7d 8f        	and	a4, a4, a5
   196f2: b7 07 c0 fc  	lui	a5, 0xfcc00
   196f6: bb 86 e7 00  	addw	a3, a5, a4
   196fa: 01 47        	li	a4, 0x0
   196fc: 63 59 d0 00  	blez	a3, 0x1970e <__ulp+0x28>
   19700: 02 17        	slli	a4, a4, 0x20
   19702: 82 16        	slli	a3, a3, 0x20
   19704: 01 93        	srli	a4, a4, 0x20
   19706: 55 8f        	or	a4, a4, a3
   19708: 53 05 07 f2  	fmv.d.x	fa0, a4
   1970c: 82 80        	ret
   1970e: bb 07 d0 40  	negw	a5, a3
   19712: 1b d7 47 41  	sraiw	a4, a5, 0x14
   19716: cd 46        	li	a3, 0x13
   19718: 63 ce e6 00  	blt	a3, a4, 0x19734 <__ulp+0x4e>
   1971c: b7 06 08 00  	lui	a3, 0x80
   19720: bb d6 e6 40  	sraw	a3, a3, a4
   19724: 01 47        	li	a4, 0x0
   19726: 02 17        	slli	a4, a4, 0x20
   19728: 82 16        	slli	a3, a3, 0x20
   1972a: 01 93        	srli	a4, a4, 0x20
   1972c: 55 8f        	or	a4, a4, a3
   1972e: 53 05 07 f2  	fmv.d.x	fa0, a4
   19732: 82 80        	ret
   19734: 9b 07 c7 fe  	addiw	a5, a4, -0x14
   19738: f9 46        	li	a3, 0x1e
   1973a: 05 47        	li	a4, 0x1
   1973c: 63 c6 f6 00  	blt	a3, a5, 0x19748 <__ulp+0x62>
   19740: 37 07 00 80  	lui	a4, 0x80000
   19744: 3b 57 f7 00  	srlw	a4, a4, a5
   19748: 81 46        	li	a3, 0x0
   1974a: 02 17        	slli	a4, a4, 0x20
   1974c: 82 16        	slli	a3, a3, 0x20
   1974e: 01 93        	srli	a4, a4, 0x20
   19750: 55 8f        	or	a4, a4, a3
   19752: 53 05 07 f2  	fmv.d.x	fa0, a4
   19756: 82 80        	ret

0000000000019758 <__b2d>:
   19758: 79 71        	addi	sp, sp, -0x30
   1975a: 26 ec        	sd	s1, 0x18(sp)
   1975c: 44 49        	lw	s1, 0x14(a0)
   1975e: 22 f0        	sd	s0, 0x20(sp)
   19760: 13 04 85 01  	addi	s0, a0, 0x18
   19764: 8a 04        	slli	s1, s1, 0x2
   19766: a2 94        	add	s1, s1, s0
   19768: 4a e8        	sd	s2, 0x10(sp)
   1976a: 03 a9 c4 ff  	lw	s2, -0x4(s1)
   1976e: 4e e4        	sd	s3, 0x8(sp)
   19770: 52 e0        	sd	s4, 0x0(sp)
   19772: 4a 85        	mv	a0, s2
   19774: ae 89        	mv	s3, a1
   19776: 06 f4        	sd	ra, 0x28(sp)
   19778: ef f0 1f 86  	jal	0x18fd8 <__hi0bits>
   1977c: 93 06 00 02  	li	a3, 0x20
   19780: bb 87 a6 40  	subw	a5, a3, a0
   19784: 23 a0 f9 00  	sw	a5, 0x0(s3)
   19788: a9 47        	li	a5, 0xa
   1978a: 13 8a c4 ff  	addi	s4, s1, -0x4
   1978e: 63 d5 a7 08  	bge	a5, a0, 0x19818 <__b2d+0xc0>
   19792: 9b 07 55 ff  	addiw	a5, a0, -0xb
   19796: 63 71 44 05  	bgeu	s0, s4, 0x197d8 <__b2d+0x80>
   1979a: 03 a7 84 ff  	lw	a4, -0x8(s1)
   1979e: a9 cb        	beqz	a5, 0x197f0 <__b2d+0x98>
   197a0: 9d 9e        	subw	a3, a3, a5
   197a2: 3b 56 d7 00  	srlw	a2, a4, a3
   197a6: 3b 19 f9 00  	sllw	s2, s2, a5
   197aa: 33 69 c9 00  	or	s2, s2, a2
   197ae: 37 06 f0 3f  	lui	a2, 0x3ff00
   197b2: 33 69 c9 00  	or	s2, s2, a2
   197b6: bb 15 f7 00  	sllw	a1, a4, a5
   197ba: 13 86 84 ff  	addi	a2, s1, -0x8
   197be: 93 17 09 02  	slli	a5, s2, 0x20
   197c2: 1b 87 05 00  	sext.w	a4, a1
   197c6: 63 7a c4 02  	bgeu	s0, a2, 0x197fa <__b2d+0xa2>
   197ca: 03 a7 44 ff  	lw	a4, -0xc(s1)
   197ce: 3b 57 d7 00  	srlw	a4, a4, a3
   197d2: 4d 8f        	or	a4, a4, a1
   197d4: 01 27        	sext.w	a4, a4
   197d6: 15 a0        	j	0x197fa <__b2d+0xa2>
   197d8: 2d 47        	li	a4, 0xb
   197da: 63 0a e5 00  	beq	a0, a4, 0x197ee <__b2d+0x96>
   197de: 37 07 f0 3f  	lui	a4, 0x3ff00
   197e2: bb 17 f9 00  	sllw	a5, s2, a5
   197e6: d9 8f        	or	a5, a5, a4
   197e8: 82 17        	slli	a5, a5, 0x20
   197ea: 01 47        	li	a4, 0x0
   197ec: 39 a0        	j	0x197fa <__b2d+0xa2>
   197ee: 01 47        	li	a4, 0x0
   197f0: b7 07 f0 3f  	lui	a5, 0x3ff00
   197f4: b3 67 f9 00  	or	a5, s2, a5
   197f8: 82 17        	slli	a5, a5, 0x20
   197fa: a2 70        	ld	ra, 0x28(sp)
   197fc: 02 74        	ld	s0, 0x20(sp)
   197fe: 81 93        	srli	a5, a5, 0x20
   19800: 02 17        	slli	a4, a4, 0x20
   19802: 01 93        	srli	a4, a4, 0x20
   19804: 82 17        	slli	a5, a5, 0x20
   19806: d9 8f        	or	a5, a5, a4
   19808: e2 64        	ld	s1, 0x18(sp)
   1980a: 42 69        	ld	s2, 0x10(sp)
   1980c: a2 69        	ld	s3, 0x8(sp)
   1980e: 02 6a        	ld	s4, 0x0(sp)
   19810: 53 85 07 f2  	fmv.d.x	fa0, a5
   19814: 45 61        	addi	sp, sp, 0x30
   19816: 82 80        	ret
   19818: ad 46        	li	a3, 0xb
   1981a: 89 9e        	subw	a3, a3, a0
   1981c: 37 07 f0 3f  	lui	a4, 0x3ff00
   19820: bb 57 d9 00  	srlw	a5, s2, a3
   19824: d9 8f        	or	a5, a5, a4
   19826: 82 17        	slli	a5, a5, 0x20
   19828: 01 47        	li	a4, 0x0
   1982a: 63 76 44 01  	bgeu	s0, s4, 0x19836 <__b2d+0xde>
   1982e: 03 a7 84 ff  	lw	a4, -0x8(s1)
   19832: 3b 57 d7 00  	srlw	a4, a4, a3
   19836: 55 25        	addiw	a0, a0, 0x15
   19838: 3b 15 a9 00  	sllw	a0, s2, a0
   1983c: 49 8f        	or	a4, a4, a0
   1983e: 01 27        	sext.w	a4, a4
   19840: 6d bf        	j	0x197fa <__b2d+0xa2>

0000000000019842 <__d2b>:
   19842: 39 71        	addi	sp, sp, -0x40
   19844: 52 e8        	sd	s4, 0x10(sp)
   19846: 2e 8a        	mv	s4, a1
   19848: 85 45        	li	a1, 0x1
   1984a: 22 f8        	sd	s0, 0x30(sp)
   1984c: 4a f0        	sd	s2, 0x20(sp)
   1984e: 06 fc        	sd	ra, 0x38(sp)
   19850: 26 f4        	sd	s1, 0x28(sp)
   19852: 4e ec        	sd	s3, 0x18(sp)
   19854: 53 04 05 e2  	fmv.x.d	s0, fa0
   19858: 32 89        	mv	s2, a2
   1985a: ef f0 4f d3  	jal	0x18d8e <_Balloc>
   1985e: 55 c9        	beqz	a0, 0x19912 <__d2b+0xd0>
   19860: 93 57 04 42  	srai	a5, s0, 0x20
   19864: 9b d9 47 01  	srliw	s3, a5, 0x14
   19868: 93 f9 f9 7f  	andi	s3, s3, 0x7ff
   1986c: b2 17        	slli	a5, a5, 0x2c
   1986e: aa 84        	mv	s1, a0
   19870: b1 93        	srli	a5, a5, 0x2c
   19872: 63 85 09 00  	beqz	s3, 0x1987c <__d2b+0x3a>
   19876: 37 07 10 00  	lui	a4, 0x100
   1987a: d9 8f        	or	a5, a5, a4
   1987c: 3e c6        	sw	a5, 0xc(sp)
   1987e: 01 24        	sext.w	s0, s0
   19880: 29 e0        	bnez	s0, 0x198c2 <__d2b+0x80>
   19882: 68 00        	addi	a0, sp, 0xc
   19884: ef f0 2f fb  	jal	0x19036 <__lo0bits>
   19888: b2 47        	lw	a5, 0xc(sp)
   1988a: 05 44        	li	s0, 0x1
   1988c: c0 c8        	sw	s0, 0x14(s1)
   1988e: 9c cc        	sw	a5, 0x18(s1)
   19890: 1b 05 05 02  	addiw	a0, a0, 0x20
   19894: 63 80 09 06  	beqz	s3, 0x198f4 <__d2b+0xb2>
   19898: 9b 89 d9 bc  	addiw	s3, s3, -0x433
   1989c: bb 89 a9 00  	addw	s3, s3, a0
   198a0: 13 04 50 03  	li	s0, 0x35
   198a4: 23 20 3a 01  	sw	s3, 0x0(s4)
   198a8: 3b 05 a4 40  	subw	a0, s0, a0
   198ac: e2 70        	ld	ra, 0x38(sp)
   198ae: 42 74        	ld	s0, 0x30(sp)
   198b0: 23 20 a9 00  	sw	a0, 0x0(s2)
   198b4: e2 69        	ld	s3, 0x18(sp)
   198b6: 02 79        	ld	s2, 0x20(sp)
   198b8: 42 6a        	ld	s4, 0x10(sp)
   198ba: 26 85        	mv	a0, s1
   198bc: a2 74        	ld	s1, 0x28(sp)
   198be: 21 61        	addi	sp, sp, 0x40
   198c0: 82 80        	ret
   198c2: 28 00        	addi	a0, sp, 0x8
   198c4: 22 c4        	sw	s0, 0x8(sp)
   198c6: ef f0 0f f7  	jal	0x19036 <__lo0bits>
   198ca: b2 47        	lw	a5, 0xc(sp)
   198cc: 22 47        	lw	a4, 0x8(sp)
   198ce: 19 c9        	beqz	a0, 0x198e4 <__d2b+0xa2>
   198d0: 93 06 00 02  	li	a3, 0x20
   198d4: 89 9e        	subw	a3, a3, a0
   198d6: bb 96 d7 00  	sllw	a3, a5, a3
   198da: 55 8f        	or	a4, a4, a3
   198dc: bb d7 a7 00  	srlw	a5, a5, a0
   198e0: 01 27        	sext.w	a4, a4
   198e2: 3e c6        	sw	a5, 0xc(sp)
   198e4: 33 34 f0 00  	snez	s0, a5
   198e8: 05 04        	addi	s0, s0, 0x1
   198ea: 98 cc        	sw	a4, 0x18(s1)
   198ec: dc cc        	sw	a5, 0x1c(s1)
   198ee: c0 c8        	sw	s0, 0x14(s1)
   198f0: e3 94 09 fa  	bnez	s3, 0x19898 <__d2b+0x56>
   198f4: 1b 05 e5 bc  	addiw	a0, a0, -0x432
   198f8: 93 17 24 00  	slli	a5, s0, 0x2
   198fc: 23 20 aa 00  	sw	a0, 0x0(s4)
   19900: a6 97        	add	a5, a5, s1
   19902: c8 4b        	lw	a0, 0x14(a5)
   19904: 1b 14 54 00  	slliw	s0, s0, 0x5
   19908: ef f0 0f ed  	jal	0x18fd8 <__hi0bits>
   1990c: 3b 05 a4 40  	subw	a0, s0, a0
   19910: 71 bf        	j	0x198ac <__d2b+0x6a>
   19912: 97 76 ff ff  	auipc	a3, 0xffff7
   19916: 93 86 66 9f  	addi	a3, a3, -0x60a
   1991a: 01 46        	li	a2, 0x0
   1991c: 93 05 f0 30  	li	a1, 0x30f
   19920: 17 75 ff ff  	auipc	a0, 0xffff7
   19924: 13 05 05 a2  	addi	a0, a0, -0x5e0
   19928: ef 00 60 1f  	jal	0x19b1e <__assert_func>

000000000001992c <__ratio>:
   1992c: 79 71        	addi	sp, sp, -0x30
   1992e: 26 ec        	sd	s1, 0x18(sp)
   19930: ae 84        	mv	s1, a1
   19932: 2c 00        	addi	a1, sp, 0x8
   19934: 06 f4        	sd	ra, 0x28(sp)
   19936: 22 f0        	sd	s0, 0x20(sp)
   19938: 4a e8        	sd	s2, 0x10(sp)
   1993a: 2a 89        	mv	s2, a0
   1993c: ef f0 df e1  	jal	0x19758 <__b2d>
   19940: 6c 00        	addi	a1, sp, 0xc
   19942: 26 85        	mv	a0, s1
   19944: 53 04 05 e2  	fmv.x.d	s0, fa0
   19948: ef f0 1f e1  	jal	0x19758 <__b2d>
   1994c: 83 27 49 01  	lw	a5, 0x14(s2)
   19950: d0 48        	lw	a2, 0x14(s1)
   19952: b2 46        	lw	a3, 0xc(sp)
   19954: 22 47        	lw	a4, 0x8(sp)
   19956: 91 9f        	subw	a5, a5, a2
   19958: 9b 97 57 00  	slliw	a5, a5, 0x5
   1995c: 15 9f        	subw	a4, a4, a3
   1995e: bb 86 e7 00  	addw	a3, a5, a4
   19962: b6 87        	mv	a5, a3
   19964: 53 07 05 e2  	fmv.x.d	a4, fa0
   19968: 63 59 d0 02  	blez	a3, 0x1999a <__ratio+0x6e>
   1996c: 93 56 04 02  	srli	a3, s0, 0x20
   19970: 9b 97 47 01  	slliw	a5, a5, 0x14
   19974: b5 9f        	addw	a5, a5, a3
   19976: fd 56        	li	a3, -0x1
   19978: 81 92        	srli	a3, a3, 0x20
   1997a: 82 17        	slli	a5, a5, 0x20
   1997c: e1 8e        	and	a3, a3, s0
   1997e: 33 e4 f6 00  	or	s0, a3, a5
   19982: d3 07 04 f2  	fmv.d.x	fa5, s0
   19986: a2 70        	ld	ra, 0x28(sp)
   19988: 02 74        	ld	s0, 0x20(sp)
   1998a: 53 07 07 f2  	fmv.d.x	fa4, a4
   1998e: e2 64        	ld	s1, 0x18(sp)
   19990: 42 69        	ld	s2, 0x10(sp)
   19992: 53 f5 e7 1a  	fdiv.d	fa0, fa5, fa4
   19996: 45 61        	addi	sp, sp, 0x30
   19998: 82 80        	ret
   1999a: 93 56 07 02  	srli	a3, a4, 0x20
   1999e: 9b 97 47 01  	slliw	a5, a5, 0x14
   199a2: bb 87 f6 40  	subw	a5, a3, a5
   199a6: fd 56        	li	a3, -0x1
   199a8: 81 92        	srli	a3, a3, 0x20
   199aa: 82 17        	slli	a5, a5, 0x20
   199ac: 75 8f        	and	a4, a4, a3
   199ae: 5d 8f        	or	a4, a4, a5
   199b0: c9 bf        	j	0x19982 <__ratio+0x56>

00000000000199b2 <_mprec_log10>:
   199b2: dd 47        	li	a5, 0x17
   199b4: 63 df a7 00  	bge	a5, a0, 0x199d2 <_mprec_log10+0x20>
   199b8: 97 77 ff ff  	auipc	a5, 0xffff7
   199bc: 07 b5 07 62  	fld	fa0, 0x620(a5)
   199c0: 97 77 ff ff  	auipc	a5, 0xffff7
   199c4: 87 b7 07 62  	fld	fa5, 0x620(a5)
   199c8: 7d 35        	addiw	a0, a0, -0x1
   199ca: 53 75 f5 12  	fmul.d	fa0, fa0, fa5
   199ce: 6d fd        	bnez	a0, 0x199c8 <_mprec_log10+0x16>
   199d0: 82 80        	ret
   199d2: 0e 05        	slli	a0, a0, 0x3
   199d4: 97 77 ff ff  	auipc	a5, 0xffff7
   199d8: 93 87 47 ff  	addi	a5, a5, -0xc
   199dc: aa 97        	add	a5, a5, a0
   199de: 88 23        	fld	fa0, 0x0(a5)
   199e0: 82 80        	ret

00000000000199e2 <__copybits>:
   199e2: 54 4a        	lw	a3, 0x14(a2)
   199e4: fd 35        	addiw	a1, a1, -0x1
   199e6: 9b d5 55 40  	sraiw	a1, a1, 0x5
   199ea: 85 25        	addiw	a1, a1, 0x1
   199ec: 93 07 86 01  	addi	a5, a2, 0x18
   199f0: 8a 06        	slli	a3, a3, 0x2
   199f2: 8a 05        	slli	a1, a1, 0x2
   199f4: be 96        	add	a3, a3, a5
   199f6: aa 95        	add	a1, a1, a0
   199f8: 63 f1 d7 02  	bgeu	a5, a3, 0x19a1a <__copybits+0x38>
   199fc: 2a 87        	mv	a4, a0
   199fe: 03 a8 07 00  	lw	a6, 0x0(a5)
   19a02: 91 07        	addi	a5, a5, 0x4
   19a04: 11 07        	addi	a4, a4, 0x4
   19a06: 23 2e 07 ff  	sw	a6, -0x4(a4)
   19a0a: e3 ea d7 fe  	bltu	a5, a3, 0x199fe <__copybits+0x1c>
   19a0e: b3 87 c6 40  	sub	a5, a3, a2
   19a12: 9d 17        	addi	a5, a5, -0x19
   19a14: f1 9b        	andi	a5, a5, -0x4
   19a16: 91 07        	addi	a5, a5, 0x4
   19a18: 3e 95        	add	a0, a0, a5
   19a1a: 63 77 b5 00  	bgeu	a0, a1, 0x19a28 <__copybits+0x46>
   19a1e: 11 05        	addi	a0, a0, 0x4
   19a20: 23 2e 05 fe  	sw	zero, -0x4(a0)
   19a24: e3 6d b5 fe  	bltu	a0, a1, 0x19a1e <__copybits+0x3c>
   19a28: 82 80        	ret

0000000000019a2a <__any_on>:
   19a2a: 58 49        	lw	a4, 0x14(a0)
   19a2c: 13 d6 55 40  	srai	a2, a1, 0x5
   19a30: 93 06 85 01  	addi	a3, a0, 0x18
   19a34: 63 5d c7 00  	bge	a4, a2, 0x19a4e <__any_on+0x24>
   19a38: 0a 07        	slli	a4, a4, 0x2
   19a3a: b3 87 e6 00  	add	a5, a3, a4
   19a3e: 63 f8 f6 02  	bgeu	a3, a5, 0x19a6e <__any_on+0x44>
   19a42: 03 a7 c7 ff  	lw	a4, -0x4(a5)
   19a46: f1 17        	addi	a5, a5, -0x4
   19a48: 7d db        	beqz	a4, 0x19a3e <__any_on+0x14>
   19a4a: 05 45        	li	a0, 0x1
   19a4c: 82 80        	ret
   19a4e: 93 17 26 00  	slli	a5, a2, 0x2
   19a52: b6 97        	add	a5, a5, a3
   19a54: e3 55 e6 fe  	bge	a2, a4, 0x19a3e <__any_on+0x14>
   19a58: fd 89        	andi	a1, a1, 0x1f
   19a5a: f5 d1        	beqz	a1, 0x19a3e <__any_on+0x14>
   19a5c: 90 43        	lw	a2, 0x0(a5)
   19a5e: 05 45        	li	a0, 0x1
   19a60: 3b 57 b6 00  	srlw	a4, a2, a1
   19a64: 3b 17 b7 00  	sllw	a4, a4, a1
   19a68: e3 0b c7 fc  	beq	a4, a2, 0x19a3e <__any_on+0x14>
   19a6c: 82 80        	ret
   19a6e: 01 45        	li	a0, 0x0
   19a70: 82 80        	ret

0000000000019a72 <_calloc_r>:
   19a72: b3 b7 c5 02  	mulhu	a5, a1, a2
   19a76: 41 11        	addi	sp, sp, -0x10
   19a78: 06 e4        	sd	ra, 0x8(sp)
   19a7a: 22 e0        	sd	s0, 0x0(sp)
   19a7c: b3 85 c5 02  	mul	a1, a1, a2
   19a80: b5 ef        	bnez	a5, 0x19afc <_calloc_r+0x8a>
   19a82: ef a0 ef b2  	jal	0x13db0 <_malloc_r>
   19a86: 2a 84        	mv	s0, a0
   19a88: 35 cd        	beqz	a0, 0x19b04 <_calloc_r+0x92>
   19a8a: 03 36 85 ff  	ld	a2, -0x8(a0)
   19a8e: 13 07 80 04  	li	a4, 0x48
   19a92: 71 9a        	andi	a2, a2, -0x4
   19a94: 61 16        	addi	a2, a2, -0x8
   19a96: 63 62 c7 04  	bltu	a4, a2, 0x19ada <_calloc_r+0x68>
   19a9a: 93 06 70 02  	li	a3, 0x27
   19a9e: aa 87        	mv	a5, a0
   19aa0: 63 f2 c6 02  	bgeu	a3, a2, 0x19ac4 <_calloc_r+0x52>
   19aa4: 23 30 05 00  	sd	zero, 0x0(a0)
   19aa8: 23 34 05 00  	sd	zero, 0x8(a0)
   19aac: 93 07 70 03  	li	a5, 0x37
   19ab0: 63 fd c7 02  	bgeu	a5, a2, 0x19aea <_calloc_r+0x78>
   19ab4: 23 38 05 00  	sd	zero, 0x10(a0)
   19ab8: 23 3c 05 00  	sd	zero, 0x18(a0)
   19abc: 93 07 05 02  	addi	a5, a0, 0x20
   19ac0: 63 08 e6 04  	beq	a2, a4, 0x19b10 <_calloc_r+0x9e>
   19ac4: 23 b0 07 00  	sd	zero, 0x0(a5)
   19ac8: 23 b4 07 00  	sd	zero, 0x8(a5)
   19acc: 23 b8 07 00  	sd	zero, 0x10(a5)
   19ad0: a2 60        	ld	ra, 0x8(sp)
   19ad2: 22 85        	mv	a0, s0
   19ad4: 02 64        	ld	s0, 0x0(sp)
   19ad6: 41 01        	addi	sp, sp, 0x10
   19ad8: 82 80        	ret
   19ada: 81 45        	li	a1, 0x0
   19adc: ef 20 b0 38  	jal	0x1c666 <memset>
   19ae0: a2 60        	ld	ra, 0x8(sp)
   19ae2: 22 85        	mv	a0, s0
   19ae4: 02 64        	ld	s0, 0x0(sp)
   19ae6: 41 01        	addi	sp, sp, 0x10
   19ae8: 82 80        	ret
   19aea: 93 07 05 01  	addi	a5, a0, 0x10
   19aee: 23 b0 07 00  	sd	zero, 0x0(a5)
   19af2: 23 b4 07 00  	sd	zero, 0x8(a5)
   19af6: 23 b8 07 00  	sd	zero, 0x10(a5)
   19afa: d9 bf        	j	0x19ad0 <_calloc_r+0x5e>
   19afc: ef 20 50 1d  	jal	0x1c4d0 <__errno>
   19b00: b1 47        	li	a5, 0xc
   19b02: 1c c1        	sw	a5, 0x0(a0)
   19b04: 01 44        	li	s0, 0x0
   19b06: a2 60        	ld	ra, 0x8(sp)
   19b08: 22 85        	mv	a0, s0
   19b0a: 02 64        	ld	s0, 0x0(sp)
   19b0c: 41 01        	addi	sp, sp, 0x10
   19b0e: 82 80        	ret
   19b10: 23 30 05 02  	sd	zero, 0x20(a0)
   19b14: 93 07 05 03  	addi	a5, a0, 0x30
   19b18: 23 34 05 02  	sd	zero, 0x28(a0)
   19b1c: 65 b7        	j	0x19ac4 <_calloc_r+0x52>

0000000000019b1e <__assert_func>:
   19b1e: 41 11        	addi	sp, sp, -0x10
   19b20: b6 87        	mv	a5, a3
   19b22: 17 67 00 00  	auipc	a4, 0x6
   19b26: 03 37 67 05  	ld	a4, 0x56(a4)
   19b2a: 32 88        	mv	a6, a2
   19b2c: 06 e4        	sd	ra, 0x8(sp)
   19b2e: 83 38 87 01  	ld	a7, 0x18(a4)
   19b32: 3e 86        	mv	a2, a5
   19b34: aa 86        	mv	a3, a0
   19b36: 2e 87        	mv	a4, a1
   19b38: 97 67 ff ff  	auipc	a5, 0xffff6
   19b3c: 93 87 87 79  	addi	a5, a5, 0x798
   19b40: 63 0b 08 00  	beqz	a6, 0x19b56 <__assert_func+0x38>
   19b44: 97 75 ff ff  	auipc	a1, 0xffff7
   19b48: 93 85 45 a6  	addi	a1, a1, -0x59c
   19b4c: 46 85        	mv	a0, a7
   19b4e: ef 00 00 04  	jal	0x19b8e <fiprintf>
   19b52: ef 00 a0 06  	jal	0x19bbc <abort>
   19b56: 97 77 ff ff  	auipc	a5, 0xffff7
   19b5a: 93 87 a7 88  	addi	a5, a5, -0x776
   19b5e: 3e 88        	mv	a6, a5
   19b60: d5 b7        	j	0x19b44 <__assert_func+0x26>

0000000000019b62 <__assert>:
   19b62: 41 11        	addi	sp, sp, -0x10
   19b64: b2 86        	mv	a3, a2
   19b66: 01 46        	li	a2, 0x0
   19b68: 06 e4        	sd	ra, 0x8(sp)
   19b6a: ef f0 5f fb  	jal	0x19b1e <__assert_func>

0000000000019b6e <_fiprintf_r>:
   19b6e: 5d 71        	addi	sp, sp, -0x50
   19b70: 13 03 81 02  	addi	t1, sp, 0x28
   19b74: 36 f4        	sd	a3, 0x28(sp)
   19b76: 9a 86        	mv	a3, t1
   19b78: 06 ec        	sd	ra, 0x18(sp)
   19b7a: 3a f8        	sd	a4, 0x30(sp)
   19b7c: 3e fc        	sd	a5, 0x38(sp)
   19b7e: c2 e0        	sd	a6, 0x40(sp)
   19b80: c6 e4        	sd	a7, 0x48(sp)
   19b82: 1a e4        	sd	t1, 0x8(sp)
   19b84: ef c0 1f 94  	jal	0x164c4 <_vfiprintf_r>
   19b88: e2 60        	ld	ra, 0x18(sp)
   19b8a: 61 61        	addi	sp, sp, 0x50
   19b8c: 82 80        	ret

0000000000019b8e <fiprintf>:
   19b8e: 5d 71        	addi	sp, sp, -0x50
   19b90: 13 03 01 02  	addi	t1, sp, 0x20
   19b94: 32 f0        	sd	a2, 0x20(sp)
   19b96: 36 f4        	sd	a3, 0x28(sp)
   19b98: 2e 86        	mv	a2, a1
   19b9a: 9a 86        	mv	a3, t1
   19b9c: aa 85        	mv	a1, a0
   19b9e: 17 65 00 00  	auipc	a0, 0x6
   19ba2: 03 35 a5 fd  	ld	a0, -0x26(a0)
   19ba6: 06 ec        	sd	ra, 0x18(sp)
   19ba8: 3a f8        	sd	a4, 0x30(sp)
   19baa: 3e fc        	sd	a5, 0x38(sp)
   19bac: c2 e0        	sd	a6, 0x40(sp)
   19bae: c6 e4        	sd	a7, 0x48(sp)
   19bb0: 1a e4        	sd	t1, 0x8(sp)
   19bb2: ef c0 3f 91  	jal	0x164c4 <_vfiprintf_r>
   19bb6: e2 60        	ld	ra, 0x18(sp)
   19bb8: 61 61        	addi	sp, sp, 0x50
   19bba: 82 80        	ret

0000000000019bbc <abort>:
   19bbc: 41 11        	addi	sp, sp, -0x10
   19bbe: 19 45        	li	a0, 0x6
   19bc0: 06 e4        	sd	ra, 0x8(sp)
   19bc2: ef 00 b0 38  	jal	0x1a74c <raise>
   19bc6: 05 45        	li	a0, 0x1
   19bc8: ef 20 50 77  	jal	0x1cb3c <_exit>

0000000000019bcc <_putchar_r>:
   19bcc: 10 69        	ld	a2, 0x10(a0)
   19bce: 09 a8        	j	0x19be0 <_putc_r>

0000000000019bd0 <putchar>:
   19bd0: 97 67 00 00  	auipc	a5, 0x6
   19bd4: 83 b7 87 fa  	ld	a5, -0x58(a5)
   19bd8: 90 6b        	ld	a2, 0x10(a5)
   19bda: aa 85        	mv	a1, a0
   19bdc: 3e 85        	mv	a0, a5
   19bde: 09 a0        	j	0x19be0 <_putc_r>

0000000000019be0 <_putc_r>:
   19be0: 79 71        	addi	sp, sp, -0x30
   19be2: 22 f0        	sd	s0, 0x20(sp)
   19be4: 4a ec        	sd	s2, 0x18(sp)
   19be6: 06 f4        	sd	ra, 0x28(sp)
   19be8: 2a 89        	mv	s2, a0
   19bea: 32 84        	mv	s0, a2
   19bec: 19 c1        	beqz	a0, 0x19bf2 <_putc_r+0x12>
   19bee: 3c 65        	ld	a5, 0x48(a0)
   19bf0: c1 c7        	beqz	a5, 0x19c78 <_putc_r+0x98>
   19bf2: 83 27 04 0b  	lw	a5, 0xb0(s0)
   19bf6: 85 8b        	andi	a5, a5, 0x1
   19bf8: 91 e7        	bnez	a5, 0x19c04 <_putc_r+0x24>
   19bfa: 83 57 04 01  	lhu	a5, 0x10(s0)
   19bfe: 93 f7 07 20  	andi	a5, a5, 0x200
   19c02: a1 cf        	beqz	a5, 0x19c5a <_putc_r+0x7a>
   19c04: 5c 44        	lw	a5, 0xc(s0)
   19c06: 1b 87 f7 ff  	addiw	a4, a5, -0x1
   19c0a: 58 c4        	sw	a4, 0xc(s0)
   19c0c: 63 5a 07 00  	bgez	a4, 0x19c20 <_putc_r+0x40>
   19c10: 1c 54        	lw	a5, 0x28(s0)
   19c12: 63 4e f7 02  	blt	a4, a5, 0x19c4e <_putc_r+0x6e>
   19c16: 93 f7 f5 0f  	andi	a5, a1, 0xff
   19c1a: 29 47        	li	a4, 0xa
   19c1c: 63 89 e7 02  	beq	a5, a4, 0x19c4e <_putc_r+0x6e>
   19c20: 1c 60        	ld	a5, 0x0(s0)
   19c22: 13 f9 f5 0f  	andi	s2, a1, 0xff
   19c26: 13 87 17 00  	addi	a4, a5, 0x1
   19c2a: 18 e0        	sd	a4, 0x0(s0)
   19c2c: 23 80 b7 00  	sb	a1, 0x0(a5)
   19c30: 83 27 04 0b  	lw	a5, 0xb0(s0)
   19c34: 85 8b        	andi	a5, a5, 0x1
   19c36: 91 e7        	bnez	a5, 0x19c42 <_putc_r+0x62>
   19c38: 83 57 04 01  	lhu	a5, 0x10(s0)
   19c3c: 93 f7 07 20  	andi	a5, a5, 0x200
   19c40: 9d c3        	beqz	a5, 0x19c66 <_putc_r+0x86>
   19c42: a2 70        	ld	ra, 0x28(sp)
   19c44: 02 74        	ld	s0, 0x20(sp)
   19c46: 4a 85        	mv	a0, s2
   19c48: 62 69        	ld	s2, 0x18(sp)
   19c4a: 45 61        	addi	sp, sp, 0x30
   19c4c: 82 80        	ret
   19c4e: 4a 85        	mv	a0, s2
   19c50: 22 86        	mv	a2, s0
   19c52: ef 00 40 29  	jal	0x19ee6 <__swbuf_r>
   19c56: 2a 89        	mv	s2, a0
   19c58: e1 bf        	j	0x19c30 <_putc_r+0x50>
   19c5a: 48 70        	ld	a0, 0xa0(s0)
   19c5c: 2e e4        	sd	a1, 0x8(sp)
   19c5e: ef 20 90 12  	jal	0x1c586 <__retarget_lock_acquire_recursive>
   19c62: a2 65        	ld	a1, 0x8(sp)
   19c64: 45 b7        	j	0x19c04 <_putc_r+0x24>
   19c66: 48 70        	ld	a0, 0xa0(s0)
   19c68: ef 20 b0 12  	jal	0x1c592 <__retarget_lock_release_recursive>
   19c6c: a2 70        	ld	ra, 0x28(sp)
   19c6e: 02 74        	ld	s0, 0x20(sp)
   19c70: 4a 85        	mv	a0, s2
   19c72: 62 69        	ld	s2, 0x18(sp)
   19c74: 45 61        	addi	sp, sp, 0x30
   19c76: 82 80        	ret
   19c78: 2e e4        	sd	a1, 0x8(sp)
   19c7a: ef 90 bf 99  	jal	0x13614 <__sinit>
   19c7e: a2 65        	ld	a1, 0x8(sp)
   19c80: 8d bf        	j	0x19bf2 <_putc_r+0x12>

0000000000019c82 <putc>:
   19c82: 01 11        	addi	sp, sp, -0x20
   19c84: 22 e8        	sd	s0, 0x10(sp)
   19c86: 26 e4        	sd	s1, 0x8(sp)
   19c88: 4a e0        	sd	s2, 0x0(sp)
   19c8a: 06 ec        	sd	ra, 0x18(sp)
   19c8c: 17 69 00 00  	auipc	s2, 0x6
   19c90: 03 39 c9 ee  	ld	s2, -0x114(s2)
   19c94: aa 84        	mv	s1, a0
   19c96: 2e 84        	mv	s0, a1
   19c98: 63 05 09 00  	beqz	s2, 0x19ca2 <putc+0x20>
   19c9c: 83 37 89 04  	ld	a5, 0x48(s2)
   19ca0: c9 c7        	beqz	a5, 0x19d2a <putc+0xa8>
   19ca2: 83 27 04 0b  	lw	a5, 0xb0(s0)
   19ca6: 85 8b        	andi	a5, a5, 0x1
   19ca8: 91 e7        	bnez	a5, 0x19cb4 <putc+0x32>
   19caa: 83 57 04 01  	lhu	a5, 0x10(s0)
   19cae: 93 f7 07 20  	andi	a5, a5, 0x200
   19cb2: b1 cf        	beqz	a5, 0x19d0e <putc+0x8c>
   19cb4: 5c 44        	lw	a5, 0xc(s0)
   19cb6: 1b 87 f7 ff  	addiw	a4, a5, -0x1
   19cba: 58 c4        	sw	a4, 0xc(s0)
   19cbc: 63 5a 07 00  	bgez	a4, 0x19cd0 <putc+0x4e>
   19cc0: 1c 54        	lw	a5, 0x28(s0)
   19cc2: 63 4f f7 02  	blt	a4, a5, 0x19d00 <putc+0x7e>
   19cc6: 93 f7 f4 0f  	andi	a5, s1, 0xff
   19cca: 29 47        	li	a4, 0xa
   19ccc: 63 8a e7 02  	beq	a5, a4, 0x19d00 <putc+0x7e>
   19cd0: 1c 60        	ld	a5, 0x0(s0)
   19cd2: 13 f9 f4 0f  	andi	s2, s1, 0xff
   19cd6: 13 87 17 00  	addi	a4, a5, 0x1
   19cda: 18 e0        	sd	a4, 0x0(s0)
   19cdc: 23 80 97 00  	sb	s1, 0x0(a5)
   19ce0: 83 27 04 0b  	lw	a5, 0xb0(s0)
   19ce4: 85 8b        	andi	a5, a5, 0x1
   19ce6: 91 e7        	bnez	a5, 0x19cf2 <putc+0x70>
   19ce8: 83 57 04 01  	lhu	a5, 0x10(s0)
   19cec: 93 f7 07 20  	andi	a5, a5, 0x200
   19cf0: 9d c3        	beqz	a5, 0x19d16 <putc+0x94>
   19cf2: e2 60        	ld	ra, 0x18(sp)
   19cf4: 42 64        	ld	s0, 0x10(sp)
   19cf6: a2 64        	ld	s1, 0x8(sp)
   19cf8: 4a 85        	mv	a0, s2
   19cfa: 02 69        	ld	s2, 0x0(sp)
   19cfc: 05 61        	addi	sp, sp, 0x20
   19cfe: 82 80        	ret
   19d00: 4a 85        	mv	a0, s2
   19d02: 22 86        	mv	a2, s0
   19d04: a6 85        	mv	a1, s1
   19d06: ef 00 00 1e  	jal	0x19ee6 <__swbuf_r>
   19d0a: 2a 89        	mv	s2, a0
   19d0c: d1 bf        	j	0x19ce0 <putc+0x5e>
   19d0e: 48 70        	ld	a0, 0xa0(s0)
   19d10: ef 20 70 07  	jal	0x1c586 <__retarget_lock_acquire_recursive>
   19d14: 45 b7        	j	0x19cb4 <putc+0x32>
   19d16: 48 70        	ld	a0, 0xa0(s0)
   19d18: ef 20 b0 07  	jal	0x1c592 <__retarget_lock_release_recursive>
   19d1c: e2 60        	ld	ra, 0x18(sp)
   19d1e: 42 64        	ld	s0, 0x10(sp)
   19d20: a2 64        	ld	s1, 0x8(sp)
   19d22: 4a 85        	mv	a0, s2
   19d24: 02 69        	ld	s2, 0x0(sp)
   19d26: 05 61        	addi	sp, sp, 0x20
   19d28: 82 80        	ret
   19d2a: 4a 85        	mv	a0, s2
   19d2c: ef 90 9f 8e  	jal	0x13614 <__sinit>
   19d30: 8d bf        	j	0x19ca2 <putc+0x20>

0000000000019d32 <_puts_r>:
   19d32: 1d 71        	addi	sp, sp, -0x60
   19d34: a6 e4        	sd	s1, 0x48(sp)
   19d36: aa 84        	mv	s1, a0
   19d38: 2e 85        	mv	a0, a1
   19d3a: a2 e8        	sd	s0, 0x50(sp)
   19d3c: 86 ec        	sd	ra, 0x58(sp)
   19d3e: 2e 84        	mv	s0, a1
   19d40: ef 20 70 31  	jal	0x1c856 <strlen>
   19d44: 13 07 15 00  	addi	a4, a0, 0x1
   19d48: 97 76 ff ff  	auipc	a3, 0xffff7
   19d4c: 93 86 86 80  	addi	a3, a3, -0x7f8
   19d50: 3a ec        	sd	a4, 0x18(sp)
   19d52: bc 64        	ld	a5, 0x48(s1)
   19d54: 18 10        	addi	a4, sp, 0x20
   19d56: 36 f8        	sd	a3, 0x30(sp)
   19d58: 3a e4        	sd	a4, 0x8(sp)
   19d5a: 85 46        	li	a3, 0x1
   19d5c: 09 47        	li	a4, 0x2
   19d5e: 22 f0        	sd	s0, 0x20(sp)
   19d60: 2a f4        	sd	a0, 0x28(sp)
   19d62: 36 fc        	sd	a3, 0x38(sp)
   19d64: 3a c8        	sw	a4, 0x10(sp)
   19d66: 80 68        	ld	s0, 0x10(s1)
   19d68: b5 cf        	beqz	a5, 0x19de4 <_puts_r+0xb2>
   19d6a: 03 27 04 0b  	lw	a4, 0xb0(s0)
   19d6e: 83 17 04 01  	lh	a5, 0x10(s0)
   19d72: 05 8b        	andi	a4, a4, 0x1
   19d74: 01 e7        	bnez	a4, 0x19d7c <_puts_r+0x4a>
   19d76: 13 f7 07 20  	andi	a4, a5, 0x200
   19d7a: 39 cf        	beqz	a4, 0x19dd8 <_puts_r+0xa6>
   19d7c: 13 97 27 03  	slli	a4, a5, 0x32
   19d80: 63 4d 07 00  	bltz	a4, 0x19d9a <_puts_r+0x68>
   19d84: 03 27 04 0b  	lw	a4, 0xb0(s0)
   19d88: f9 76        	lui	a3, 0xffffe
   19d8a: fd 16        	addi	a3, a3, -0x1
   19d8c: 09 66        	lui	a2, 0x2
   19d8e: d1 8f        	or	a5, a5, a2
   19d90: 75 8f        	and	a4, a4, a3
   19d92: 23 18 f4 00  	sh	a5, 0x10(s0)
   19d96: 23 28 e4 0a  	sw	a4, 0xb0(s0)
   19d9a: 26 85        	mv	a0, s1
   19d9c: 30 00        	addi	a2, sp, 0x8
   19d9e: a2 85        	mv	a1, s0
   19da0: ef d0 cf fd  	jal	0x1757c <__sfvwrite_r>
   19da4: a9 44        	li	s1, 0xa
   19da6: 39 e1        	bnez	a0, 0x19dec <_puts_r+0xba>
   19da8: 83 27 04 0b  	lw	a5, 0xb0(s0)
   19dac: 85 8b        	andi	a5, a5, 0x1
   19dae: 91 e7        	bnez	a5, 0x19dba <_puts_r+0x88>
   19db0: 83 57 04 01  	lhu	a5, 0x10(s0)
   19db4: 93 f7 07 20  	andi	a5, a5, 0x200
   19db8: 99 c7        	beqz	a5, 0x19dc6 <_puts_r+0x94>
   19dba: e6 60        	ld	ra, 0x58(sp)
   19dbc: 46 64        	ld	s0, 0x50(sp)
   19dbe: 26 85        	mv	a0, s1
   19dc0: a6 64        	ld	s1, 0x48(sp)
   19dc2: 25 61        	addi	sp, sp, 0x60
   19dc4: 82 80        	ret
   19dc6: 48 70        	ld	a0, 0xa0(s0)
   19dc8: ef 20 a0 7c  	jal	0x1c592 <__retarget_lock_release_recursive>
   19dcc: e6 60        	ld	ra, 0x58(sp)
   19dce: 46 64        	ld	s0, 0x50(sp)
   19dd0: 26 85        	mv	a0, s1
   19dd2: a6 64        	ld	s1, 0x48(sp)
   19dd4: 25 61        	addi	sp, sp, 0x60
   19dd6: 82 80        	ret
   19dd8: 48 70        	ld	a0, 0xa0(s0)
   19dda: ef 20 c0 7a  	jal	0x1c586 <__retarget_lock_acquire_recursive>
   19dde: 83 17 04 01  	lh	a5, 0x10(s0)
   19de2: 69 bf        	j	0x19d7c <_puts_r+0x4a>
   19de4: 26 85        	mv	a0, s1
   19de6: ef 90 ff 82  	jal	0x13614 <__sinit>
   19dea: 41 b7        	j	0x19d6a <_puts_r+0x38>
   19dec: fd 54        	li	s1, -0x1
   19dee: 6d bf        	j	0x19da8 <_puts_r+0x76>

0000000000019df0 <puts>:
   19df0: aa 85        	mv	a1, a0
   19df2: 17 65 00 00  	auipc	a0, 0x6
   19df6: 03 35 65 d8  	ld	a0, -0x27a(a0)
   19dfa: 25 bf        	j	0x19d32 <_puts_r>

0000000000019dfc <__sread>:
   19dfc: 41 11        	addi	sp, sp, -0x10
   19dfe: 22 e0        	sd	s0, 0x0(sp)
   19e00: 2e 84        	mv	s0, a1
   19e02: 83 95 25 01  	lh	a1, 0x12(a1)
   19e06: 06 e4        	sd	ra, 0x8(sp)
   19e08: ef 20 60 5d  	jal	0x1c3de <_read_r>
   19e0c: 63 49 05 00  	bltz	a0, 0x19e1e <__sread+0x22>
   19e10: 5c 68        	ld	a5, 0x90(s0)
   19e12: a2 60        	ld	ra, 0x8(sp)
   19e14: aa 97        	add	a5, a5, a0
   19e16: 5c e8        	sd	a5, 0x90(s0)
   19e18: 02 64        	ld	s0, 0x0(sp)
   19e1a: 41 01        	addi	sp, sp, 0x10
   19e1c: 82 80        	ret
   19e1e: 83 57 04 01  	lhu	a5, 0x10(s0)
   19e22: 7d 77        	lui	a4, 0xfffff
   19e24: 7d 17        	addi	a4, a4, -0x1
   19e26: f9 8f        	and	a5, a5, a4
   19e28: a2 60        	ld	ra, 0x8(sp)
   19e2a: 23 18 f4 00  	sh	a5, 0x10(s0)
   19e2e: 02 64        	ld	s0, 0x0(sp)
   19e30: 41 01        	addi	sp, sp, 0x10
   19e32: 82 80        	ret

0000000000019e34 <__seofread>:
   19e34: 01 45        	li	a0, 0x0
   19e36: 82 80        	ret

0000000000019e38 <__swrite>:
   19e38: 83 97 05 01  	lh	a5, 0x10(a1)
   19e3c: 79 71        	addi	sp, sp, -0x30
   19e3e: 22 f0        	sd	s0, 0x20(sp)
   19e40: 26 ec        	sd	s1, 0x18(sp)
   19e42: 4a e8        	sd	s2, 0x10(sp)
   19e44: 4e e4        	sd	s3, 0x8(sp)
   19e46: 06 f4        	sd	ra, 0x28(sp)
   19e48: 13 f7 07 10  	andi	a4, a5, 0x100
   19e4c: 2e 84        	mv	s0, a1
   19e4e: aa 84        	mv	s1, a0
   19e50: 32 89        	mv	s2, a2
   19e52: b6 89        	mv	s3, a3
   19e54: 1d e3        	bnez	a4, 0x19e7a <__swrite+0x42>
   19e56: 7d 77        	lui	a4, 0xfffff
   19e58: 7d 17        	addi	a4, a4, -0x1
   19e5a: f9 8f        	and	a5, a5, a4
   19e5c: 83 15 24 01  	lh	a1, 0x12(s0)
   19e60: 23 18 f4 00  	sh	a5, 0x10(s0)
   19e64: 02 74        	ld	s0, 0x20(sp)
   19e66: a2 70        	ld	ra, 0x28(sp)
   19e68: ce 86        	mv	a3, s3
   19e6a: 4a 86        	mv	a2, s2
   19e6c: a2 69        	ld	s3, 0x8(sp)
   19e6e: 42 69        	ld	s2, 0x10(sp)
   19e70: 26 85        	mv	a0, s1
   19e72: e2 64        	ld	s1, 0x18(sp)
   19e74: 45 61        	addi	sp, sp, 0x30
   19e76: 6f 20 c0 61  	j	0x1c492 <_write_r>
   19e7a: 83 95 25 01  	lh	a1, 0x12(a1)
   19e7e: 89 46        	li	a3, 0x2
   19e80: 01 46        	li	a2, 0x0
   19e82: ef 20 e0 51  	jal	0x1c3a0 <_lseek_r>
   19e86: 83 17 04 01  	lh	a5, 0x10(s0)
   19e8a: f1 b7        	j	0x19e56 <__swrite+0x1e>

0000000000019e8c <__sseek>:
   19e8c: 41 11        	addi	sp, sp, -0x10
   19e8e: 22 e0        	sd	s0, 0x0(sp)
   19e90: 2e 84        	mv	s0, a1
   19e92: 83 95 25 01  	lh	a1, 0x12(a1)
   19e96: 06 e4        	sd	ra, 0x8(sp)
   19e98: ef 20 80 50  	jal	0x1c3a0 <_lseek_r>
   19e9c: fd 57        	li	a5, -0x1
   19e9e: 63 01 f5 02  	beq	a0, a5, 0x19ec0 <__sseek+0x34>
   19ea2: 83 57 04 01  	lhu	a5, 0x10(s0)
   19ea6: 05 67        	lui	a4, 0x1
   19ea8: a2 60        	ld	ra, 0x8(sp)
   19eaa: d9 8f        	or	a5, a5, a4
   19eac: 9b 97 07 01  	slliw	a5, a5, 0x10
   19eb0: 9b d7 07 41  	sraiw	a5, a5, 0x10
   19eb4: 48 e8        	sd	a0, 0x90(s0)
   19eb6: 23 18 f4 00  	sh	a5, 0x10(s0)
   19eba: 02 64        	ld	s0, 0x0(sp)
   19ebc: 41 01        	addi	sp, sp, 0x10
   19ebe: 82 80        	ret
   19ec0: 83 57 04 01  	lhu	a5, 0x10(s0)
   19ec4: 7d 77        	lui	a4, 0xfffff
   19ec6: 7d 17        	addi	a4, a4, -0x1
   19ec8: f9 8f        	and	a5, a5, a4
   19eca: 9b 97 07 01  	slliw	a5, a5, 0x10
   19ece: 9b d7 07 41  	sraiw	a5, a5, 0x10
   19ed2: a2 60        	ld	ra, 0x8(sp)
   19ed4: 23 18 f4 00  	sh	a5, 0x10(s0)
   19ed8: 02 64        	ld	s0, 0x0(sp)
   19eda: 41 01        	addi	sp, sp, 0x10
   19edc: 82 80        	ret

0000000000019ede <__sclose>:
   19ede: 83 95 25 01  	lh	a1, 0x12(a1)
   19ee2: 6f 20 a0 39  	j	0x1c27c <_close_r>

0000000000019ee6 <__swbuf_r>:
   19ee6: 79 71        	addi	sp, sp, -0x30
   19ee8: 22 f0        	sd	s0, 0x20(sp)
   19eea: 26 ec        	sd	s1, 0x18(sp)
   19eec: 4a e8        	sd	s2, 0x10(sp)
   19eee: 06 f4        	sd	ra, 0x28(sp)
   19ef0: 2a 89        	mv	s2, a0
   19ef2: ae 84        	mv	s1, a1
   19ef4: 32 84        	mv	s0, a2
   19ef6: 19 c1        	beqz	a0, 0x19efc <__swbuf_r+0x16>
   19ef8: 3c 65        	ld	a5, 0x48(a0)
   19efa: e5 c7        	beqz	a5, 0x19fe2 <__swbuf_r+0xfc>
   19efc: 1c 54        	lw	a5, 0x28(s0)
   19efe: 03 17 04 01  	lh	a4, 0x10(s0)
   19f02: 5c c4        	sw	a5, 0xc(s0)
   19f04: 93 77 87 00  	andi	a5, a4, 0x8
   19f08: a9 cb        	beqz	a5, 0x19f5a <__swbuf_r+0x74>
   19f0a: 1c 6c        	ld	a5, 0x18(s0)
   19f0c: b9 c7        	beqz	a5, 0x19f5a <__swbuf_r+0x74>
   19f0e: 4e e4        	sd	s3, 0x8(sp)
   19f10: 93 16 27 03  	slli	a3, a4, 0x32
   19f14: 93 f9 f4 0f  	andi	s3, s1, 0xff
   19f18: ce 84        	mv	s1, s3
   19f1a: 63 d0 06 06  	bgez	a3, 0x19f7a <__swbuf_r+0x94>
   19f1e: 18 60        	ld	a4, 0x0(s0)
   19f20: 14 50        	lw	a3, 0x20(s0)
   19f22: bb 07 f7 40  	subw	a5, a4, a5
   19f26: 63 db d7 06  	bge	a5, a3, 0x19f9c <__swbuf_r+0xb6>
   19f2a: 54 44        	lw	a3, 0xc(s0)
   19f2c: 13 06 17 00  	addi	a2, a4, 0x1
   19f30: 10 e0        	sd	a2, 0x0(s0)
   19f32: fd 36        	addiw	a3, a3, -0x1
   19f34: 54 c4        	sw	a3, 0xc(s0)
   19f36: 23 00 37 01  	sb	s3, 0x0(a4)
   19f3a: 18 50        	lw	a4, 0x20(s0)
   19f3c: 85 27        	addiw	a5, a5, 0x1
   19f3e: 63 01 f7 08  	beq	a4, a5, 0x19fc0 <__swbuf_r+0xda>
   19f42: 83 57 04 01  	lhu	a5, 0x10(s0)
   19f46: 85 8b        	andi	a5, a5, 0x1
   19f48: c1 e7        	bnez	a5, 0x19fd0 <__swbuf_r+0xea>
   19f4a: a2 69        	ld	s3, 0x8(sp)
   19f4c: a2 70        	ld	ra, 0x28(sp)
   19f4e: 02 74        	ld	s0, 0x20(sp)
   19f50: 42 69        	ld	s2, 0x10(sp)
   19f52: 26 85        	mv	a0, s1
   19f54: e2 64        	ld	s1, 0x18(sp)
   19f56: 45 61        	addi	sp, sp, 0x30
   19f58: 82 80        	ret
   19f5a: a2 85        	mv	a1, s0
   19f5c: 4a 85        	mv	a0, s2
   19f5e: ef 00 80 09  	jal	0x19ff6 <__swsetup_r>
   19f62: 2d e5        	bnez	a0, 0x19fcc <__swbuf_r+0xe6>
   19f64: 03 17 04 01  	lh	a4, 0x10(s0)
   19f68: 4e e4        	sd	s3, 0x8(sp)
   19f6a: 93 f9 f4 0f  	andi	s3, s1, 0xff
   19f6e: 93 16 27 03  	slli	a3, a4, 0x32
   19f72: 1c 6c        	ld	a5, 0x18(s0)
   19f74: ce 84        	mv	s1, s3
   19f76: e3 c4 06 fa  	bltz	a3, 0x19f1e <__swbuf_r+0x38>
   19f7a: 83 26 04 0b  	lw	a3, 0xb0(s0)
   19f7e: 79 76        	lui	a2, 0xffffe
   19f80: 89 65        	lui	a1, 0x2
   19f82: 4d 8f        	or	a4, a4, a1
   19f84: 7d 16        	addi	a2, a2, -0x1
   19f86: f1 8e        	and	a3, a3, a2
   19f88: 23 18 e4 00  	sh	a4, 0x10(s0)
   19f8c: 18 60        	ld	a4, 0x0(s0)
   19f8e: 23 28 d4 0a  	sw	a3, 0xb0(s0)
   19f92: 14 50        	lw	a3, 0x20(s0)
   19f94: bb 07 f7 40  	subw	a5, a4, a5
   19f98: e3 c9 d7 f8  	blt	a5, a3, 0x19f2a <__swbuf_r+0x44>
   19f9c: a2 85        	mv	a1, s0
   19f9e: 4a 85        	mv	a0, s2
   19fa0: ef 90 7f 9c  	jal	0x13966 <_fflush_r>
   19fa4: 1d e1        	bnez	a0, 0x19fca <__swbuf_r+0xe4>
   19fa6: 18 60        	ld	a4, 0x0(s0)
   19fa8: 54 44        	lw	a3, 0xc(s0)
   19faa: 85 47        	li	a5, 0x1
   19fac: 13 06 17 00  	addi	a2, a4, 0x1
   19fb0: fd 36        	addiw	a3, a3, -0x1
   19fb2: 10 e0        	sd	a2, 0x0(s0)
   19fb4: 54 c4        	sw	a3, 0xc(s0)
   19fb6: 23 00 37 01  	sb	s3, 0x0(a4)
   19fba: 18 50        	lw	a4, 0x20(s0)
   19fbc: e3 13 f7 f8  	bne	a4, a5, 0x19f42 <__swbuf_r+0x5c>
   19fc0: a2 85        	mv	a1, s0
   19fc2: 4a 85        	mv	a0, s2
   19fc4: ef 90 3f 9a  	jal	0x13966 <_fflush_r>
   19fc8: 49 d1        	beqz	a0, 0x19f4a <__swbuf_r+0x64>
   19fca: a2 69        	ld	s3, 0x8(sp)
   19fcc: fd 54        	li	s1, -0x1
   19fce: bd bf        	j	0x19f4c <__swbuf_r+0x66>
   19fd0: a9 47        	li	a5, 0xa
   19fd2: e3 9c f4 f6  	bne	s1, a5, 0x19f4a <__swbuf_r+0x64>
   19fd6: a2 85        	mv	a1, s0
   19fd8: 4a 85        	mv	a0, s2
   19fda: ef 90 df 98  	jal	0x13966 <_fflush_r>
   19fde: 35 d5        	beqz	a0, 0x19f4a <__swbuf_r+0x64>
   19fe0: ed b7        	j	0x19fca <__swbuf_r+0xe4>
   19fe2: ef 90 2f e3  	jal	0x13614 <__sinit>
   19fe6: 19 bf        	j	0x19efc <__swbuf_r+0x16>

0000000000019fe8 <__swbuf>:
   19fe8: 2e 86        	mv	a2, a1
   19fea: aa 85        	mv	a1, a0
   19fec: 17 65 00 00  	auipc	a0, 0x6
   19ff0: 03 35 c5 b8  	ld	a0, -0x474(a0)
   19ff4: cd bd        	j	0x19ee6 <__swbuf_r>

0000000000019ff6 <__swsetup_r>:
   19ff6: 01 11        	addi	sp, sp, -0x20
   19ff8: 22 e8        	sd	s0, 0x10(sp)
   19ffa: 26 e4        	sd	s1, 0x8(sp)
   19ffc: 06 ec        	sd	ra, 0x18(sp)
   19ffe: 97 67 00 00  	auipc	a5, 0x6
   1a002: 83 b7 a7 b7  	ld	a5, -0x486(a5)
   1a006: aa 84        	mv	s1, a0
   1a008: 2e 84        	mv	s0, a1
   1a00a: 99 c3        	beqz	a5, 0x1a010 <__swsetup_r+0x1a>
   1a00c: b8 67        	ld	a4, 0x48(a5)
   1a00e: 5d c7        	beqz	a4, 0x1a0bc <__swsetup_r+0xc6>
   1a010: 83 17 04 01  	lh	a5, 0x10(s0)
   1a014: 13 f7 87 00  	andi	a4, a5, 0x8
   1a018: 21 c7        	beqz	a4, 0x1a060 <__swsetup_r+0x6a>
   1a01a: 18 6c        	ld	a4, 0x18(s0)
   1a01c: 31 cf        	beqz	a4, 0x1a078 <__swsetup_r+0x82>
   1a01e: 93 f6 17 00  	andi	a3, a5, 0x1
   1a022: 91 ce        	beqz	a3, 0x1a03e <__swsetup_r+0x48>
   1a024: 14 50        	lw	a3, 0x20(s0)
   1a026: 23 26 04 00  	sw	zero, 0xc(s0)
   1a02a: 01 45        	li	a0, 0x0
   1a02c: bb 06 d0 40  	negw	a3, a3
   1a030: 14 d4        	sw	a3, 0x28(s0)
   1a032: 11 cf        	beqz	a4, 0x1a04e <__swsetup_r+0x58>
   1a034: e2 60        	ld	ra, 0x18(sp)
   1a036: 42 64        	ld	s0, 0x10(sp)
   1a038: a2 64        	ld	s1, 0x8(sp)
   1a03a: 05 61        	addi	sp, sp, 0x20
   1a03c: 82 80        	ret
   1a03e: 93 f6 27 00  	andi	a3, a5, 0x2
   1a042: 01 46        	li	a2, 0x0
   1a044: 91 e2        	bnez	a3, 0x1a048 <__swsetup_r+0x52>
   1a046: 10 50        	lw	a2, 0x20(s0)
   1a048: 50 c4        	sw	a2, 0xc(s0)
   1a04a: 01 45        	li	a0, 0x0
   1a04c: 65 f7        	bnez	a4, 0x1a034 <__swsetup_r+0x3e>
   1a04e: 13 f7 07 08  	andi	a4, a5, 0x80
   1a052: 6d d3        	beqz	a4, 0x1a034 <__swsetup_r+0x3e>
   1a054: 93 e7 07 04  	ori	a5, a5, 0x40
   1a058: 23 18 f4 00  	sh	a5, 0x10(s0)
   1a05c: 7d 55        	li	a0, -0x1
   1a05e: d9 bf        	j	0x1a034 <__swsetup_r+0x3e>
   1a060: 13 f7 07 01  	andi	a4, a5, 0x10
   1a064: 25 c3        	beqz	a4, 0x1a0c4 <__swsetup_r+0xce>
   1a066: 13 f7 47 00  	andi	a4, a5, 0x4
   1a06a: 0d e7        	bnez	a4, 0x1a094 <__swsetup_r+0x9e>
   1a06c: 18 6c        	ld	a4, 0x18(s0)
   1a06e: 93 e7 87 00  	ori	a5, a5, 0x8
   1a072: 23 18 f4 00  	sh	a5, 0x10(s0)
   1a076: 45 f7        	bnez	a4, 0x1a01e <__swsetup_r+0x28>
   1a078: 93 f6 07 28  	andi	a3, a5, 0x280
   1a07c: 13 06 00 20  	li	a2, 0x200
   1a080: e3 8f c6 f8  	beq	a3, a2, 0x1a01e <__swsetup_r+0x28>
   1a084: a2 85        	mv	a1, s0
   1a086: 26 85        	mv	a0, s1
   1a088: ef 00 c0 04  	jal	0x1a0d4 <__smakebuf_r>
   1a08c: 83 17 04 01  	lh	a5, 0x10(s0)
   1a090: 18 6c        	ld	a4, 0x18(s0)
   1a092: 71 b7        	j	0x1a01e <__swsetup_r+0x28>
   1a094: 2c 6c        	ld	a1, 0x58(s0)
   1a096: 81 cd        	beqz	a1, 0x1a0ae <__swsetup_r+0xb8>
   1a098: 13 07 44 07  	addi	a4, s0, 0x74
   1a09c: 63 87 e5 00  	beq	a1, a4, 0x1a0aa <__swsetup_r+0xb4>
   1a0a0: 26 85        	mv	a0, s1
   1a0a2: ef 90 df ab  	jal	0x13b5e <_free_r>
   1a0a6: 83 17 04 01  	lh	a5, 0x10(s0)
   1a0aa: 23 3c 04 04  	sd	zero, 0x58(s0)
   1a0ae: 18 6c        	ld	a4, 0x18(s0)
   1a0b0: 93 f7 b7 fd  	andi	a5, a5, -0x25
   1a0b4: 23 24 04 00  	sw	zero, 0x8(s0)
   1a0b8: 18 e0        	sd	a4, 0x0(s0)
   1a0ba: 55 bf        	j	0x1a06e <__swsetup_r+0x78>
   1a0bc: 3e 85        	mv	a0, a5
   1a0be: ef 90 6f d5  	jal	0x13614 <__sinit>
   1a0c2: b9 b7        	j	0x1a010 <__swsetup_r+0x1a>
   1a0c4: 25 47        	li	a4, 0x9
   1a0c6: 98 c0        	sw	a4, 0x0(s1)
   1a0c8: 93 e7 07 04  	ori	a5, a5, 0x40
   1a0cc: 23 18 f4 00  	sh	a5, 0x10(s0)
   1a0d0: 7d 55        	li	a0, -0x1
   1a0d2: 8d b7        	j	0x1a034 <__swsetup_r+0x3e>

000000000001a0d4 <__smakebuf_r>:
   1a0d4: 83 97 05 01  	lh	a5, 0x10(a1)
   1a0d8: 35 71        	addi	sp, sp, -0xa0
   1a0da: 22 e9        	sd	s0, 0x90(sp)
   1a0dc: 06 ed        	sd	ra, 0x98(sp)
   1a0de: 13 f7 27 00  	andi	a4, a5, 0x2
   1a0e2: 2e 84        	mv	s0, a1
   1a0e4: 19 cb        	beqz	a4, 0x1a0fa <__smakebuf_r+0x26>
   1a0e6: 93 87 75 07  	addi	a5, a1, 0x77
   1a0ea: 9c e1        	sd	a5, 0x0(a1)
   1a0ec: 9c ed        	sd	a5, 0x18(a1)
   1a0ee: 85 47        	li	a5, 0x1
   1a0f0: 9c d1        	sw	a5, 0x20(a1)
   1a0f2: ea 60        	ld	ra, 0x98(sp)
   1a0f4: 4a 64        	ld	s0, 0x90(sp)
   1a0f6: 0d 61        	addi	sp, sp, 0xa0
   1a0f8: 82 80        	ret
   1a0fa: 83 95 25 01  	lh	a1, 0x12(a1)
   1a0fe: 26 e5        	sd	s1, 0x88(sp)
   1a100: 4a e1        	sd	s2, 0x80(sp)
   1a102: ce fc        	sd	s3, 0x78(sp)
   1a104: d2 f8        	sd	s4, 0x70(sp)
   1a106: aa 84        	mv	s1, a0
   1a108: 63 c4 05 06  	bltz	a1, 0x1a170 <__smakebuf_r+0x9c>
   1a10c: 30 00        	addi	a2, sp, 0x8
   1a10e: ef 20 e0 21  	jal	0x1c32c <_fstat_r>
   1a112: 63 4d 05 04  	bltz	a0, 0x1a16c <__smakebuf_r+0x98>
   1a116: 32 49        	lw	s2, 0xc(sp)
   1a118: bd 67        	lui	a5, 0xf
   1a11a: 85 69        	lui	s3, 0x1
   1a11c: 33 79 f9 00  	and	s2, s2, a5
   1a120: 89 67        	lui	a5, 0x2
   1a122: 33 09 f9 40  	sub	s2, s2, a5
   1a126: 13 39 19 00  	seqz	s2, s2
   1a12a: 13 0a 00 40  	li	s4, 0x400
   1a12e: 93 89 09 80  	addi	s3, s3, -0x800
   1a132: d2 85        	mv	a1, s4
   1a134: 26 85        	mv	a0, s1
   1a136: ef 90 bf c7  	jal	0x13db0 <_malloc_r>
   1a13a: 83 17 04 01  	lh	a5, 0x10(s0)
   1a13e: 39 c5        	beqz	a0, 0x1a18c <__smakebuf_r+0xb8>
   1a140: 93 e7 07 08  	ori	a5, a5, 0x80
   1a144: 08 e0        	sd	a0, 0x0(s0)
   1a146: 08 ec        	sd	a0, 0x18(s0)
   1a148: 23 18 f4 00  	sh	a5, 0x10(s0)
   1a14c: 23 20 44 03  	sw	s4, 0x20(s0)
   1a150: 63 15 09 06  	bnez	s2, 0x1a1ba <__smakebuf_r+0xe6>
   1a154: b3 e7 37 01  	or	a5, a5, s3
   1a158: ea 60        	ld	ra, 0x98(sp)
   1a15a: 23 18 f4 00  	sh	a5, 0x10(s0)
   1a15e: 4a 64        	ld	s0, 0x90(sp)
   1a160: aa 64        	ld	s1, 0x88(sp)
   1a162: 0a 69        	ld	s2, 0x80(sp)
   1a164: e6 79        	ld	s3, 0x78(sp)
   1a166: 46 7a        	ld	s4, 0x70(sp)
   1a168: 0d 61        	addi	sp, sp, 0xa0
   1a16a: 82 80        	ret
   1a16c: 83 17 04 01  	lh	a5, 0x10(s0)
   1a170: 93 f7 07 08  	andi	a5, a5, 0x80
   1a174: 01 49        	li	s2, 0x0
   1a176: 95 cf        	beqz	a5, 0x1a1b2 <__smakebuf_r+0xde>
   1a178: 13 0a 00 04  	li	s4, 0x40
   1a17c: d2 85        	mv	a1, s4
   1a17e: 26 85        	mv	a0, s1
   1a180: ef 90 1f c3  	jal	0x13db0 <_malloc_r>
   1a184: 83 17 04 01  	lh	a5, 0x10(s0)
   1a188: 81 49        	li	s3, 0x0
   1a18a: 5d f9        	bnez	a0, 0x1a140 <__smakebuf_r+0x6c>
   1a18c: 13 f7 07 20  	andi	a4, a5, 0x200
   1a190: 15 ef        	bnez	a4, 0x1a1cc <__smakebuf_r+0xf8>
   1a192: f1 9b        	andi	a5, a5, -0x4
   1a194: 93 e7 27 00  	ori	a5, a5, 0x2
   1a198: 13 07 74 07  	addi	a4, s0, 0x77
   1a19c: 23 18 f4 00  	sh	a5, 0x10(s0)
   1a1a0: 85 47        	li	a5, 0x1
   1a1a2: aa 64        	ld	s1, 0x88(sp)
   1a1a4: 0a 69        	ld	s2, 0x80(sp)
   1a1a6: e6 79        	ld	s3, 0x78(sp)
   1a1a8: 46 7a        	ld	s4, 0x70(sp)
   1a1aa: 18 e0        	sd	a4, 0x0(s0)
   1a1ac: 18 ec        	sd	a4, 0x18(s0)
   1a1ae: 1c d0        	sw	a5, 0x20(s0)
   1a1b0: 89 b7        	j	0x1a0f2 <__smakebuf_r+0x1e>
   1a1b2: 13 0a 00 40  	li	s4, 0x400
   1a1b6: 81 49        	li	s3, 0x0
   1a1b8: ad bf        	j	0x1a132 <__smakebuf_r+0x5e>
   1a1ba: 83 15 24 01  	lh	a1, 0x12(s0)
   1a1be: 26 85        	mv	a0, s1
   1a1c0: ef 20 80 1a  	jal	0x1c368 <_isatty_r>
   1a1c4: 09 e9        	bnez	a0, 0x1a1d6 <__smakebuf_r+0x102>
   1a1c6: 83 17 04 01  	lh	a5, 0x10(s0)
   1a1ca: 69 b7        	j	0x1a154 <__smakebuf_r+0x80>
   1a1cc: aa 64        	ld	s1, 0x88(sp)
   1a1ce: 0a 69        	ld	s2, 0x80(sp)
   1a1d0: e6 79        	ld	s3, 0x78(sp)
   1a1d2: 46 7a        	ld	s4, 0x70(sp)
   1a1d4: 39 bf        	j	0x1a0f2 <__smakebuf_r+0x1e>
   1a1d6: 83 57 04 01  	lhu	a5, 0x10(s0)
   1a1da: f1 9b        	andi	a5, a5, -0x4
   1a1dc: 93 e7 17 00  	ori	a5, a5, 0x1
   1a1e0: 9b 97 07 01  	slliw	a5, a5, 0x10
   1a1e4: 9b d7 07 41  	sraiw	a5, a5, 0x10
   1a1e8: b5 b7        	j	0x1a154 <__smakebuf_r+0x80>

000000000001a1ea <__swhatbuf_r>:
   1a1ea: 75 71        	addi	sp, sp, -0x90
   1a1ec: 22 e1        	sd	s0, 0x80(sp)
   1a1ee: 2e 84        	mv	s0, a1
   1a1f0: 83 95 25 01  	lh	a1, 0x12(a1)
   1a1f4: a6 fc        	sd	s1, 0x78(sp)
   1a1f6: ca f8        	sd	s2, 0x70(sp)
   1a1f8: 06 e5        	sd	ra, 0x88(sp)
   1a1fa: b2 84        	mv	s1, a2
   1a1fc: 36 89        	mv	s2, a3
   1a1fe: 63 cc 05 02  	bltz	a1, 0x1a236 <__swhatbuf_r+0x4c>
   1a202: 30 00        	addi	a2, sp, 0x8
   1a204: ef 20 80 12  	jal	0x1c32c <_fstat_r>
   1a208: 63 47 05 02  	bltz	a0, 0x1a236 <__swhatbuf_r+0x4c>
   1a20c: b2 47        	lw	a5, 0xc(sp)
   1a20e: 3d 67        	lui	a4, 0xf
   1a210: aa 60        	ld	ra, 0x88(sp)
   1a212: f9 8f        	and	a5, a5, a4
   1a214: 09 67        	lui	a4, 0x2
   1a216: 99 8f        	sub	a5, a5, a4
   1a218: 0a 64        	ld	s0, 0x80(sp)
   1a21a: 93 b7 17 00  	seqz	a5, a5
   1a21e: 23 20 f9 00  	sw	a5, 0x0(s2)
   1a222: 13 07 00 40  	li	a4, 0x400
   1a226: 98 e0        	sd	a4, 0x0(s1)
   1a228: 05 65        	lui	a0, 0x1
   1a22a: e6 74        	ld	s1, 0x78(sp)
   1a22c: 46 79        	ld	s2, 0x70(sp)
   1a22e: 13 05 05 80  	addi	a0, a0, -0x800
   1a232: 49 61        	addi	sp, sp, 0x90
   1a234: 82 80        	ret
   1a236: 83 57 04 01  	lhu	a5, 0x10(s0)
   1a23a: 93 f7 07 08  	andi	a5, a5, 0x80
   1a23e: 91 cf        	beqz	a5, 0x1a25a <__swhatbuf_r+0x70>
   1a240: aa 60        	ld	ra, 0x88(sp)
   1a242: 0a 64        	ld	s0, 0x80(sp)
   1a244: 81 47        	li	a5, 0x0
   1a246: 23 20 f9 00  	sw	a5, 0x0(s2)
   1a24a: 13 07 00 04  	li	a4, 0x40
   1a24e: 98 e0        	sd	a4, 0x0(s1)
   1a250: 46 79        	ld	s2, 0x70(sp)
   1a252: e6 74        	ld	s1, 0x78(sp)
   1a254: 01 45        	li	a0, 0x0
   1a256: 49 61        	addi	sp, sp, 0x90
   1a258: 82 80        	ret
   1a25a: aa 60        	ld	ra, 0x88(sp)
   1a25c: 0a 64        	ld	s0, 0x80(sp)
   1a25e: 23 20 f9 00  	sw	a5, 0x0(s2)
   1a262: 13 07 00 40  	li	a4, 0x400
   1a266: 98 e0        	sd	a4, 0x0(s1)
   1a268: 46 79        	ld	s2, 0x70(sp)
   1a26a: e6 74        	ld	s1, 0x78(sp)
   1a26c: 01 45        	li	a0, 0x0
   1a26e: 49 61        	addi	sp, sp, 0x90
   1a270: 82 80        	ret

000000000001a272 <__fputwc>:
   1a272: 1d 71        	addi	sp, sp, -0x60
   1a274: a2 e8        	sd	s0, 0x50(sp)
   1a276: 52 f8        	sd	s4, 0x30(sp)
   1a278: 56 f4        	sd	s5, 0x28(sp)
   1a27a: 86 ec        	sd	ra, 0x58(sp)
   1a27c: a6 e4        	sd	s1, 0x48(sp)
   1a27e: 4e fc        	sd	s3, 0x38(sp)
   1a280: 2a 8a        	mv	s4, a0
   1a282: ae 8a        	mv	s5, a1
   1a284: 32 84        	mv	s0, a2
   1a286: ef 10 c0 0a  	jal	0x1b332 <__locale_mb_cur_max>
   1a28a: 85 47        	li	a5, 0x1
   1a28c: 63 10 f5 02  	bne	a0, a5, 0x1a2ac <__fputwc+0x3a>
   1a290: 9b 87 fa ff  	addiw	a5, s5, -0x1
   1a294: 13 07 e0 0f  	li	a4, 0xfe
   1a298: 63 6a f7 00  	bltu	a4, a5, 0x1a2ac <__fputwc+0x3a>
   1a29c: ca e0        	sd	s2, 0x40(sp)
   1a29e: 5a f0        	sd	s6, 0x20(sp)
   1a2a0: 5e ec        	sd	s7, 0x18(sp)
   1a2a2: 23 04 51 01  	sb	s5, 0x8(sp)
   1a2a6: 85 49        	li	s3, 0x1
   1a2a8: 24 00        	addi	s1, sp, 0x8
   1a2aa: 0d a0        	j	0x1a2cc <__fputwc+0x5a>
   1a2ac: 24 00        	addi	s1, sp, 0x8
   1a2ae: 93 06 84 0a  	addi	a3, s0, 0xa8
   1a2b2: 56 86        	mv	a2, s5
   1a2b4: a6 85        	mv	a1, s1
   1a2b6: 52 85        	mv	a0, s4
   1a2b8: ef d0 1f a2  	jal	0x17cd8 <_wcrtomb_r>
   1a2bc: fd 57        	li	a5, -0x1
   1a2be: aa 89        	mv	s3, a0
   1a2c0: 63 00 f5 08  	beq	a0, a5, 0x1a340 <__fputwc+0xce>
   1a2c4: 25 c5        	beqz	a0, 0x1a32c <__fputwc+0xba>
   1a2c6: ca e0        	sd	s2, 0x40(sp)
   1a2c8: 5a f0        	sd	s6, 0x20(sp)
   1a2ca: 5e ec        	sd	s7, 0x18(sp)
   1a2cc: 01 49        	li	s2, 0x0
   1a2ce: 7d 5b        	li	s6, -0x1
   1a2d0: a9 4b        	li	s7, 0xa
   1a2d2: 19 a8        	j	0x1a2e8 <__fputwc+0x76>
   1a2d4: 1c 60        	ld	a5, 0x0(s0)
   1a2d6: 93 86 17 00  	addi	a3, a5, 0x1
   1a2da: 14 e0        	sd	a3, 0x0(s0)
   1a2dc: 23 80 e7 00  	sb	a4, 0x0(a5)
   1a2e0: 05 09        	addi	s2, s2, 0x1
   1a2e2: 85 04        	addi	s1, s1, 0x1
   1a2e4: 63 71 39 05  	bgeu	s2, s3, 0x1a326 <__fputwc+0xb4>
   1a2e8: 5c 44        	lw	a5, 0xc(s0)
   1a2ea: 03 c7 04 00  	lbu	a4, 0x0(s1)
   1a2ee: fd 37        	addiw	a5, a5, -0x1
   1a2f0: 5c c4        	sw	a5, 0xc(s0)
   1a2f2: e3 d1 07 fe  	bgez	a5, 0x1a2d4 <__fputwc+0x62>
   1a2f6: 14 54        	lw	a3, 0x28(s0)
   1a2f8: 22 86        	mv	a2, s0
   1a2fa: ba 85        	mv	a1, a4
   1a2fc: 52 85        	mv	a0, s4
   1a2fe: 63 c4 d7 00  	blt	a5, a3, 0x1a306 <__fputwc+0x94>
   1a302: e3 19 77 fd  	bne	a4, s7, 0x1a2d4 <__fputwc+0x62>
   1a306: ef f0 1f be  	jal	0x19ee6 <__swbuf_r>
   1a30a: e3 1b 65 fd  	bne	a0, s6, 0x1a2e0 <__fputwc+0x6e>
   1a30e: 06 69        	ld	s2, 0x40(sp)
   1a310: 02 7b        	ld	s6, 0x20(sp)
   1a312: e2 6b        	ld	s7, 0x18(sp)
   1a314: e6 60        	ld	ra, 0x58(sp)
   1a316: 46 64        	ld	s0, 0x50(sp)
   1a318: a6 64        	ld	s1, 0x48(sp)
   1a31a: e2 79        	ld	s3, 0x38(sp)
   1a31c: 42 7a        	ld	s4, 0x30(sp)
   1a31e: a2 7a        	ld	s5, 0x28(sp)
   1a320: 7d 55        	li	a0, -0x1
   1a322: 25 61        	addi	sp, sp, 0x60
   1a324: 82 80        	ret
   1a326: 06 69        	ld	s2, 0x40(sp)
   1a328: 02 7b        	ld	s6, 0x20(sp)
   1a32a: e2 6b        	ld	s7, 0x18(sp)
   1a32c: e6 60        	ld	ra, 0x58(sp)
   1a32e: 46 64        	ld	s0, 0x50(sp)
   1a330: a6 64        	ld	s1, 0x48(sp)
   1a332: e2 79        	ld	s3, 0x38(sp)
   1a334: 42 7a        	ld	s4, 0x30(sp)
   1a336: 1b 85 0a 00  	sext.w	a0, s5
   1a33a: a2 7a        	ld	s5, 0x28(sp)
   1a33c: 25 61        	addi	sp, sp, 0x60
   1a33e: 82 80        	ret
   1a340: 83 57 04 01  	lhu	a5, 0x10(s0)
   1a344: 93 e7 07 04  	ori	a5, a5, 0x40
   1a348: 23 18 f4 00  	sh	a5, 0x10(s0)
   1a34c: e1 b7        	j	0x1a314 <__fputwc+0xa2>

000000000001a34e <_fputwc_r>:
   1a34e: 83 27 06 0b  	lw	a5, 0xb0(a2)
   1a352: 79 71        	addi	sp, sp, -0x30
   1a354: 22 f0        	sd	s0, 0x20(sp)
   1a356: 26 ec        	sd	s1, 0x18(sp)
   1a358: 13 f7 17 00  	andi	a4, a5, 0x1
   1a35c: 06 f4        	sd	ra, 0x28(sp)
   1a35e: 83 17 06 01  	lh	a5, 0x10(a2)
   1a362: 32 84        	mv	s0, a2
   1a364: aa 84        	mv	s1, a0
   1a366: 01 e7        	bnez	a4, 0x1a36e <_fputwc_r+0x20>
   1a368: 13 f7 07 20  	andi	a4, a5, 0x200
   1a36c: 29 cf        	beqz	a4, 0x1a3c6 <_fputwc_r+0x78>
   1a36e: 13 97 27 03  	slli	a4, a5, 0x32
   1a372: 63 4c 07 00  	bltz	a4, 0x1a38a <_fputwc_r+0x3c>
   1a376: 03 27 04 0b  	lw	a4, 0xb0(s0)
   1a37a: 89 66        	lui	a3, 0x2
   1a37c: d5 8f        	or	a5, a5, a3
   1a37e: 89 66        	lui	a3, 0x2
   1a380: 55 8f        	or	a4, a4, a3
   1a382: 23 18 f4 00  	sh	a5, 0x10(s0)
   1a386: 23 28 e4 0a  	sw	a4, 0xb0(s0)
   1a38a: 26 85        	mv	a0, s1
   1a38c: 22 86        	mv	a2, s0
   1a38e: ef f0 5f ee  	jal	0x1a272 <__fputwc>
   1a392: 83 27 04 0b  	lw	a5, 0xb0(s0)
   1a396: 9b 04 05 00  	sext.w	s1, a0
   1a39a: 85 8b        	andi	a5, a5, 0x1
   1a39c: 91 e7        	bnez	a5, 0x1a3a8 <_fputwc_r+0x5a>
   1a39e: 83 57 04 01  	lhu	a5, 0x10(s0)
   1a3a2: 93 f7 07 20  	andi	a5, a5, 0x200
   1a3a6: 99 c7        	beqz	a5, 0x1a3b4 <_fputwc_r+0x66>
   1a3a8: a2 70        	ld	ra, 0x28(sp)
   1a3aa: 02 74        	ld	s0, 0x20(sp)
   1a3ac: 26 85        	mv	a0, s1
   1a3ae: e2 64        	ld	s1, 0x18(sp)
   1a3b0: 45 61        	addi	sp, sp, 0x30
   1a3b2: 82 80        	ret
   1a3b4: 48 70        	ld	a0, 0xa0(s0)
   1a3b6: ef 20 c0 1d  	jal	0x1c592 <__retarget_lock_release_recursive>
   1a3ba: a2 70        	ld	ra, 0x28(sp)
   1a3bc: 02 74        	ld	s0, 0x20(sp)
   1a3be: 26 85        	mv	a0, s1
   1a3c0: e2 64        	ld	s1, 0x18(sp)
   1a3c2: 45 61        	addi	sp, sp, 0x30
   1a3c4: 82 80        	ret
   1a3c6: 48 72        	ld	a0, 0xa0(a2)
   1a3c8: 2e e4        	sd	a1, 0x8(sp)
   1a3ca: ef 20 c0 1b  	jal	0x1c586 <__retarget_lock_acquire_recursive>
   1a3ce: 83 17 04 01  	lh	a5, 0x10(s0)
   1a3d2: a2 65        	ld	a1, 0x8(sp)
   1a3d4: 69 bf        	j	0x1a36e <_fputwc_r+0x20>

000000000001a3d6 <fputwc>:
   1a3d6: 79 71        	addi	sp, sp, -0x30
   1a3d8: 22 f0        	sd	s0, 0x20(sp)
   1a3da: 26 ec        	sd	s1, 0x18(sp)
   1a3dc: 06 f4        	sd	ra, 0x28(sp)
   1a3de: 97 54 00 00  	auipc	s1, 0x5
   1a3e2: 83 b4 a4 79  	ld	s1, 0x79a(s1)
   1a3e6: 2e 84        	mv	s0, a1
   1a3e8: aa 85        	mv	a1, a0
   1a3ea: 99 c0        	beqz	s1, 0x1a3f0 <fputwc+0x1a>
   1a3ec: bc 64        	ld	a5, 0x48(s1)
   1a3ee: b5 cf        	beqz	a5, 0x1a46a <fputwc+0x94>
   1a3f0: 03 27 04 0b  	lw	a4, 0xb0(s0)
   1a3f4: 83 17 04 01  	lh	a5, 0x10(s0)
   1a3f8: 05 8b        	andi	a4, a4, 0x1
   1a3fa: 01 e7        	bnez	a4, 0x1a402 <fputwc+0x2c>
   1a3fc: 13 f7 07 20  	andi	a4, a5, 0x200
   1a400: 29 cf        	beqz	a4, 0x1a45a <fputwc+0x84>
   1a402: 13 97 27 03  	slli	a4, a5, 0x32
   1a406: 63 4c 07 00  	bltz	a4, 0x1a41e <fputwc+0x48>
   1a40a: 03 27 04 0b  	lw	a4, 0xb0(s0)
   1a40e: 89 66        	lui	a3, 0x2
   1a410: d5 8f        	or	a5, a5, a3
   1a412: 89 66        	lui	a3, 0x2
   1a414: 55 8f        	or	a4, a4, a3
   1a416: 23 18 f4 00  	sh	a5, 0x10(s0)
   1a41a: 23 28 e4 0a  	sw	a4, 0xb0(s0)
   1a41e: 26 85        	mv	a0, s1
   1a420: 22 86        	mv	a2, s0
   1a422: ef f0 1f e5  	jal	0x1a272 <__fputwc>
   1a426: 83 27 04 0b  	lw	a5, 0xb0(s0)
   1a42a: 9b 04 05 00  	sext.w	s1, a0
   1a42e: 85 8b        	andi	a5, a5, 0x1
   1a430: 91 e7        	bnez	a5, 0x1a43c <fputwc+0x66>
   1a432: 83 57 04 01  	lhu	a5, 0x10(s0)
   1a436: 93 f7 07 20  	andi	a5, a5, 0x200
   1a43a: 99 c7        	beqz	a5, 0x1a448 <fputwc+0x72>
   1a43c: a2 70        	ld	ra, 0x28(sp)
   1a43e: 02 74        	ld	s0, 0x20(sp)
   1a440: 26 85        	mv	a0, s1
   1a442: e2 64        	ld	s1, 0x18(sp)
   1a444: 45 61        	addi	sp, sp, 0x30
   1a446: 82 80        	ret
   1a448: 48 70        	ld	a0, 0xa0(s0)
   1a44a: ef 20 80 14  	jal	0x1c592 <__retarget_lock_release_recursive>
   1a44e: a2 70        	ld	ra, 0x28(sp)
   1a450: 02 74        	ld	s0, 0x20(sp)
   1a452: 26 85        	mv	a0, s1
   1a454: e2 64        	ld	s1, 0x18(sp)
   1a456: 45 61        	addi	sp, sp, 0x30
   1a458: 82 80        	ret
   1a45a: 48 70        	ld	a0, 0xa0(s0)
   1a45c: 2e e4        	sd	a1, 0x8(sp)
   1a45e: ef 20 80 12  	jal	0x1c586 <__retarget_lock_acquire_recursive>
   1a462: 83 17 04 01  	lh	a5, 0x10(s0)
   1a466: a2 65        	ld	a1, 0x8(sp)
   1a468: 69 bf        	j	0x1a402 <fputwc+0x2c>
   1a46a: 2a e4        	sd	a0, 0x8(sp)
   1a46c: 26 85        	mv	a0, s1
   1a46e: ef 90 6f 9a  	jal	0x13614 <__sinit>
   1a472: a2 65        	ld	a1, 0x8(sp)
   1a474: b5 bf        	j	0x1a3f0 <fputwc+0x1a>

000000000001a476 <memchr>:
   1a476: 93 77 75 00  	andi	a5, a0, 0x7
   1a47a: 93 f6 f5 0f  	andi	a3, a1, 0xff
   1a47e: 95 c3        	beqz	a5, 0x1a4a2 <memchr+0x2c>
   1a480: 93 07 f6 ff  	addi	a5, a2, -0x1
   1a484: 05 c6        	beqz	a2, 0x1a4ac <memchr+0x36>
   1a486: 7d 56        	li	a2, -0x1
   1a488: 01 a8        	j	0x1a498 <memchr+0x22>
   1a48a: 05 05        	addi	a0, a0, 0x1
   1a48c: 13 77 75 00  	andi	a4, a0, 0x7
   1a490: 11 cb        	beqz	a4, 0x1a4a4 <memchr+0x2e>
   1a492: fd 17        	addi	a5, a5, -0x1
   1a494: 63 8c c7 00  	beq	a5, a2, 0x1a4ac <memchr+0x36>
   1a498: 03 47 05 00  	lbu	a4, 0x0(a0)
   1a49c: e3 17 d7 fe  	bne	a4, a3, 0x1a48a <memchr+0x14>
   1a4a0: 82 80        	ret
   1a4a2: b2 87        	mv	a5, a2
   1a4a4: 1d 47        	li	a4, 0x7
   1a4a6: 63 65 f7 00  	bltu	a4, a5, 0x1a4b0 <memchr+0x3a>
   1a4aa: bd e3        	bnez	a5, 0x1a510 <memchr+0x9a>
   1a4ac: 01 45        	li	a0, 0x0
   1a4ae: 82 80        	ret
   1a4b0: 93 f5 f5 0f  	andi	a1, a1, 0xff
   1a4b4: 37 18 10 f0  	lui	a6, 0xf0101
   1a4b8: 13 97 85 00  	slli	a4, a1, 0x8
   1a4bc: b7 08 ff fe  	lui	a7, 0xfeff0
   1a4c0: 12 08        	slli	a6, a6, 0x4
   1a4c2: 2e 97        	add	a4, a4, a1
   1a4c4: 93 88 f8 ef  	addi	a7, a7, -0x101
   1a4c8: 13 08 18 10  	addi	a6, a6, 0x101
   1a4cc: 93 15 07 01  	slli	a1, a4, 0x10
   1a4d0: c2 08        	slli	a7, a7, 0x10
   1a4d2: 42 08        	slli	a6, a6, 0x10
   1a4d4: ba 95        	add	a1, a1, a4
   1a4d6: 93 88 f8 ef  	addi	a7, a7, -0x101
   1a4da: 13 08 18 10  	addi	a6, a6, 0x101
   1a4de: 13 97 05 02  	slli	a4, a1, 0x20
   1a4e2: c2 08        	slli	a7, a7, 0x10
   1a4e4: 3e 08        	slli	a6, a6, 0xf
   1a4e6: ba 95        	add	a1, a1, a4
   1a4e8: 93 88 f8 ef  	addi	a7, a7, -0x101
   1a4ec: 13 08 08 08  	addi	a6, a6, 0x80
   1a4f0: 1d 43        	li	t1, 0x7
   1a4f2: 29 a0        	j	0x1a4fc <memchr+0x86>
   1a4f4: e1 17        	addi	a5, a5, -0x8
   1a4f6: 21 05        	addi	a0, a0, 0x8
   1a4f8: e3 79 f3 fa  	bgeu	t1, a5, 0x1a4aa <memchr+0x34>
   1a4fc: 18 61        	ld	a4, 0x0(a0)
   1a4fe: 2d 8f        	xor	a4, a4, a1
   1a500: 33 06 17 01  	add	a2, a4, a7
   1a504: 13 47 f7 ff  	not	a4, a4
   1a508: 71 8f        	and	a4, a4, a2
   1a50a: 33 77 07 01  	and	a4, a4, a6
   1a50e: 7d d3        	beqz	a4, 0x1a4f4 <memchr+0x7e>
   1a510: aa 97        	add	a5, a5, a0
   1a512: 21 a0        	j	0x1a51a <memchr+0xa4>
   1a514: 05 05        	addi	a0, a0, 0x1
   1a516: e3 8b a7 f8  	beq	a5, a0, 0x1a4ac <memchr+0x36>
   1a51a: 03 47 05 00  	lbu	a4, 0x0(a0)
   1a51e: e3 1b d7 fe  	bne	a4, a3, 0x1a514 <memchr+0x9e>
   1a522: 82 80        	ret

000000000001a524 <strncpy>:
   1a524: b3 e7 a5 00  	or	a5, a1, a0
   1a528: 9d 8b        	andi	a5, a5, 0x7
   1a52a: 81 e7        	bnez	a5, 0x1a532 <strncpy+0xe>
   1a52c: 9d 47        	li	a5, 0x7
   1a52e: 63 eb c7 02  	bltu	a5, a2, 0x1a564 <strncpy+0x40>
   1a532: 2a 87        	mv	a4, a0
   1a534: 11 a8        	j	0x1a548 <strncpy+0x24>
   1a536: 83 c6 f5 ff  	lbu	a3, -0x1(a1)
   1a53a: 13 08 f6 ff  	addi	a6, a2, -0x1
   1a53e: a3 8f d7 fe  	sb	a3, -0x1(a5)
   1a542: 81 ca        	beqz	a3, 0x1a552 <strncpy+0x2e>
   1a544: 3e 87        	mv	a4, a5
   1a546: 42 86        	mv	a2, a6
   1a548: 85 05        	addi	a1, a1, 0x1
   1a54a: 93 07 17 00  	addi	a5, a4, 0x1
   1a54e: 65 f6        	bnez	a2, 0x1a536 <strncpy+0x12>
   1a550: 82 80        	ret
   1a552: 32 97        	add	a4, a4, a2
   1a554: 63 01 08 06  	beqz	a6, 0x1a5b6 <strncpy+0x92>
   1a558: 85 07        	addi	a5, a5, 0x1
   1a55a: a3 8f 07 fe  	sb	zero, -0x1(a5)
   1a55e: e3 9d e7 fe  	bne	a5, a4, 0x1a558 <strncpy+0x34>
   1a562: 82 80        	ret
   1a564: 37 18 10 f0  	lui	a6, 0xf0101
   1a568: b7 08 ff fe  	lui	a7, 0xfeff0
   1a56c: 12 08        	slli	a6, a6, 0x4
   1a56e: 93 88 f8 ef  	addi	a7, a7, -0x101
   1a572: 13 08 18 10  	addi	a6, a6, 0x101
   1a576: c2 08        	slli	a7, a7, 0x10
   1a578: 42 08        	slli	a6, a6, 0x10
   1a57a: 93 88 f8 ef  	addi	a7, a7, -0x101
   1a57e: 13 08 18 10  	addi	a6, a6, 0x101
   1a582: c2 08        	slli	a7, a7, 0x10
   1a584: 3e 08        	slli	a6, a6, 0xf
   1a586: 2a 87        	mv	a4, a0
   1a588: 93 88 f8 ef  	addi	a7, a7, -0x101
   1a58c: 13 08 08 08  	addi	a6, a6, 0x80
   1a590: 1d 4e        	li	t3, 0x7
   1a592: 39 a0        	j	0x1a5a0 <strncpy+0x7c>
   1a594: 14 e3        	sd	a3, 0x0(a4)
   1a596: 61 16        	addi	a2, a2, -0x8
   1a598: 21 07        	addi	a4, a4, 0x8
   1a59a: a1 05        	addi	a1, a1, 0x8
   1a59c: e3 76 ce fa  	bgeu	t3, a2, 0x1a548 <strncpy+0x24>
   1a5a0: 94 61        	ld	a3, 0x0(a1)
   1a5a2: b3 87 16 01  	add	a5, a3, a7
   1a5a6: 13 c3 f6 ff  	not	t1, a3
   1a5aa: b3 f7 67 00  	and	a5, a5, t1
   1a5ae: b3 f7 07 01  	and	a5, a5, a6
   1a5b2: ed d3        	beqz	a5, 0x1a594 <strncpy+0x70>
   1a5b4: 51 bf        	j	0x1a548 <strncpy+0x24>
   1a5b6: 82 80        	ret

000000000001a5b8 <_init_signal_r>:
   1a5b8: 83 37 05 15  	ld	a5, 0x150(a0)
   1a5bc: 99 c3        	beqz	a5, 0x1a5c2 <_init_signal_r+0xa>
   1a5be: 01 45        	li	a0, 0x0
   1a5c0: 82 80        	ret
   1a5c2: 41 11        	addi	sp, sp, -0x10
   1a5c4: 93 05 00 10  	li	a1, 0x100
   1a5c8: 22 e0        	sd	s0, 0x0(sp)
   1a5ca: 06 e4        	sd	ra, 0x8(sp)
   1a5cc: 2a 84        	mv	s0, a0
   1a5ce: ef 90 2f fe  	jal	0x13db0 <_malloc_r>
   1a5d2: 23 38 a4 14  	sd	a0, 0x150(s0)
   1a5d6: 09 cd        	beqz	a0, 0x1a5f0 <_init_signal_r+0x38>
   1a5d8: 93 07 05 10  	addi	a5, a0, 0x100
   1a5dc: 23 30 05 00  	sd	zero, 0x0(a0)
   1a5e0: 21 05        	addi	a0, a0, 0x8
   1a5e2: e3 1d f5 fe  	bne	a0, a5, 0x1a5dc <_init_signal_r+0x24>
   1a5e6: 01 45        	li	a0, 0x0
   1a5e8: a2 60        	ld	ra, 0x8(sp)
   1a5ea: 02 64        	ld	s0, 0x0(sp)
   1a5ec: 41 01        	addi	sp, sp, 0x10
   1a5ee: 82 80        	ret
   1a5f0: 7d 55        	li	a0, -0x1
   1a5f2: dd bf        	j	0x1a5e8 <_init_signal_r+0x30>

000000000001a5f4 <_signal_r>:
   1a5f4: 79 71        	addi	sp, sp, -0x30
   1a5f6: 26 ec        	sd	s1, 0x18(sp)
   1a5f8: 06 f4        	sd	ra, 0x28(sp)
   1a5fa: fd 47        	li	a5, 0x1f
   1a5fc: aa 84        	mv	s1, a0
   1a5fe: 63 e0 b7 02  	bltu	a5, a1, 0x1a61e <_signal_r+0x2a>
   1a602: 83 37 05 15  	ld	a5, 0x150(a0)
   1a606: 22 f0        	sd	s0, 0x20(sp)
   1a608: 2e 84        	mv	s0, a1
   1a60a: 91 cf        	beqz	a5, 0x1a626 <_signal_r+0x32>
   1a60c: 0e 04        	slli	s0, s0, 0x3
   1a60e: a2 97        	add	a5, a5, s0
   1a610: 02 74        	ld	s0, 0x20(sp)
   1a612: 88 63        	ld	a0, 0x0(a5)
   1a614: 90 e3        	sd	a2, 0x0(a5)
   1a616: a2 70        	ld	ra, 0x28(sp)
   1a618: e2 64        	ld	s1, 0x18(sp)
   1a61a: 45 61        	addi	sp, sp, 0x30
   1a61c: 82 80        	ret
   1a61e: d9 47        	li	a5, 0x16
   1a620: 1c c1        	sw	a5, 0x0(a0)
   1a622: 7d 55        	li	a0, -0x1
   1a624: cd bf        	j	0x1a616 <_signal_r+0x22>
   1a626: 93 05 00 10  	li	a1, 0x100
   1a62a: 32 e4        	sd	a2, 0x8(sp)
   1a62c: ef 90 4f f8  	jal	0x13db0 <_malloc_r>
   1a630: 23 b8 a4 14  	sd	a0, 0x150(s1)
   1a634: 22 66        	ld	a2, 0x8(sp)
   1a636: aa 87        	mv	a5, a0
   1a638: 2a 87        	mv	a4, a0
   1a63a: 93 06 05 10  	addi	a3, a0, 0x100
   1a63e: 19 c5        	beqz	a0, 0x1a64c <_signal_r+0x58>
   1a640: 23 30 07 00  	sd	zero, 0x0(a4)
   1a644: 21 07        	addi	a4, a4, 0x8
   1a646: e3 1d d7 fe  	bne	a4, a3, 0x1a640 <_signal_r+0x4c>
   1a64a: c9 b7        	j	0x1a60c <_signal_r+0x18>
   1a64c: 02 74        	ld	s0, 0x20(sp)
   1a64e: 7d 55        	li	a0, -0x1
   1a650: d9 b7        	j	0x1a616 <_signal_r+0x22>

000000000001a652 <_raise_r>:
   1a652: 01 11        	addi	sp, sp, -0x20
   1a654: 26 e4        	sd	s1, 0x8(sp)
   1a656: 06 ec        	sd	ra, 0x18(sp)
   1a658: fd 47        	li	a5, 0x1f
   1a65a: aa 84        	mv	s1, a0
   1a65c: 63 e0 b7 06  	bltu	a5, a1, 0x1a6bc <_raise_r+0x6a>
   1a660: 83 37 05 15  	ld	a5, 0x150(a0)
   1a664: 22 e8        	sd	s0, 0x10(sp)
   1a666: 2e 84        	mv	s0, a1
   1a668: 95 c7        	beqz	a5, 0x1a694 <_raise_r+0x42>
   1a66a: 13 97 35 00  	slli	a4, a1, 0x3
   1a66e: ba 97        	add	a5, a5, a4
   1a670: 98 63        	ld	a4, 0x0(a5)
   1a672: 0d c3        	beqz	a4, 0x1a694 <_raise_r+0x42>
   1a674: 85 46        	li	a3, 0x1
   1a676: 63 09 d7 00  	beq	a4, a3, 0x1a688 <_raise_r+0x36>
   1a67a: fd 56        	li	a3, -0x1
   1a67c: 63 08 d7 02  	beq	a4, a3, 0x1a6ac <_raise_r+0x5a>
   1a680: 23 b0 07 00  	sd	zero, 0x0(a5)
   1a684: 2e 85        	mv	a0, a1
   1a686: 02 97        	jalr	a4
   1a688: 42 64        	ld	s0, 0x10(sp)
   1a68a: 01 45        	li	a0, 0x0
   1a68c: e2 60        	ld	ra, 0x18(sp)
   1a68e: a2 64        	ld	s1, 0x8(sp)
   1a690: 05 61        	addi	sp, sp, 0x20
   1a692: 82 80        	ret
   1a694: 26 85        	mv	a0, s1
   1a696: ef 10 30 5c  	jal	0x1c458 <_getpid_r>
   1a69a: 22 86        	mv	a2, s0
   1a69c: 42 64        	ld	s0, 0x10(sp)
   1a69e: e2 60        	ld	ra, 0x18(sp)
   1a6a0: aa 85        	mv	a1, a0
   1a6a2: 26 85        	mv	a0, s1
   1a6a4: a2 64        	ld	s1, 0x8(sp)
   1a6a6: 05 61        	addi	sp, sp, 0x20
   1a6a8: 6f 10 50 57  	j	0x1c41c <_kill_r>
   1a6ac: 42 64        	ld	s0, 0x10(sp)
   1a6ae: e2 60        	ld	ra, 0x18(sp)
   1a6b0: d9 47        	li	a5, 0x16
   1a6b2: 1c c1        	sw	a5, 0x0(a0)
   1a6b4: a2 64        	ld	s1, 0x8(sp)
   1a6b6: 05 45        	li	a0, 0x1
   1a6b8: 05 61        	addi	sp, sp, 0x20
   1a6ba: 82 80        	ret
   1a6bc: d9 47        	li	a5, 0x16
   1a6be: 1c c1        	sw	a5, 0x0(a0)
   1a6c0: 7d 55        	li	a0, -0x1
   1a6c2: e9 b7        	j	0x1a68c <_raise_r+0x3a>

000000000001a6c4 <__sigtramp_r>:
   1a6c4: fd 47        	li	a5, 0x1f
   1a6c6: 63 e1 b7 08  	bltu	a5, a1, 0x1a748 <__sigtramp_r+0x84>
   1a6ca: 83 37 05 15  	ld	a5, 0x150(a0)
   1a6ce: 01 11        	addi	sp, sp, -0x20
   1a6d0: 22 e8        	sd	s0, 0x10(sp)
   1a6d2: 26 e4        	sd	s1, 0x8(sp)
   1a6d4: 06 ec        	sd	ra, 0x18(sp)
   1a6d6: 2e 84        	mv	s0, a1
   1a6d8: aa 84        	mv	s1, a0
   1a6da: a1 c7        	beqz	a5, 0x1a722 <__sigtramp_r+0x5e>
   1a6dc: 13 17 34 00  	slli	a4, s0, 0x3
   1a6e0: ba 97        	add	a5, a5, a4
   1a6e2: 98 63        	ld	a4, 0x0(a5)
   1a6e4: 0d c3        	beqz	a4, 0x1a706 <__sigtramp_r+0x42>
   1a6e6: fd 56        	li	a3, -0x1
   1a6e8: 63 0b d7 02  	beq	a4, a3, 0x1a71e <__sigtramp_r+0x5a>
   1a6ec: 85 46        	li	a3, 0x1
   1a6ee: 63 02 d7 02  	beq	a4, a3, 0x1a712 <__sigtramp_r+0x4e>
   1a6f2: 22 85        	mv	a0, s0
   1a6f4: 23 b0 07 00  	sd	zero, 0x0(a5)
   1a6f8: 02 97        	jalr	a4
   1a6fa: 01 45        	li	a0, 0x0
   1a6fc: e2 60        	ld	ra, 0x18(sp)
   1a6fe: 42 64        	ld	s0, 0x10(sp)
   1a700: a2 64        	ld	s1, 0x8(sp)
   1a702: 05 61        	addi	sp, sp, 0x20
   1a704: 82 80        	ret
   1a706: e2 60        	ld	ra, 0x18(sp)
   1a708: 42 64        	ld	s0, 0x10(sp)
   1a70a: a2 64        	ld	s1, 0x8(sp)
   1a70c: 05 45        	li	a0, 0x1
   1a70e: 05 61        	addi	sp, sp, 0x20
   1a710: 82 80        	ret
   1a712: e2 60        	ld	ra, 0x18(sp)
   1a714: 42 64        	ld	s0, 0x10(sp)
   1a716: a2 64        	ld	s1, 0x8(sp)
   1a718: 0d 45        	li	a0, 0x3
   1a71a: 05 61        	addi	sp, sp, 0x20
   1a71c: 82 80        	ret
   1a71e: 09 45        	li	a0, 0x2
   1a720: f1 bf        	j	0x1a6fc <__sigtramp_r+0x38>
   1a722: 93 05 00 10  	li	a1, 0x100
   1a726: ef 90 af e8  	jal	0x13db0 <_malloc_r>
   1a72a: 23 b8 a4 14  	sd	a0, 0x150(s1)
   1a72e: aa 87        	mv	a5, a0
   1a730: 11 c9        	beqz	a0, 0x1a744 <__sigtramp_r+0x80>
   1a732: 2a 87        	mv	a4, a0
   1a734: 93 06 05 10  	addi	a3, a0, 0x100
   1a738: 23 30 07 00  	sd	zero, 0x0(a4)
   1a73c: 21 07        	addi	a4, a4, 0x8
   1a73e: e3 1d d7 fe  	bne	a4, a3, 0x1a738 <__sigtramp_r+0x74>
   1a742: 69 bf        	j	0x1a6dc <__sigtramp_r+0x18>
   1a744: 7d 55        	li	a0, -0x1
   1a746: 5d bf        	j	0x1a6fc <__sigtramp_r+0x38>
   1a748: 7d 55        	li	a0, -0x1
   1a74a: 82 80        	ret

000000000001a74c <raise>:
   1a74c: 01 11        	addi	sp, sp, -0x20
   1a74e: 26 e4        	sd	s1, 0x8(sp)
   1a750: 06 ec        	sd	ra, 0x18(sp)
   1a752: fd 47        	li	a5, 0x1f
   1a754: 97 54 00 00  	auipc	s1, 0x5
   1a758: 83 b4 44 42  	ld	s1, 0x424(s1)
   1a75c: 63 ef a7 04  	bltu	a5, a0, 0x1a7ba <raise+0x6e>
   1a760: 83 b7 04 15  	ld	a5, 0x150(s1)
   1a764: 22 e8        	sd	s0, 0x10(sp)
   1a766: 2a 84        	mv	s0, a0
   1a768: 8d c7        	beqz	a5, 0x1a792 <raise+0x46>
   1a76a: 13 17 35 00  	slli	a4, a0, 0x3
   1a76e: ba 97        	add	a5, a5, a4
   1a770: 98 63        	ld	a4, 0x0(a5)
   1a772: 05 c3        	beqz	a4, 0x1a792 <raise+0x46>
   1a774: 85 46        	li	a3, 0x1
   1a776: 63 08 d7 00  	beq	a4, a3, 0x1a786 <raise+0x3a>
   1a77a: fd 56        	li	a3, -0x1
   1a77c: 63 07 d7 02  	beq	a4, a3, 0x1a7aa <raise+0x5e>
   1a780: 23 b0 07 00  	sd	zero, 0x0(a5)
   1a784: 02 97        	jalr	a4
   1a786: 42 64        	ld	s0, 0x10(sp)
   1a788: 01 45        	li	a0, 0x0
   1a78a: e2 60        	ld	ra, 0x18(sp)
   1a78c: a2 64        	ld	s1, 0x8(sp)
   1a78e: 05 61        	addi	sp, sp, 0x20
   1a790: 82 80        	ret
   1a792: 26 85        	mv	a0, s1
   1a794: ef 10 50 4c  	jal	0x1c458 <_getpid_r>
   1a798: 22 86        	mv	a2, s0
   1a79a: 42 64        	ld	s0, 0x10(sp)
   1a79c: e2 60        	ld	ra, 0x18(sp)
   1a79e: aa 85        	mv	a1, a0
   1a7a0: 26 85        	mv	a0, s1
   1a7a2: a2 64        	ld	s1, 0x8(sp)
   1a7a4: 05 61        	addi	sp, sp, 0x20
   1a7a6: 6f 10 70 47  	j	0x1c41c <_kill_r>
   1a7aa: 42 64        	ld	s0, 0x10(sp)
   1a7ac: e2 60        	ld	ra, 0x18(sp)
   1a7ae: d9 47        	li	a5, 0x16
   1a7b0: 9c c0        	sw	a5, 0x0(s1)
   1a7b2: 05 45        	li	a0, 0x1
   1a7b4: a2 64        	ld	s1, 0x8(sp)
   1a7b6: 05 61        	addi	sp, sp, 0x20
   1a7b8: 82 80        	ret
   1a7ba: d9 47        	li	a5, 0x16
   1a7bc: 9c c0        	sw	a5, 0x0(s1)
   1a7be: 7d 55        	li	a0, -0x1
   1a7c0: e9 b7        	j	0x1a78a <raise+0x3e>

000000000001a7c2 <signal>:
   1a7c2: 01 11        	addi	sp, sp, -0x20
   1a7c4: 4a e0        	sd	s2, 0x0(sp)
   1a7c6: 06 ec        	sd	ra, 0x18(sp)
   1a7c8: fd 47        	li	a5, 0x1f
   1a7ca: 17 59 00 00  	auipc	s2, 0x5
   1a7ce: 03 39 e9 3a  	ld	s2, 0x3ae(s2)
   1a7d2: 63 e4 a7 02  	bltu	a5, a0, 0x1a7fa <signal+0x38>
   1a7d6: 22 e8        	sd	s0, 0x10(sp)
   1a7d8: 2a 84        	mv	s0, a0
   1a7da: 03 35 09 15  	ld	a0, 0x150(s2)
   1a7de: 26 e4        	sd	s1, 0x8(sp)
   1a7e0: ae 84        	mv	s1, a1
   1a7e2: 0d c1        	beqz	a0, 0x1a804 <signal+0x42>
   1a7e4: 0e 04        	slli	s0, s0, 0x3
   1a7e6: b3 07 85 00  	add	a5, a0, s0
   1a7ea: 88 63        	ld	a0, 0x0(a5)
   1a7ec: 42 64        	ld	s0, 0x10(sp)
   1a7ee: 84 e3        	sd	s1, 0x0(a5)
   1a7f0: a2 64        	ld	s1, 0x8(sp)
   1a7f2: e2 60        	ld	ra, 0x18(sp)
   1a7f4: 02 69        	ld	s2, 0x0(sp)
   1a7f6: 05 61        	addi	sp, sp, 0x20
   1a7f8: 82 80        	ret
   1a7fa: d9 47        	li	a5, 0x16
   1a7fc: 23 20 f9 00  	sw	a5, 0x0(s2)
   1a800: 7d 55        	li	a0, -0x1
   1a802: c5 bf        	j	0x1a7f2 <signal+0x30>
   1a804: 93 05 00 10  	li	a1, 0x100
   1a808: 4a 85        	mv	a0, s2
   1a80a: ef 90 6f da  	jal	0x13db0 <_malloc_r>
   1a80e: 23 38 a9 14  	sd	a0, 0x150(s2)
   1a812: aa 87        	mv	a5, a0
   1a814: 13 07 05 10  	addi	a4, a0, 0x100
   1a818: 19 c5        	beqz	a0, 0x1a826 <signal+0x64>
   1a81a: 23 b0 07 00  	sd	zero, 0x0(a5)
   1a81e: a1 07        	addi	a5, a5, 0x8
   1a820: e3 1d f7 fe  	bne	a4, a5, 0x1a81a <signal+0x58>
   1a824: c1 b7        	j	0x1a7e4 <signal+0x22>
   1a826: 42 64        	ld	s0, 0x10(sp)
   1a828: a2 64        	ld	s1, 0x8(sp)
   1a82a: 7d 55        	li	a0, -0x1
   1a82c: d9 b7        	j	0x1a7f2 <signal+0x30>

000000000001a82e <_init_signal>:
   1a82e: 41 11        	addi	sp, sp, -0x10
   1a830: 22 e0        	sd	s0, 0x0(sp)
   1a832: 17 54 00 00  	auipc	s0, 0x5
   1a836: 03 34 64 34  	ld	s0, 0x346(s0)
   1a83a: 83 37 04 15  	ld	a5, 0x150(s0)
   1a83e: 06 e4        	sd	ra, 0x8(sp)
   1a840: 91 c7        	beqz	a5, 0x1a84c <_init_signal+0x1e>
   1a842: 01 45        	li	a0, 0x0
   1a844: a2 60        	ld	ra, 0x8(sp)
   1a846: 02 64        	ld	s0, 0x0(sp)
   1a848: 41 01        	addi	sp, sp, 0x10
   1a84a: 82 80        	ret
   1a84c: 93 05 00 10  	li	a1, 0x100
   1a850: 22 85        	mv	a0, s0
   1a852: ef 90 ef d5  	jal	0x13db0 <_malloc_r>
   1a856: 23 38 a4 14  	sd	a0, 0x150(s0)
   1a85a: 09 c9        	beqz	a0, 0x1a86c <_init_signal+0x3e>
   1a85c: 93 07 05 10  	addi	a5, a0, 0x100
   1a860: 23 30 05 00  	sd	zero, 0x0(a0)
   1a864: 21 05        	addi	a0, a0, 0x8
   1a866: e3 1d f5 fe  	bne	a0, a5, 0x1a860 <_init_signal+0x32>
   1a86a: e1 bf        	j	0x1a842 <_init_signal+0x14>
   1a86c: 7d 55        	li	a0, -0x1
   1a86e: d9 bf        	j	0x1a844 <_init_signal+0x16>

000000000001a870 <__sigtramp>:
   1a870: 01 11        	addi	sp, sp, -0x20
   1a872: 26 e4        	sd	s1, 0x8(sp)
   1a874: 06 ec        	sd	ra, 0x18(sp)
   1a876: fd 47        	li	a5, 0x1f
   1a878: 97 54 00 00  	auipc	s1, 0x5
   1a87c: 83 b4 04 30  	ld	s1, 0x300(s1)
   1a880: 63 ee a7 06  	bltu	a5, a0, 0x1a8fc <__sigtramp+0x8c>
   1a884: 83 b7 04 15  	ld	a5, 0x150(s1)
   1a888: 22 e8        	sd	s0, 0x10(sp)
   1a88a: 2a 84        	mv	s0, a0
   1a88c: a9 c7        	beqz	a5, 0x1a8d6 <__sigtramp+0x66>
   1a88e: 13 17 34 00  	slli	a4, s0, 0x3
   1a892: ba 97        	add	a5, a5, a4
   1a894: 98 63        	ld	a4, 0x0(a5)
   1a896: 0d c3        	beqz	a4, 0x1a8b8 <__sigtramp+0x48>
   1a898: fd 56        	li	a3, -0x1
   1a89a: 63 0b d7 02  	beq	a4, a3, 0x1a8d0 <__sigtramp+0x60>
   1a89e: 85 46        	li	a3, 0x1
   1a8a0: 63 02 d7 02  	beq	a4, a3, 0x1a8c4 <__sigtramp+0x54>
   1a8a4: 22 85        	mv	a0, s0
   1a8a6: 23 b0 07 00  	sd	zero, 0x0(a5)
   1a8aa: 02 97        	jalr	a4
   1a8ac: 42 64        	ld	s0, 0x10(sp)
   1a8ae: 01 45        	li	a0, 0x0
   1a8b0: e2 60        	ld	ra, 0x18(sp)
   1a8b2: a2 64        	ld	s1, 0x8(sp)
   1a8b4: 05 61        	addi	sp, sp, 0x20
   1a8b6: 82 80        	ret
   1a8b8: 42 64        	ld	s0, 0x10(sp)
   1a8ba: e2 60        	ld	ra, 0x18(sp)
   1a8bc: a2 64        	ld	s1, 0x8(sp)
   1a8be: 05 45        	li	a0, 0x1
   1a8c0: 05 61        	addi	sp, sp, 0x20
   1a8c2: 82 80        	ret
   1a8c4: 42 64        	ld	s0, 0x10(sp)
   1a8c6: e2 60        	ld	ra, 0x18(sp)
   1a8c8: a2 64        	ld	s1, 0x8(sp)
   1a8ca: 0d 45        	li	a0, 0x3
   1a8cc: 05 61        	addi	sp, sp, 0x20
   1a8ce: 82 80        	ret
   1a8d0: 42 64        	ld	s0, 0x10(sp)
   1a8d2: 09 45        	li	a0, 0x2
   1a8d4: f1 bf        	j	0x1a8b0 <__sigtramp+0x40>
   1a8d6: 93 05 00 10  	li	a1, 0x100
   1a8da: 26 85        	mv	a0, s1
   1a8dc: ef 90 4f cd  	jal	0x13db0 <_malloc_r>
   1a8e0: 23 b8 a4 14  	sd	a0, 0x150(s1)
   1a8e4: aa 87        	mv	a5, a0
   1a8e6: 11 c9        	beqz	a0, 0x1a8fa <__sigtramp+0x8a>
   1a8e8: 2a 87        	mv	a4, a0
   1a8ea: 93 06 05 10  	addi	a3, a0, 0x100
   1a8ee: 23 30 07 00  	sd	zero, 0x0(a4)
   1a8f2: 21 07        	addi	a4, a4, 0x8
   1a8f4: e3 9d e6 fe  	bne	a3, a4, 0x1a8ee <__sigtramp+0x7e>
   1a8f8: 59 bf        	j	0x1a88e <__sigtramp+0x1e>
   1a8fa: 42 64        	ld	s0, 0x10(sp)
   1a8fc: 7d 55        	li	a0, -0x1
   1a8fe: 4d bf        	j	0x1a8b0 <__sigtramp+0x40>

000000000001a900 <currentlocale>:
   1a900: 79 71        	addi	sp, sp, -0x30
   1a902: 26 ec        	sd	s1, 0x18(sp)
   1a904: 97 55 00 00  	auipc	a1, 0x5
   1a908: 93 85 c5 f4  	addi	a1, a1, -0xb4
   1a90c: 17 65 00 00  	auipc	a0, 0x6
   1a910: 13 05 c5 9d  	addi	a0, a0, -0x624
   1a914: 97 54 00 00  	auipc	s1, 0x5
   1a918: 93 84 c4 f5  	addi	s1, s1, -0xa4
   1a91c: 22 f0        	sd	s0, 0x20(sp)
   1a91e: 4a e8        	sd	s2, 0x10(sp)
   1a920: 4e e4        	sd	s3, 0x8(sp)
   1a922: 06 f4        	sd	ra, 0x28(sp)
   1a924: 17 59 00 00  	auipc	s2, 0x5
   1a928: 13 09 c9 fe  	addi	s2, s2, -0x14
   1a92c: ef 10 d0 7c  	jal	0x1c8f8 <strcpy>
   1a930: 26 84        	mv	s0, s1
   1a932: 97 59 00 00  	auipc	s3, 0x5
   1a936: 93 89 e9 f1  	addi	s3, s3, -0xe2
   1a93a: a2 85        	mv	a1, s0
   1a93c: 4e 85        	mv	a0, s3
   1a93e: ef 20 80 06  	jal	0x1c9a6 <strcmp>
   1a942: 13 04 04 02  	addi	s0, s0, 0x20
   1a946: 11 ed        	bnez	a0, 0x1a962 <currentlocale+0x62>
   1a948: e3 19 24 ff  	bne	s0, s2, 0x1a93a <currentlocale+0x3a>
   1a94c: a2 70        	ld	ra, 0x28(sp)
   1a94e: 02 74        	ld	s0, 0x20(sp)
   1a950: e2 64        	ld	s1, 0x18(sp)
   1a952: 42 69        	ld	s2, 0x10(sp)
   1a954: a2 69        	ld	s3, 0x8(sp)
   1a956: 17 65 00 00  	auipc	a0, 0x6
   1a95a: 13 05 25 99  	addi	a0, a0, -0x66e
   1a95e: 45 61        	addi	sp, sp, 0x30
   1a960: 82 80        	ret
   1a962: 97 69 ff ff  	auipc	s3, 0xffff6
   1a966: 93 89 e9 a6  	addi	s3, s3, -0x592
   1a96a: 17 64 00 00  	auipc	s0, 0x6
   1a96e: 13 04 e4 97  	addi	s0, s0, -0x682
   1a972: ce 85        	mv	a1, s3
   1a974: 22 85        	mv	a0, s0
   1a976: ef 00 50 1d  	jal	0x1b34a <strcat>
   1a97a: a6 85        	mv	a1, s1
   1a97c: 22 85        	mv	a0, s0
   1a97e: 93 84 04 02  	addi	s1, s1, 0x20
   1a982: ef 00 90 1c  	jal	0x1b34a <strcat>
   1a986: e3 96 24 ff  	bne	s1, s2, 0x1a972 <currentlocale+0x72>
   1a98a: a2 70        	ld	ra, 0x28(sp)
   1a98c: 02 74        	ld	s0, 0x20(sp)
   1a98e: e2 64        	ld	s1, 0x18(sp)
   1a990: 42 69        	ld	s2, 0x10(sp)
   1a992: a2 69        	ld	s3, 0x8(sp)
   1a994: 17 65 00 00  	auipc	a0, 0x6
   1a998: 13 05 45 95  	addi	a0, a0, -0x6ac
   1a99c: 45 61        	addi	sp, sp, 0x30
   1a99e: 82 80        	ret

000000000001a9a0 <__loadlocale>:
   1a9a0: 75 71        	addi	sp, sp, -0x90
   1a9a2: a6 fc        	sd	s1, 0x78(sp)
   1a9a4: 93 94 55 00  	slli	s1, a1, 0x5
   1a9a8: aa 94        	add	s1, s1, a0
   1a9aa: ca f8        	sd	s2, 0x70(sp)
   1a9ac: ce f4        	sd	s3, 0x68(sp)
   1a9ae: 2a 89        	mv	s2, a0
   1a9b0: ae 89        	mv	s3, a1
   1a9b2: 32 85        	mv	a0, a2
   1a9b4: a6 85        	mv	a1, s1
   1a9b6: 22 e1        	sd	s0, 0x80(sp)
   1a9b8: 06 e5        	sd	ra, 0x88(sp)
   1a9ba: 32 84        	mv	s0, a2
   1a9bc: ef 10 b0 7e  	jal	0x1c9a6 <strcmp>
   1a9c0: 09 e9        	bnez	a0, 0x1a9d2 <__loadlocale+0x32>
   1a9c2: aa 60        	ld	ra, 0x88(sp)
   1a9c4: 0a 64        	ld	s0, 0x80(sp)
   1a9c6: 46 79        	ld	s2, 0x70(sp)
   1a9c8: a6 79        	ld	s3, 0x68(sp)
   1a9ca: 26 85        	mv	a0, s1
   1a9cc: e6 74        	ld	s1, 0x78(sp)
   1a9ce: 49 61        	addi	sp, sp, 0x90
   1a9d0: 82 80        	ret
   1a9d2: 97 65 ff ff  	auipc	a1, 0xffff6
   1a9d6: 93 85 65 c6  	addi	a1, a1, -0x39a
   1a9da: 22 85        	mv	a0, s0
   1a9dc: d2 f0        	sd	s4, 0x60(sp)
   1a9de: d6 ec        	sd	s5, 0x58(sp)
   1a9e0: ef 10 70 7c  	jal	0x1c9a6 <strcmp>
   1a9e4: 25 cd        	beqz	a0, 0x1aa5c <__loadlocale+0xbc>
   1a9e6: 97 65 ff ff  	auipc	a1, 0xffff6
   1a9ea: 93 85 25 b8  	addi	a1, a1, -0x47e
   1a9ee: 22 85        	mv	a0, s0
   1a9f0: ef 10 70 7b  	jal	0x1c9a6 <strcmp>
   1a9f4: 59 c1        	beqz	a0, 0x1aa7a <__loadlocale+0xda>
   1a9f6: 83 47 04 00  	lbu	a5, 0x0(s0)
   1a9fa: 13 07 30 04  	li	a4, 0x43
   1a9fe: 63 82 e7 0e  	beq	a5, a4, 0x1aae2 <__loadlocale+0x142>
   1aa02: 9b 87 f7 f9  	addiw	a5, a5, -0x61
   1aa06: 93 f7 f7 0f  	andi	a5, a5, 0xff
   1aa0a: 65 47        	li	a4, 0x19
   1aa0c: 63 6f f7 02  	bltu	a4, a5, 0x1aa4a <__loadlocale+0xaa>
   1aa10: 83 47 14 00  	lbu	a5, 0x1(s0)
   1aa14: 9b 87 f7 f9  	addiw	a5, a5, -0x61
   1aa18: 93 f7 f7 0f  	andi	a5, a5, 0xff
   1aa1c: 63 67 f7 02  	bltu	a4, a5, 0x1aa4a <__loadlocale+0xaa>
   1aa20: 83 47 24 00  	lbu	a5, 0x2(s0)
   1aa24: 93 0a 24 00  	addi	s5, s0, 0x2
   1aa28: 9b 86 f7 f9  	addiw	a3, a5, -0x61
   1aa2c: 93 f6 f6 0f  	andi	a3, a3, 0xff
   1aa30: 63 71 d7 02  	bgeu	a4, a3, 0x1aa52 <__loadlocale+0xb2>
   1aa34: 13 07 f0 05  	li	a4, 0x5f
   1aa38: 63 8a e7 12  	beq	a5, a4, 0x1ab6c <__loadlocale+0x1cc>
   1aa3c: 13 07 e0 02  	li	a4, 0x2e
   1aa40: 63 80 e7 56  	beq	a5, a4, 0x1afa0 <__loadlocale+0x600>
   1aa44: 93 f7 f7 0b  	andi	a5, a5, 0xbf
   1aa48: e9 cf        	beqz	a5, 0x1ab22 <__loadlocale+0x182>
   1aa4a: 06 7a        	ld	s4, 0x60(sp)
   1aa4c: e6 6a        	ld	s5, 0x58(sp)
   1aa4e: 81 44        	li	s1, 0x0
   1aa50: 8d bf        	j	0x1a9c2 <__loadlocale+0x22>
   1aa52: 83 47 34 00  	lbu	a5, 0x3(s0)
   1aa56: 93 0a 34 00  	addi	s5, s0, 0x3
   1aa5a: e9 bf        	j	0x1aa34 <__loadlocale+0x94>
   1aa5c: 97 65 ff ff  	auipc	a1, 0xffff6
   1aa60: 93 85 c5 b0  	addi	a1, a1, -0x4f4
   1aa64: 22 85        	mv	a0, s0
   1aa66: ef 10 30 69  	jal	0x1c8f8 <strcpy>
   1aa6a: 97 65 ff ff  	auipc	a1, 0xffff6
   1aa6e: 93 85 e5 af  	addi	a1, a1, -0x502
   1aa72: 22 85        	mv	a0, s0
   1aa74: ef 10 30 73  	jal	0x1c9a6 <strcmp>
   1aa78: 3d fd        	bnez	a0, 0x1a9f6 <__loadlocale+0x56>
   1aa7a: 13 0a 01 01  	addi	s4, sp, 0x10
   1aa7e: 97 65 ff ff  	auipc	a1, 0xffff6
   1aa82: 93 85 a5 b9  	addi	a1, a1, -0x466
   1aa86: 52 85        	mv	a0, s4
   1aa88: da e8        	sd	s6, 0x50(sp)
   1aa8a: de e4        	sd	s7, 0x48(sp)
   1aa8c: ef 10 d0 66  	jal	0x1c8f8 <strcpy>
   1aa90: 81 4a        	li	s5, 0x0
   1aa92: 01 4b        	li	s6, 0x0
   1aa94: 81 4b        	li	s7, 0x0
   1aa96: 83 47 01 01  	lbu	a5, 0x10(sp)
   1aa9a: 13 07 40 03  	li	a4, 0x34
   1aa9e: 9b 87 f7 fb  	addiw	a5, a5, -0x41
   1aaa2: 93 f7 f7 0f  	andi	a5, a5, 0xff
   1aaa6: 63 60 f7 0c  	bltu	a4, a5, 0x1ab66 <__loadlocale+0x1c6>
   1aaaa: 17 67 ff ff  	auipc	a4, 0xffff6
   1aaae: 13 07 67 fe  	addi	a4, a4, -0x1a
   1aab2: 8a 07        	slli	a5, a5, 0x2
   1aab4: ba 97        	add	a5, a5, a4
   1aab6: 9c 43        	lw	a5, 0x0(a5)
   1aab8: e2 e0        	sd	s8, 0x40(sp)
   1aaba: 66 fc        	sd	s9, 0x38(sp)
   1aabc: ba 97        	add	a5, a5, a4
   1aabe: 6a f8        	sd	s10, 0x30(sp)
   1aac0: 82 87        	jr	a5
   1aac2: c5 67        	lui	a5, 0x11
   1aac4: 13 05 e5 ca  	addi	a0, a0, -0x352
   1aac8: 93 87 57 1a  	addi	a5, a5, 0x1a5
   1aacc: b3 d7 a7 00  	srl	a5, a5, a0
   1aad0: 85 8b        	andi	a5, a5, 0x1
   1aad2: 63 93 07 18  	bnez	a5, 0x1ac58 <__loadlocale+0x2b8>
   1aad6: 46 6b        	ld	s6, 0x50(sp)
   1aad8: a6 6b        	ld	s7, 0x48(sp)
   1aada: 06 6c        	ld	s8, 0x40(sp)
   1aadc: e2 7c        	ld	s9, 0x38(sp)
   1aade: 42 7d        	ld	s10, 0x30(sp)
   1aae0: ad b7        	j	0x1aa4a <__loadlocale+0xaa>
   1aae2: 83 47 14 00  	lbu	a5, 0x1(s0)
   1aae6: 05 47        	li	a4, 0x1
   1aae8: 9b 87 37 fd  	addiw	a5, a5, -0x2d
   1aaec: 93 f7 f7 0f  	andi	a5, a5, 0xff
   1aaf0: e3 6d f7 f4  	bltu	a4, a5, 0x1aa4a <__loadlocale+0xaa>
   1aaf4: da e8        	sd	s6, 0x50(sp)
   1aaf6: de e4        	sd	s7, 0x48(sp)
   1aaf8: 93 0a 24 00  	addi	s5, s0, 0x2
   1aafc: 13 0a 01 01  	addi	s4, sp, 0x10
   1ab00: d6 85        	mv	a1, s5
   1ab02: 52 85        	mv	a0, s4
   1ab04: ef 10 50 5f  	jal	0x1c8f8 <strcpy>
   1ab08: 93 05 00 04  	li	a1, 0x40
   1ab0c: 52 85        	mv	a0, s4
   1ab0e: ef 00 30 0b  	jal	0x1b3c0 <strchr>
   1ab12: 19 c1        	beqz	a0, 0x1ab18 <__loadlocale+0x178>
   1ab14: 23 00 05 00  	sb	zero, 0x0(a0)
   1ab18: 52 85        	mv	a0, s4
   1ab1a: ef 10 d0 53  	jal	0x1c856 <strlen>
   1ab1e: aa 9a        	add	s5, s5, a0
   1ab20: 21 a8        	j	0x1ab38 <__loadlocale+0x198>
   1ab22: 13 0a 01 01  	addi	s4, sp, 0x10
   1ab26: 97 55 ff ff  	auipc	a1, 0xffff5
   1ab2a: 93 85 a5 7f  	addi	a1, a1, 0x7fa
   1ab2e: 52 85        	mv	a0, s4
   1ab30: da e8        	sd	s6, 0x50(sp)
   1ab32: de e4        	sd	s7, 0x48(sp)
   1ab34: ef 10 50 5c  	jal	0x1c8f8 <strcpy>
   1ab38: 03 c7 0a 00  	lbu	a4, 0x0(s5)
   1ab3c: 93 07 00 04  	li	a5, 0x40
   1ab40: e3 18 f7 f4  	bne	a4, a5, 0x1aa90 <__loadlocale+0xf0>
   1ab44: e2 e0        	sd	s8, 0x40(sp)
   1ab46: 13 8c 1a 00  	addi	s8, s5, 0x1
   1ab4a: 97 55 ff ff  	auipc	a1, 0xffff5
   1ab4e: 93 85 65 7e  	addi	a1, a1, 0x7e6
   1ab52: 62 85        	mv	a0, s8
   1ab54: ef 10 30 65  	jal	0x1c9a6 <strcmp>
   1ab58: 2a 8b        	mv	s6, a0
   1ab5a: 81 4a        	li	s5, 0x0
   1ab5c: 85 4b        	li	s7, 0x1
   1ab5e: 63 14 05 3c  	bnez	a0, 0x1af26 <__loadlocale+0x586>
   1ab62: 06 6c        	ld	s8, 0x40(sp)
   1ab64: 0d bf        	j	0x1aa96 <__loadlocale+0xf6>
   1ab66: 46 6b        	ld	s6, 0x50(sp)
   1ab68: a6 6b        	ld	s7, 0x48(sp)
   1ab6a: c5 b5        	j	0x1aa4a <__loadlocale+0xaa>
   1ab6c: 83 c7 1a 00  	lbu	a5, 0x1(s5)
   1ab70: 65 47        	li	a4, 0x19
   1ab72: 9b 87 f7 fb  	addiw	a5, a5, -0x41
   1ab76: 93 f7 f7 0f  	andi	a5, a5, 0xff
   1ab7a: e3 68 f7 ec  	bltu	a4, a5, 0x1aa4a <__loadlocale+0xaa>
   1ab7e: 83 c7 2a 00  	lbu	a5, 0x2(s5)
   1ab82: 9b 87 f7 fb  	addiw	a5, a5, -0x41
   1ab86: 93 f7 f7 0f  	andi	a5, a5, 0xff
   1ab8a: e3 60 f7 ec  	bltu	a4, a5, 0x1aa4a <__loadlocale+0xaa>
   1ab8e: 83 c7 3a 00  	lbu	a5, 0x3(s5)
   1ab92: 8d 0a        	addi	s5, s5, 0x3
   1ab94: 65 b5        	j	0x1aa3c <__loadlocale+0x9c>
   1ab96: 97 65 ff ff  	auipc	a1, 0xffff6
   1ab9a: 93 85 25 a0  	addi	a1, a1, -0x5fe
   1ab9e: 52 85        	mv	a0, s4
   1aba0: ef 00 d0 14  	jal	0x1b4ec <strcasecmp>
   1aba4: 09 c9        	beqz	a0, 0x1abb6 <__loadlocale+0x216>
   1aba6: 97 55 ff ff  	auipc	a1, 0xffff5
   1abaa: 93 85 a5 73  	addi	a1, a1, 0x73a
   1abae: 52 85        	mv	a0, s4
   1abb0: ef 00 d0 13  	jal	0x1b4ec <strcasecmp>
   1abb4: 0d f1        	bnez	a0, 0x1aad6 <__loadlocale+0x136>
   1abb6: 97 65 ff ff  	auipc	a1, 0xffff6
   1abba: 93 85 25 9e  	addi	a1, a1, -0x61e
   1abbe: 52 85        	mv	a0, s4
   1abc0: ef 10 90 53  	jal	0x1c8f8 <strcpy>
   1abc4: 97 1c 00 00  	auipc	s9, 0x1
   1abc8: 93 8c 6c 9d  	addi	s9, s9, -0x62a
   1abcc: 17 1d 00 00  	auipc	s10, 0x1
   1abd0: 13 0d 8d 07  	addi	s10, s10, 0x78
   1abd4: 19 4c        	li	s8, 0x6
   1abd6: 89 47        	li	a5, 0x2
   1abd8: 63 8f f9 36  	beq	s3, a5, 0x1af56 <__loadlocale+0x5b6>
   1abdc: 99 47        	li	a5, 0x6
   1abde: 63 97 f9 00  	bne	s3, a5, 0x1abec <__loadlocale+0x24c>
   1abe2: d2 85        	mv	a1, s4
   1abe4: 13 05 29 18  	addi	a0, s2, 0x182
   1abe8: ef 10 10 51  	jal	0x1c8f8 <strcpy>
   1abec: a2 85        	mv	a1, s0
   1abee: 26 85        	mv	a0, s1
   1abf0: ef 10 90 50  	jal	0x1c8f8 <strcpy>
   1abf4: aa 60        	ld	ra, 0x88(sp)
   1abf6: 0a 64        	ld	s0, 0x80(sp)
   1abf8: aa 84        	mv	s1, a0
   1abfa: 06 7a        	ld	s4, 0x60(sp)
   1abfc: e6 6a        	ld	s5, 0x58(sp)
   1abfe: 46 6b        	ld	s6, 0x50(sp)
   1ac00: a6 6b        	ld	s7, 0x48(sp)
   1ac02: 06 6c        	ld	s8, 0x40(sp)
   1ac04: e2 7c        	ld	s9, 0x38(sp)
   1ac06: 42 7d        	ld	s10, 0x30(sp)
   1ac08: 46 79        	ld	s2, 0x70(sp)
   1ac0a: a6 79        	ld	s3, 0x68(sp)
   1ac0c: 26 85        	mv	a0, s1
   1ac0e: e6 74        	ld	s1, 0x78(sp)
   1ac10: 49 61        	addi	sp, sp, 0x90
   1ac12: 82 80        	ret
   1ac14: 0d 46        	li	a2, 0x3
   1ac16: 97 65 ff ff  	auipc	a1, 0xffff6
   1ac1a: 93 85 25 9c  	addi	a1, a1, -0x63e
   1ac1e: 52 85        	mv	a0, s4
   1ac20: ef 10 20 28  	jal	0x1bea2 <strncasecmp>
   1ac24: e3 19 05 ea  	bnez	a0, 0x1aad6 <__loadlocale+0x136>
   1ac28: 03 47 31 01  	lbu	a4, 0x13(sp)
   1ac2c: 93 07 d0 02  	li	a5, 0x2d
   1ac30: 48 08        	addi	a0, sp, 0x14
   1ac32: 63 04 f7 00  	beq	a4, a5, 0x1ac3a <__loadlocale+0x29a>
   1ac36: 13 05 31 01  	addi	a0, sp, 0x13
   1ac3a: 97 55 ff ff  	auipc	a1, 0xffff5
   1ac3e: 93 85 e5 6a  	addi	a1, a1, 0x6ae
   1ac42: ef 10 50 56  	jal	0x1c9a6 <strcmp>
   1ac46: e3 18 05 e8  	bnez	a0, 0x1aad6 <__loadlocale+0x136>
   1ac4a: 97 65 ff ff  	auipc	a1, 0xffff6
   1ac4e: 93 85 65 80  	addi	a1, a1, -0x7fa
   1ac52: 52 85        	mv	a0, s4
   1ac54: ef 10 50 4a  	jal	0x1c8f8 <strcpy>
   1ac58: 97 1c 00 00  	auipc	s9, 0x1
   1ac5c: 93 8c 2c 90  	addi	s9, s9, -0x6fe
   1ac60: 17 1d 00 00  	auipc	s10, 0x1
   1ac64: 13 0d 0d fc  	addi	s10, s10, -0x40
   1ac68: 05 4c        	li	s8, 0x1
   1ac6a: b5 b7        	j	0x1abd6 <__loadlocale+0x236>
   1ac6c: 97 55 ff ff  	auipc	a1, 0xffff5
   1ac70: 93 85 c5 76  	addi	a1, a1, 0x76c
   1ac74: 52 85        	mv	a0, s4
   1ac76: ef 00 70 07  	jal	0x1b4ec <strcasecmp>
   1ac7a: e3 1e 05 e4  	bnez	a0, 0x1aad6 <__loadlocale+0x136>
   1ac7e: 97 55 ff ff  	auipc	a1, 0xffff5
   1ac82: 93 85 a5 75  	addi	a1, a1, 0x75a
   1ac86: 52 85        	mv	a0, s4
   1ac88: ef 10 10 47  	jal	0x1c8f8 <strcpy>
   1ac8c: 97 1c 00 00  	auipc	s9, 0x1
   1ac90: 93 8c 2c b8  	addi	s9, s9, -0x47e
   1ac94: 17 1d 00 00  	auipc	s10, 0x1
   1ac98: 13 0d ed 07  	addi	s10, s10, 0x7e
   1ac9c: 09 4c        	li	s8, 0x2
   1ac9e: 25 bf        	j	0x1abd6 <__loadlocale+0x236>
   1aca0: 97 55 ff ff  	auipc	a1, 0xffff5
   1aca4: 93 85 05 7c  	addi	a1, a1, 0x7c0
   1aca8: 52 85        	mv	a0, s4
   1acaa: ef 00 30 04  	jal	0x1b4ec <strcasecmp>
   1acae: e3 14 05 e2  	bnez	a0, 0x1aad6 <__loadlocale+0x136>
   1acb2: 97 55 ff ff  	auipc	a1, 0xffff5
   1acb6: 93 85 e5 74  	addi	a1, a1, 0x74e
   1acba: 52 85        	mv	a0, s4
   1acbc: ef 10 d0 43  	jal	0x1c8f8 <strcpy>
   1acc0: 61 bf        	j	0x1ac58 <__loadlocale+0x2b8>
   1acc2: 11 46        	li	a2, 0x4
   1acc4: 97 65 ff ff  	auipc	a1, 0xffff6
   1acc8: 93 85 45 8c  	addi	a1, a1, -0x73c
   1accc: 52 85        	mv	a0, s4
   1acce: ef 10 40 1d  	jal	0x1bea2 <strncasecmp>
   1acd2: e3 12 05 e0  	bnez	a0, 0x1aad6 <__loadlocale+0x136>
   1acd6: 83 47 41 01  	lbu	a5, 0x14(sp)
   1acda: 13 07 d0 02  	li	a4, 0x2d
   1acde: 63 94 e7 00  	bne	a5, a4, 0x1ace6 <__loadlocale+0x346>
   1ace2: 83 47 51 01  	lbu	a5, 0x15(sp)
   1ace6: 93 f7 f7 0d  	andi	a5, a5, 0xdf
   1acea: 13 07 20 05  	li	a4, 0x52
   1acee: 63 8d e7 2a  	beq	a5, a4, 0x1afa8 <__loadlocale+0x608>
   1acf2: 13 07 50 05  	li	a4, 0x55
   1acf6: e3 90 e7 de  	bne	a5, a4, 0x1aad6 <__loadlocale+0x136>
   1acfa: 97 65 ff ff  	auipc	a1, 0xffff6
   1acfe: 93 85 65 84  	addi	a1, a1, -0x7ba
   1ad02: 52 85        	mv	a0, s4
   1ad04: ef 10 50 3f  	jal	0x1c8f8 <strcpy>
   1ad08: 81 bf        	j	0x1ac58 <__loadlocale+0x2b8>
   1ad0a: 97 55 ff ff  	auipc	a1, 0xffff5
   1ad0e: 93 85 65 79  	addi	a1, a1, 0x796
   1ad12: 52 85        	mv	a0, s4
   1ad14: ef 00 80 7d  	jal	0x1b4ec <strcasecmp>
   1ad18: e3 1f 05 da  	bnez	a0, 0x1aad6 <__loadlocale+0x136>
   1ad1c: 97 55 ff ff  	auipc	a1, 0xffff5
   1ad20: 93 85 45 78  	addi	a1, a1, 0x784
   1ad24: 52 85        	mv	a0, s4
   1ad26: ef 10 30 3d  	jal	0x1c8f8 <strcpy>
   1ad2a: 97 1c 00 00  	auipc	s9, 0x1
   1ad2e: 93 8c 2c da  	addi	s9, s9, -0x25e
   1ad32: 17 1d 00 00  	auipc	s10, 0x1
   1ad36: 13 0d ed 0d  	addi	s10, s10, 0xde
   1ad3a: 21 4c        	li	s8, 0x8
   1ad3c: 69 bd        	j	0x1abd6 <__loadlocale+0x236>
   1ad3e: 0d 46        	li	a2, 0x3
   1ad40: 97 55 ff ff  	auipc	a1, 0xffff5
   1ad44: 93 85 05 75  	addi	a1, a1, 0x750
   1ad48: 52 85        	mv	a0, s4
   1ad4a: ef 10 80 15  	jal	0x1bea2 <strncasecmp>
   1ad4e: e3 14 05 d8  	bnez	a0, 0x1aad6 <__loadlocale+0x136>
   1ad52: 03 47 31 01  	lbu	a4, 0x13(sp)
   1ad56: 93 07 d0 02  	li	a5, 0x2d
   1ad5a: 13 0c 41 01  	addi	s8, sp, 0x14
   1ad5e: 63 04 f7 00  	beq	a4, a5, 0x1ad66 <__loadlocale+0x3c6>
   1ad62: 13 0c 31 01  	addi	s8, sp, 0x13
   1ad66: 11 46        	li	a2, 0x4
   1ad68: 97 55 ff ff  	auipc	a1, 0xffff5
   1ad6c: 93 85 05 66  	addi	a1, a1, 0x660
   1ad70: 62 85        	mv	a0, s8
   1ad72: ef 10 00 13  	jal	0x1bea2 <strncasecmp>
   1ad76: e3 10 05 d6  	bnez	a0, 0x1aad6 <__loadlocale+0x136>
   1ad7a: 03 47 4c 00  	lbu	a4, 0x4(s8)
   1ad7e: 93 07 d0 02  	li	a5, 0x2d
   1ad82: 13 05 5c 00  	addi	a0, s8, 0x5
   1ad86: 63 04 f7 00  	beq	a4, a5, 0x1ad8e <__loadlocale+0x3ee>
   1ad8a: 13 05 4c 00  	addi	a0, s8, 0x4
   1ad8e: 29 46        	li	a2, 0xa
   1ad90: 2c 00        	addi	a1, sp, 0x8
   1ad92: ef 10 20 30  	jal	0x1c094 <strtol>
   1ad96: 13 07 f5 ff  	addi	a4, a0, -0x1
   1ad9a: bd 47        	li	a5, 0xf
   1ad9c: 2a 8c        	mv	s8, a0
   1ad9e: e3 ec e7 d2  	bltu	a5, a4, 0x1aad6 <__loadlocale+0x136>
   1ada2: b1 47        	li	a5, 0xc
   1ada4: e3 09 f5 d2  	beq	a0, a5, 0x1aad6 <__loadlocale+0x136>
   1ada8: a2 67        	ld	a5, 0x8(sp)
   1adaa: 83 c7 07 00  	lbu	a5, 0x0(a5)
   1adae: e3 94 07 d2  	bnez	a5, 0x1aad6 <__loadlocale+0x136>
   1adb2: 97 55 ff ff  	auipc	a1, 0xffff5
   1adb6: 93 85 65 7c  	addi	a1, a1, 0x7c6
   1adba: 52 85        	mv	a0, s4
   1adbc: ef 10 d0 33  	jal	0x1c8f8 <strcpy>
   1adc0: a9 47        	li	a5, 0xa
   1adc2: 13 07 91 01  	addi	a4, sp, 0x19
   1adc6: 63 d8 87 01  	bge	a5, s8, 0x1add6 <__loadlocale+0x436>
   1adca: 93 07 10 03  	li	a5, 0x31
   1adce: a3 0c f1 00  	sb	a5, 0x19(sp)
   1add2: 13 07 a1 01  	addi	a4, sp, 0x1a
   1add6: a9 47        	li	a5, 0xa
   1add8: b3 67 fc 02  	rem	a5, s8, a5
   1addc: a3 00 07 00  	sb	zero, 0x1(a4)
   1ade0: 9b 87 07 03  	addiw	a5, a5, 0x30
   1ade4: 23 00 f7 00  	sb	a5, 0x0(a4)
   1ade8: 85 bd        	j	0x1ac58 <__loadlocale+0x2b8>
   1adea: 21 46        	li	a2, 0x8
   1adec: 97 55 ff ff  	auipc	a1, 0xffff5
   1adf0: 93 85 45 60  	addi	a1, a1, 0x604
   1adf4: 52 85        	mv	a0, s4
   1adf6: ef 10 c0 0a  	jal	0x1bea2 <strncasecmp>
   1adfa: e3 1e 05 cc  	bnez	a0, 0x1aad6 <__loadlocale+0x136>
   1adfe: 03 47 81 01  	lbu	a4, 0x18(sp)
   1ae02: 93 07 d0 02  	li	a5, 0x2d
   1ae06: 13 05 91 01  	addi	a0, sp, 0x19
   1ae0a: 63 03 f7 00  	beq	a4, a5, 0x1ae10 <__loadlocale+0x470>
   1ae0e: 28 08        	addi	a0, sp, 0x18
   1ae10: 97 55 ff ff  	auipc	a1, 0xffff5
   1ae14: 93 85 05 62  	addi	a1, a1, 0x620
   1ae18: ef 00 40 6d  	jal	0x1b4ec <strcasecmp>
   1ae1c: e3 1d 05 ca  	bnez	a0, 0x1aad6 <__loadlocale+0x136>
   1ae20: 97 55 ff ff  	auipc	a1, 0xffff5
   1ae24: 93 85 05 78  	addi	a1, a1, 0x780
   1ae28: 52 85        	mv	a0, s4
   1ae2a: ef 10 f0 2c  	jal	0x1c8f8 <strcpy>
   1ae2e: 2d b5        	j	0x1ac58 <__loadlocale+0x2b8>
   1ae30: 0d 46        	li	a2, 0x3
   1ae32: 97 55 ff ff  	auipc	a1, 0xffff5
   1ae36: 93 85 e5 7e  	addi	a1, a1, 0x7ee
   1ae3a: 52 85        	mv	a0, s4
   1ae3c: ef 10 60 06  	jal	0x1bea2 <strncasecmp>
   1ae40: e3 1b 05 c8  	bnez	a0, 0x1aad6 <__loadlocale+0x136>
   1ae44: 03 47 31 01  	lbu	a4, 0x13(sp)
   1ae48: 93 07 d0 02  	li	a5, 0x2d
   1ae4c: 48 08        	addi	a0, sp, 0x14
   1ae4e: 63 04 f7 00  	beq	a4, a5, 0x1ae56 <__loadlocale+0x4b6>
   1ae52: 13 05 31 01  	addi	a0, sp, 0x13
   1ae56: 97 55 ff ff  	auipc	a1, 0xffff5
   1ae5a: 93 85 25 70  	addi	a1, a1, 0x702
   1ae5e: ef 00 e0 68  	jal	0x1b4ec <strcasecmp>
   1ae62: e3 1a 05 c6  	bnez	a0, 0x1aad6 <__loadlocale+0x136>
   1ae66: 97 55 ff ff  	auipc	a1, 0xffff5
   1ae6a: 93 85 25 5e  	addi	a1, a1, 0x5e2
   1ae6e: 52 85        	mv	a0, s4
   1ae70: ef 10 90 28  	jal	0x1c8f8 <strcpy>
   1ae74: 97 1c 00 00  	auipc	s9, 0x1
   1ae78: 93 8c ac ab  	addi	s9, s9, -0x546
   1ae7c: 17 1d 00 00  	auipc	s10, 0x1
   1ae80: 13 0d 4d f0  	addi	s10, s10, -0xfc
   1ae84: 0d 4c        	li	s8, 0x3
   1ae86: 81 bb        	j	0x1abd6 <__loadlocale+0x236>
   1ae88: 83 47 11 01  	lbu	a5, 0x11(sp)
   1ae8c: 13 07 00 05  	li	a4, 0x50
   1ae90: 93 f7 f7 0d  	andi	a5, a5, 0xdf
   1ae94: e3 91 e7 c4  	bne	a5, a4, 0x1aad6 <__loadlocale+0x136>
   1ae98: 09 46        	li	a2, 0x2
   1ae9a: 97 55 ff ff  	auipc	a1, 0xffff5
   1ae9e: 93 85 65 6c  	addi	a1, a1, 0x6c6
   1aea2: 52 85        	mv	a0, s4
   1aea4: ef f0 0f e8  	jal	0x1a524 <strncpy>
   1aea8: 29 46        	li	a2, 0xa
   1aeaa: 2c 00        	addi	a1, sp, 0x8
   1aeac: 13 05 21 01  	addi	a0, sp, 0x12
   1aeb0: ef 10 40 1e  	jal	0x1c094 <strtol>
   1aeb4: a2 67        	ld	a5, 0x8(sp)
   1aeb6: 83 c7 07 00  	lbu	a5, 0x0(a5)
   1aeba: e3 9e 07 c0  	bnez	a5, 0x1aad6 <__loadlocale+0x136>
   1aebe: 93 07 40 3a  	li	a5, 0x3a4
   1aec2: e3 05 f5 dc  	beq	a0, a5, 0x1ac8c <__loadlocale+0x2ec>
   1aec6: 63 c9 a7 0e  	blt	a5, a0, 0x1afb8 <__loadlocale+0x618>
   1aeca: 93 07 20 36  	li	a5, 0x362
   1aece: 63 cf a7 0e  	blt	a5, a0, 0x1afcc <__loadlocale+0x62c>
   1aed2: 93 07 10 35  	li	a5, 0x351
   1aed6: e3 c6 a7 be  	blt	a5, a0, 0x1aac2 <__loadlocale+0x122>
   1aeda: 93 07 50 1b  	li	a5, 0x1b5
   1aede: e3 0d f5 d6  	beq	a0, a5, 0x1ac58 <__loadlocale+0x2b8>
   1aee2: 13 05 05 d3  	addi	a0, a0, -0x2d0
   1aee6: 93 07 70 03  	li	a5, 0x37
   1aeea: e3 e6 a7 be  	bltu	a5, a0, 0x1aad6 <__loadlocale+0x136>
   1aeee: 85 47        	li	a5, 0x1
   1aef0: 9a 17        	slli	a5, a5, 0x26
   1aef2: 85 07        	addi	a5, a5, 0x1
   1aef4: c6 07        	slli	a5, a5, 0x11
   1aef6: 85 07        	addi	a5, a5, 0x1
   1aef8: b3 d7 a7 00  	srl	a5, a5, a0
   1aefc: 85 8b        	andi	a5, a5, 0x1
   1aefe: e3 9d 07 d4  	bnez	a5, 0x1ac58 <__loadlocale+0x2b8>
   1af02: d1 be        	j	0x1aad6 <__loadlocale+0x136>
   1af04: 97 55 ff ff  	auipc	a1, 0xffff5
   1af08: 93 85 45 71  	addi	a1, a1, 0x714
   1af0c: 52 85        	mv	a0, s4
   1af0e: ef 00 e0 5d  	jal	0x1b4ec <strcasecmp>
   1af12: e3 12 05 bc  	bnez	a0, 0x1aad6 <__loadlocale+0x136>
   1af16: 97 55 ff ff  	auipc	a1, 0xffff5
   1af1a: 93 85 25 70  	addi	a1, a1, 0x702
   1af1e: 52 85        	mv	a0, s4
   1af20: ef 10 90 1d  	jal	0x1c8f8 <strcpy>
   1af24: 15 bb        	j	0x1ac58 <__loadlocale+0x2b8>
   1af26: 97 55 ff ff  	auipc	a1, 0xffff5
   1af2a: 93 85 25 51  	addi	a1, a1, 0x512
   1af2e: 62 85        	mv	a0, s8
   1af30: ef 10 70 27  	jal	0x1c9a6 <strcmp>
   1af34: aa 8a        	mv	s5, a0
   1af36: 81 4b        	li	s7, 0x0
   1af38: 05 4b        	li	s6, 0x1
   1af3a: e3 04 05 c2  	beqz	a0, 0x1ab62 <__loadlocale+0x1c2>
   1af3e: 62 85        	mv	a0, s8
   1af40: 97 55 ff ff  	auipc	a1, 0xffff5
   1af44: 93 85 05 63  	addi	a1, a1, 0x630
   1af48: ef 10 f0 25  	jal	0x1c9a6 <strcmp>
   1af4c: 93 3a 15 00  	seqz	s5, a0
   1af50: 06 6c        	ld	s8, 0x40(sp)
   1af52: 01 4b        	li	s6, 0x0
   1af54: 89 b6        	j	0x1aa96 <__loadlocale+0xf6>
   1af56: d2 85        	mv	a1, s4
   1af58: 13 05 29 16  	addi	a0, s2, 0x162
   1af5c: ef 10 d0 19  	jal	0x1c8f8 <strcpy>
   1af60: d2 85        	mv	a1, s4
   1af62: 23 00 89 17  	sb	s8, 0x160(s2)
   1af66: 23 30 a9 0f  	sd	s10, 0xe0(s2)
   1af6a: 23 34 99 0f  	sd	s9, 0xe8(s2)
   1af6e: 4a 85        	mv	a0, s2
   1af70: ef 00 40 5d  	jal	0x1b544 <__set_ctype>
   1af74: 63 9d 0a 00  	bnez	s5, 0x1af8e <__loadlocale+0x5ee>
   1af78: 63 1b 0b 00  	bnez	s6, 0x1af8e <__loadlocale+0x5ee>
   1af7c: 85 47        	li	a5, 0x1
   1af7e: 63 08 fc 00  	beq	s8, a5, 0x1af8e <__loadlocale+0x5ee>
   1af82: 83 4a 01 01  	lbu	s5, 0x10(sp)
   1af86: 93 8a ba fa  	addi	s5, s5, -0x55
   1af8a: b3 3a 50 01  	snez	s5, s5
   1af8e: 63 95 0b 00  	bnez	s7, 0x1af98 <__loadlocale+0x5f8>
   1af92: 23 28 59 0f  	sw	s5, 0xf0(s2)
   1af96: 99 b9        	j	0x1abec <__loadlocale+0x24c>
   1af98: fd 57        	li	a5, -0x1
   1af9a: 23 28 f9 0e  	sw	a5, 0xf0(s2)
   1af9e: b9 b1        	j	0x1abec <__loadlocale+0x24c>
   1afa0: da e8        	sd	s6, 0x50(sp)
   1afa2: de e4        	sd	s7, 0x48(sp)
   1afa4: 85 0a        	addi	s5, s5, 0x1
   1afa6: 99 be        	j	0x1aafc <__loadlocale+0x15c>
   1afa8: 97 55 ff ff  	auipc	a1, 0xffff5
   1afac: 93 85 05 44  	addi	a1, a1, 0x440
   1afb0: 52 85        	mv	a0, s4
   1afb2: ef 10 70 14  	jal	0x1c8f8 <strcpy>
   1afb6: 4d b1        	j	0x1ac58 <__loadlocale+0x2b8>
   1afb8: 93 07 50 46  	li	a5, 0x465
   1afbc: e3 0e f5 c8  	beq	a0, a5, 0x1ac58 <__loadlocale+0x2b8>
   1afc0: 13 05 e5 b1  	addi	a0, a0, -0x4e2
   1afc4: a1 47        	li	a5, 0x8
   1afc6: e3 f9 a7 c8  	bgeu	a5, a0, 0x1ac58 <__loadlocale+0x2b8>
   1afca: 31 b6        	j	0x1aad6 <__loadlocale+0x136>
   1afcc: 93 07 a0 36  	li	a5, 0x36a
   1afd0: e3 13 f5 b0  	bne	a0, a5, 0x1aad6 <__loadlocale+0x136>
   1afd4: 51 b1        	j	0x1ac58 <__loadlocale+0x2b8>

000000000001afd6 <__get_locale_env>:
   1afd6: 01 11        	addi	sp, sp, -0x20
   1afd8: 22 e8        	sd	s0, 0x10(sp)
   1afda: 2e 84        	mv	s0, a1
   1afdc: 97 55 ff ff  	auipc	a1, 0xffff5
   1afe0: 93 85 c5 55  	addi	a1, a1, 0x55c
   1afe4: 26 e4        	sd	s1, 0x8(sp)
   1afe6: 06 ec        	sd	ra, 0x18(sp)
   1afe8: aa 84        	mv	s1, a0
   1afea: ef 10 a0 17  	jal	0x1c164 <_getenv_r>
   1afee: 01 c5        	beqz	a0, 0x1aff6 <__get_locale_env+0x20>
   1aff0: 83 47 05 00  	lbu	a5, 0x0(a0)
   1aff4: 9d ef        	bnez	a5, 0x1b032 <__get_locale_env+0x5c>
   1aff6: 93 17 34 00  	slli	a5, s0, 0x3
   1affa: 17 67 ff ff  	auipc	a4, 0xffff6
   1affe: 13 07 67 d1  	addi	a4, a4, -0x2ea
   1b002: ba 97        	add	a5, a5, a4
   1b004: 8c 63        	ld	a1, 0x0(a5)
   1b006: 26 85        	mv	a0, s1
   1b008: ef 10 c0 15  	jal	0x1c164 <_getenv_r>
   1b00c: 01 c5        	beqz	a0, 0x1b014 <__get_locale_env+0x3e>
   1b00e: 83 47 05 00  	lbu	a5, 0x0(a0)
   1b012: 85 e3        	bnez	a5, 0x1b032 <__get_locale_env+0x5c>
   1b014: 97 55 ff ff  	auipc	a1, 0xffff5
   1b018: 93 85 45 45  	addi	a1, a1, 0x454
   1b01c: 26 85        	mv	a0, s1
   1b01e: ef 10 60 14  	jal	0x1c164 <_getenv_r>
   1b022: 01 c5        	beqz	a0, 0x1b02a <__get_locale_env+0x54>
   1b024: 83 47 05 00  	lbu	a5, 0x0(a0)
   1b028: 89 e7        	bnez	a5, 0x1b032 <__get_locale_env+0x5c>
   1b02a: 17 55 00 00  	auipc	a0, 0x5
   1b02e: 13 05 e5 9a  	addi	a0, a0, -0x652
   1b032: e2 60        	ld	ra, 0x18(sp)
   1b034: 42 64        	ld	s0, 0x10(sp)
   1b036: a2 64        	ld	s1, 0x8(sp)
   1b038: 05 61        	addi	sp, sp, 0x20
   1b03a: 82 80        	ret

000000000001b03c <_setlocale_r>:
   1b03c: 1d 71        	addi	sp, sp, -0x60
   1b03e: 4e fc        	sd	s3, 0x38(sp)
   1b040: 86 ec        	sd	ra, 0x58(sp)
   1b042: 56 f4        	sd	s5, 0x28(sp)
   1b044: 99 47        	li	a5, 0x6
   1b046: aa 89        	mv	s3, a0
   1b048: 63 ee b7 12  	bltu	a5, a1, 0x1b184 <_setlocale_r+0x148>
   1b04c: 5a f0        	sd	s6, 0x20(sp)
   1b04e: b2 8a        	mv	s5, a2
   1b050: 2e 8b        	mv	s6, a1
   1b052: 63 0c 06 1e  	beqz	a2, 0x1b24a <_setlocale_r+0x20e>
   1b056: ca e0        	sd	s2, 0x40(sp)
   1b058: 52 f8        	sd	s4, 0x30(sp)
   1b05a: 17 49 00 00  	auipc	s2, 0x4
   1b05e: 13 09 69 7f  	addi	s2, s2, 0x7f6
   1b062: 17 5a 00 00  	auipc	s4, 0x5
   1b066: 13 0a 6a 1c  	addi	s4, s4, 0x1c6
   1b06a: a2 e8        	sd	s0, 0x50(sp)
   1b06c: a6 e4        	sd	s1, 0x48(sp)
   1b06e: 5e ec        	sd	s7, 0x18(sp)
   1b070: ca 84        	mv	s1, s2
   1b072: 97 5b 00 00  	auipc	s7, 0x5
   1b076: 93 8b 6b 27  	addi	s7, s7, 0x276
   1b07a: 52 84        	mv	s0, s4
   1b07c: a6 85        	mv	a1, s1
   1b07e: 22 85        	mv	a0, s0
   1b080: 13 04 04 02  	addi	s0, s0, 0x20
   1b084: ef 10 50 07  	jal	0x1c8f8 <strcpy>
   1b088: 93 84 04 02  	addi	s1, s1, 0x20
   1b08c: e3 18 74 ff  	bne	s0, s7, 0x1b07c <_setlocale_r+0x40>
   1b090: 83 c7 0a 00  	lbu	a5, 0x0(s5)
   1b094: d1 ef        	bnez	a5, 0x1b130 <_setlocale_r+0xf4>
   1b096: 63 18 0b 1c  	bnez	s6, 0x1b266 <_setlocale_r+0x22a>
   1b09a: 97 5a 00 00  	auipc	s5, 0x5
   1b09e: 93 8a ea 18  	addi	s5, s5, 0x18e
   1b0a2: 05 44        	li	s0, 0x1
   1b0a4: 7d 4b        	li	s6, 0x1f
   1b0a6: 9d 4b        	li	s7, 0x7
   1b0a8: a2 85        	mv	a1, s0
   1b0aa: 4e 85        	mv	a0, s3
   1b0ac: ef f0 bf f2  	jal	0x1afd6 <__get_locale_env>
   1b0b0: aa 84        	mv	s1, a0
   1b0b2: ef 10 40 7a  	jal	0x1c856 <strlen>
   1b0b6: aa 87        	mv	a5, a0
   1b0b8: a6 85        	mv	a1, s1
   1b0ba: 56 85        	mv	a0, s5
   1b0bc: 63 6e fb 0a  	bltu	s6, a5, 0x1b178 <_setlocale_r+0x13c>
   1b0c0: 05 24        	addiw	s0, s0, 0x1
   1b0c2: ef 10 70 03  	jal	0x1c8f8 <strcpy>
   1b0c6: 93 8a 0a 02  	addi	s5, s5, 0x20
   1b0ca: e3 1f 74 fd  	bne	s0, s7, 0x1b0a8 <_setlocale_r+0x6c>
   1b0ce: 62 e8        	sd	s8, 0x10(sp)
   1b0d0: 17 5c 00 00  	auipc	s8, 0x5
   1b0d4: 13 0c 8c 07  	addi	s8, s8, 0x78
   1b0d8: 97 5a 00 00  	auipc	s5, 0x5
   1b0dc: 93 8a 0a 15  	addi	s5, s5, 0x150
   1b0e0: e2 84        	mv	s1, s8
   1b0e2: 05 44        	li	s0, 0x1
   1b0e4: 97 4b 00 00  	auipc	s7, 0x4
   1b0e8: 93 8b cb 74  	addi	s7, s7, 0x74c
   1b0ec: 1d 4b        	li	s6, 0x7
   1b0ee: ca 85        	mv	a1, s2
   1b0f0: 26 85        	mv	a0, s1
   1b0f2: ef 10 70 00  	jal	0x1c8f8 <strcpy>
   1b0f6: 56 86        	mv	a2, s5
   1b0f8: a2 85        	mv	a1, s0
   1b0fa: 5e 85        	mv	a0, s7
   1b0fc: ef f0 5f 8a  	jal	0x1a9a0 <__loadlocale>
   1b100: 63 09 05 18  	beqz	a0, 0x1b292 <_setlocale_r+0x256>
   1b104: 05 24        	addiw	s0, s0, 0x1
   1b106: 93 84 04 02  	addi	s1, s1, 0x20
   1b10a: 13 09 09 02  	addi	s2, s2, 0x20
   1b10e: 93 8a 0a 02  	addi	s5, s5, 0x20
   1b112: e3 1e 64 fd  	bne	s0, s6, 0x1b0ee <_setlocale_r+0xb2>
   1b116: 46 64        	ld	s0, 0x50(sp)
   1b118: a6 64        	ld	s1, 0x48(sp)
   1b11a: 06 69        	ld	s2, 0x40(sp)
   1b11c: 42 7a        	ld	s4, 0x30(sp)
   1b11e: 02 7b        	ld	s6, 0x20(sp)
   1b120: e2 6b        	ld	s7, 0x18(sp)
   1b122: 42 6c        	ld	s8, 0x10(sp)
   1b124: e6 60        	ld	ra, 0x58(sp)
   1b126: e2 79        	ld	s3, 0x38(sp)
   1b128: a2 7a        	ld	s5, 0x28(sp)
   1b12a: 25 61        	addi	sp, sp, 0x60
   1b12c: 6f f0 4f fd  	j	0x1a900 <currentlocale>
   1b130: 63 03 0b 06  	beqz	s6, 0x1b196 <_setlocale_r+0x15a>
   1b134: 56 85        	mv	a0, s5
   1b136: ef 10 00 72  	jal	0x1c856 <strlen>
   1b13a: fd 47        	li	a5, 0x1f
   1b13c: 63 ee a7 02  	bltu	a5, a0, 0x1b178 <_setlocale_r+0x13c>
   1b140: 13 14 5b 00  	slli	s0, s6, 0x5
   1b144: 97 57 00 00  	auipc	a5, 0x5
   1b148: 93 87 47 0c  	addi	a5, a5, 0xc4
   1b14c: 3e 94        	add	s0, s0, a5
   1b14e: d6 85        	mv	a1, s5
   1b150: 22 85        	mv	a0, s0
   1b152: ef 10 60 7a  	jal	0x1c8f8 <strcpy>
   1b156: 22 86        	mv	a2, s0
   1b158: 46 64        	ld	s0, 0x50(sp)
   1b15a: a6 64        	ld	s1, 0x48(sp)
   1b15c: 06 69        	ld	s2, 0x40(sp)
   1b15e: 42 7a        	ld	s4, 0x30(sp)
   1b160: e2 6b        	ld	s7, 0x18(sp)
   1b162: e6 60        	ld	ra, 0x58(sp)
   1b164: e2 79        	ld	s3, 0x38(sp)
   1b166: a2 7a        	ld	s5, 0x28(sp)
   1b168: da 85        	mv	a1, s6
   1b16a: 02 7b        	ld	s6, 0x20(sp)
   1b16c: 17 45 00 00  	auipc	a0, 0x4
   1b170: 13 05 45 6c  	addi	a0, a0, 0x6c4
   1b174: 25 61        	addi	sp, sp, 0x60
   1b176: 2d b0        	j	0x1a9a0 <__loadlocale>
   1b178: 46 64        	ld	s0, 0x50(sp)
   1b17a: a6 64        	ld	s1, 0x48(sp)
   1b17c: 06 69        	ld	s2, 0x40(sp)
   1b17e: 42 7a        	ld	s4, 0x30(sp)
   1b180: 02 7b        	ld	s6, 0x20(sp)
   1b182: e2 6b        	ld	s7, 0x18(sp)
   1b184: d9 4a        	li	s5, 0x16
   1b186: e6 60        	ld	ra, 0x58(sp)
   1b188: 23 a0 59 01  	sw	s5, 0x0(s3)
   1b18c: 01 45        	li	a0, 0x0
   1b18e: e2 79        	ld	s3, 0x38(sp)
   1b190: a2 7a        	ld	s5, 0x28(sp)
   1b192: 25 61        	addi	sp, sp, 0x60
   1b194: 82 80        	ret
   1b196: 93 05 f0 02  	li	a1, 0x2f
   1b19a: 56 85        	mv	a0, s5
   1b19c: ef 00 40 22  	jal	0x1b3c0 <strchr>
   1b1a0: 2a 84        	mv	s0, a0
   1b1a2: 63 0b 05 14  	beqz	a0, 0x1b2f8 <_setlocale_r+0x2bc>
   1b1a6: 83 47 15 00  	lbu	a5, 0x1(a0)
   1b1aa: 93 06 f0 02  	li	a3, 0x2f
   1b1ae: 13 07 f0 02  	li	a4, 0x2f
   1b1b2: 63 97 d7 00  	bne	a5, a3, 0x1b1c0 <_setlocale_r+0x184>
   1b1b6: 83 47 24 00  	lbu	a5, 0x2(s0)
   1b1ba: 05 04        	addi	s0, s0, 0x1
   1b1bc: e3 8d e7 fe  	beq	a5, a4, 0x1b1b6 <_setlocale_r+0x17a>
   1b1c0: c5 df        	beqz	a5, 0x1b178 <_setlocale_r+0x13c>
   1b1c2: 62 e8        	sd	s8, 0x10(sp)
   1b1c4: 66 e4        	sd	s9, 0x8(sp)
   1b1c6: 05 4b        	li	s6, 0x1
   1b1c8: 97 5c 00 00  	auipc	s9, 0x5
   1b1cc: 93 8c 0c 06  	addi	s9, s9, 0x60
   1b1d0: fd 4b        	li	s7, 0x1f
   1b1d2: 93 04 f0 02  	li	s1, 0x2f
   1b1d6: 1d 4c        	li	s8, 0x7
   1b1d8: 3b 06 54 41  	subw	a2, s0, s5
   1b1dc: 63 c2 cb 14  	blt	s7, a2, 0x1b320 <_setlocale_r+0x2e4>
   1b1e0: 05 26        	addiw	a2, a2, 0x1
   1b1e2: d6 85        	mv	a1, s5
   1b1e4: 66 85        	mv	a0, s9
   1b1e6: ef 10 00 05  	jal	0x1c236 <strlcpy>
   1b1ea: 83 47 04 00  	lbu	a5, 0x0(s0)
   1b1ee: 05 2b        	addiw	s6, s6, 0x1
   1b1f0: 63 97 97 00  	bne	a5, s1, 0x1b1fe <_setlocale_r+0x1c2>
   1b1f4: 83 47 14 00  	lbu	a5, 0x1(s0)
   1b1f8: 05 04        	addi	s0, s0, 0x1
   1b1fa: e3 8d 97 fe  	beq	a5, s1, 0x1b1f4 <_setlocale_r+0x1b8>
   1b1fe: 99 cf        	beqz	a5, 0x1b21c <_setlocale_r+0x1e0>
   1b200: a2 87        	mv	a5, s0
   1b202: 03 c7 17 00  	lbu	a4, 0x1(a5)
   1b206: 85 07        	addi	a5, a5, 0x1
   1b208: 19 c3        	beqz	a4, 0x1b20e <_setlocale_r+0x1d2>
   1b20a: e3 1c 97 fe  	bne	a4, s1, 0x1b202 <_setlocale_r+0x1c6>
   1b20e: 93 8c 0c 02  	addi	s9, s9, 0x20
   1b212: 63 0a 8b 03  	beq	s6, s8, 0x1b246 <_setlocale_r+0x20a>
   1b216: a2 8a        	mv	s5, s0
   1b218: 3e 84        	mv	s0, a5
   1b21a: 7d bf        	j	0x1b1d8 <_setlocale_r+0x19c>
   1b21c: 9d 47        	li	a5, 0x7
   1b21e: 63 04 fb 02  	beq	s6, a5, 0x1b246 <_setlocale_r+0x20a>
   1b222: 13 14 5b 00  	slli	s0, s6, 0x5
   1b226: 97 57 00 00  	auipc	a5, 0x5
   1b22a: 93 87 27 fe  	addi	a5, a5, -0x1e
   1b22e: 3e 94        	add	s0, s0, a5
   1b230: 9d 44        	li	s1, 0x7
   1b232: 93 05 04 fe  	addi	a1, s0, -0x20
   1b236: 22 85        	mv	a0, s0
   1b238: 05 2b        	addiw	s6, s6, 0x1
   1b23a: ef 10 e0 6b  	jal	0x1c8f8 <strcpy>
   1b23e: 13 04 04 02  	addi	s0, s0, 0x20
   1b242: e3 18 9b fe  	bne	s6, s1, 0x1b232 <_setlocale_r+0x1f6>
   1b246: a2 6c        	ld	s9, 0x8(sp)
   1b248: 61 b5        	j	0x1b0d0 <_setlocale_r+0x94>
   1b24a: cd c5        	beqz	a1, 0x1b2f4 <_setlocale_r+0x2b8>
   1b24c: e6 60        	ld	ra, 0x58(sp)
   1b24e: 13 95 55 00  	slli	a0, a1, 0x5
   1b252: 97 47 00 00  	auipc	a5, 0x4
   1b256: 93 87 e7 5d  	addi	a5, a5, 0x5de
   1b25a: 02 7b        	ld	s6, 0x20(sp)
   1b25c: e2 79        	ld	s3, 0x38(sp)
   1b25e: a2 7a        	ld	s5, 0x28(sp)
   1b260: 3e 95        	add	a0, a0, a5
   1b262: 25 61        	addi	sp, sp, 0x60
   1b264: 82 80        	ret
   1b266: da 85        	mv	a1, s6
   1b268: 4e 85        	mv	a0, s3
   1b26a: ef f0 df d6  	jal	0x1afd6 <__get_locale_env>
   1b26e: aa 84        	mv	s1, a0
   1b270: ef 10 60 5e  	jal	0x1c856 <strlen>
   1b274: fd 47        	li	a5, 0x1f
   1b276: e3 e1 a7 f0  	bltu	a5, a0, 0x1b178 <_setlocale_r+0x13c>
   1b27a: 13 14 5b 00  	slli	s0, s6, 0x5
   1b27e: 97 57 00 00  	auipc	a5, 0x5
   1b282: 93 87 a7 f8  	addi	a5, a5, -0x76
   1b286: 3e 94        	add	s0, s0, a5
   1b288: a6 85        	mv	a1, s1
   1b28a: 22 85        	mv	a0, s0
   1b28c: ef 10 c0 66  	jal	0x1c8f8 <strcpy>
   1b290: d9 b5        	j	0x1b156 <_setlocale_r+0x11a>
   1b292: 85 44        	li	s1, 0x1
   1b294: 83 aa 09 00  	lw	s5, 0x0(s3)
   1b298: 17 49 00 00  	auipc	s2, 0x4
   1b29c: 13 09 89 59  	addi	s2, s2, 0x598
   1b2a0: 17 5b ff ff  	auipc	s6, 0xffff5
   1b2a4: 13 0b 8b 2c  	addi	s6, s6, 0x2c8
   1b2a8: 63 1a 94 00  	bne	s0, s1, 0x1b2bc <_setlocale_r+0x280>
   1b2ac: 25 a8        	j	0x1b2e4 <_setlocale_r+0x2a8>
   1b2ae: 85 24        	addiw	s1, s1, 0x1
   1b2b0: 13 0a 0a 02  	addi	s4, s4, 0x20
   1b2b4: 13 0c 0c 02  	addi	s8, s8, 0x20
   1b2b8: 63 86 84 02  	beq	s1, s0, 0x1b2e4 <_setlocale_r+0x2a8>
   1b2bc: e2 85        	mv	a1, s8
   1b2be: 52 85        	mv	a0, s4
   1b2c0: ef 10 80 63  	jal	0x1c8f8 <strcpy>
   1b2c4: 52 86        	mv	a2, s4
   1b2c6: a6 85        	mv	a1, s1
   1b2c8: 4a 85        	mv	a0, s2
   1b2ca: ef f0 6f ed  	jal	0x1a9a0 <__loadlocale>
   1b2ce: 65 f1        	bnez	a0, 0x1b2ae <_setlocale_r+0x272>
   1b2d0: da 85        	mv	a1, s6
   1b2d2: 52 85        	mv	a0, s4
   1b2d4: ef 10 40 62  	jal	0x1c8f8 <strcpy>
   1b2d8: 52 86        	mv	a2, s4
   1b2da: a6 85        	mv	a1, s1
   1b2dc: 4a 85        	mv	a0, s2
   1b2de: ef f0 2f ec  	jal	0x1a9a0 <__loadlocale>
   1b2e2: f1 b7        	j	0x1b2ae <_setlocale_r+0x272>
   1b2e4: 46 64        	ld	s0, 0x50(sp)
   1b2e6: a6 64        	ld	s1, 0x48(sp)
   1b2e8: 06 69        	ld	s2, 0x40(sp)
   1b2ea: 42 7a        	ld	s4, 0x30(sp)
   1b2ec: 02 7b        	ld	s6, 0x20(sp)
   1b2ee: e2 6b        	ld	s7, 0x18(sp)
   1b2f0: 42 6c        	ld	s8, 0x10(sp)
   1b2f2: 51 bd        	j	0x1b186 <_setlocale_r+0x14a>
   1b2f4: 02 7b        	ld	s6, 0x20(sp)
   1b2f6: 3d b5        	j	0x1b124 <_setlocale_r+0xe8>
   1b2f8: 56 85        	mv	a0, s5
   1b2fa: ef 10 c0 55  	jal	0x1c856 <strlen>
   1b2fe: fd 47        	li	a5, 0x1f
   1b300: e3 ec a7 e6  	bltu	a5, a0, 0x1b178 <_setlocale_r+0x13c>
   1b304: 62 e8        	sd	s8, 0x10(sp)
   1b306: 17 54 00 00  	auipc	s0, 0x5
   1b30a: 13 04 24 f2  	addi	s0, s0, -0xde
   1b30e: 22 85        	mv	a0, s0
   1b310: d6 85        	mv	a1, s5
   1b312: 13 04 04 02  	addi	s0, s0, 0x20
   1b316: ef 10 20 5e  	jal	0x1c8f8 <strcpy>
   1b31a: e3 1a 74 ff  	bne	s0, s7, 0x1b30e <_setlocale_r+0x2d2>
   1b31e: 4d bb        	j	0x1b0d0 <_setlocale_r+0x94>
   1b320: 46 64        	ld	s0, 0x50(sp)
   1b322: a6 64        	ld	s1, 0x48(sp)
   1b324: 06 69        	ld	s2, 0x40(sp)
   1b326: 42 7a        	ld	s4, 0x30(sp)
   1b328: 02 7b        	ld	s6, 0x20(sp)
   1b32a: e2 6b        	ld	s7, 0x18(sp)
   1b32c: 42 6c        	ld	s8, 0x10(sp)
   1b32e: a2 6c        	ld	s9, 0x8(sp)
   1b330: 91 bd        	j	0x1b184 <_setlocale_r+0x148>

000000000001b332 <__locale_mb_cur_max>:
   1b332: 17 45 00 00  	auipc	a0, 0x4
   1b336: 03 45 e5 65  	lbu	a0, 0x65e(a0)
   1b33a: 82 80        	ret

000000000001b33c <setlocale>:
   1b33c: 2e 86        	mv	a2, a1
   1b33e: aa 85        	mv	a1, a0
   1b340: 17 55 00 00  	auipc	a0, 0x5
   1b344: 03 35 85 83  	ld	a0, -0x7c8(a0)
   1b348: d5 b9        	j	0x1b03c <_setlocale_r>

000000000001b34a <strcat>:
   1b34a: 41 11        	addi	sp, sp, -0x10
   1b34c: 22 e0        	sd	s0, 0x0(sp)
   1b34e: 06 e4        	sd	ra, 0x8(sp)
   1b350: 93 77 75 00  	andi	a5, a0, 0x7
   1b354: 2a 84        	mv	s0, a0
   1b356: b9 e7        	bnez	a5, 0x1b3a4 <strcat+0x5a>
   1b358: 37 06 ff fe  	lui	a2, 0xfeff0
   1b35c: 13 06 f6 ef  	addi	a2, a2, -0x101
   1b360: b7 16 10 f0  	lui	a3, 0xf0101
   1b364: 42 06        	slli	a2, a2, 0x10
   1b366: 92 06        	slli	a3, a3, 0x4
   1b368: 18 61        	ld	a4, 0x0(a0)
   1b36a: 13 06 f6 ef  	addi	a2, a2, -0x101
   1b36e: 93 86 16 10  	addi	a3, a3, 0x101
   1b372: 42 06        	slli	a2, a2, 0x10
   1b374: c2 06        	slli	a3, a3, 0x10
   1b376: 13 06 f6 ef  	addi	a2, a2, -0x101
   1b37a: 93 86 16 10  	addi	a3, a3, 0x101
   1b37e: b3 07 c7 00  	add	a5, a4, a2
   1b382: be 06        	slli	a3, a3, 0xf
   1b384: 13 47 f7 ff  	not	a4, a4
   1b388: f9 8f        	and	a5, a5, a4
   1b38a: 93 86 06 08  	addi	a3, a3, 0x80
   1b38e: f5 8f        	and	a5, a5, a3
   1b390: 91 eb        	bnez	a5, 0x1b3a4 <strcat+0x5a>
   1b392: 18 65        	ld	a4, 0x8(a0)
   1b394: 21 05        	addi	a0, a0, 0x8
   1b396: b3 07 c7 00  	add	a5, a4, a2
   1b39a: 13 47 f7 ff  	not	a4, a4
   1b39e: f9 8f        	and	a5, a5, a4
   1b3a0: f5 8f        	and	a5, a5, a3
   1b3a2: e5 db        	beqz	a5, 0x1b392 <strcat+0x48>
   1b3a4: 83 47 05 00  	lbu	a5, 0x0(a0)
   1b3a8: 89 c7        	beqz	a5, 0x1b3b2 <strcat+0x68>
   1b3aa: 83 47 15 00  	lbu	a5, 0x1(a0)
   1b3ae: 05 05        	addi	a0, a0, 0x1
   1b3b0: ed ff        	bnez	a5, 0x1b3aa <strcat+0x60>
   1b3b2: ef 10 60 54  	jal	0x1c8f8 <strcpy>
   1b3b6: a2 60        	ld	ra, 0x8(sp)
   1b3b8: 22 85        	mv	a0, s0
   1b3ba: 02 64        	ld	s0, 0x0(sp)
   1b3bc: 41 01        	addi	sp, sp, 0x10
   1b3be: 82 80        	ret

000000000001b3c0 <strchr>:
   1b3c0: 93 f5 f5 0f  	andi	a1, a1, 0xff
   1b3c4: 93 77 75 00  	andi	a5, a0, 0x7
   1b3c8: dd c9        	beqz	a1, 0x1b47e <strchr+0xbe>
   1b3ca: 91 cb        	beqz	a5, 0x1b3de <strchr+0x1e>
   1b3cc: 83 47 05 00  	lbu	a5, 0x0(a0)
   1b3d0: cd c7        	beqz	a5, 0x1b47a <strchr+0xba>
   1b3d2: 63 85 b7 0a  	beq	a5, a1, 0x1b47c <strchr+0xbc>
   1b3d6: 05 05        	addi	a0, a0, 0x1
   1b3d8: 93 77 75 00  	andi	a5, a0, 0x7
   1b3dc: e5 fb        	bnez	a5, 0x1b3cc <strchr+0xc>
   1b3de: b7 07 01 01  	lui	a5, 0x1010
   1b3e2: 93 87 17 10  	addi	a5, a5, 0x101
   1b3e6: c2 07        	slli	a5, a5, 0x10
   1b3e8: 93 87 17 10  	addi	a5, a5, 0x101
   1b3ec: c2 07        	slli	a5, a5, 0x10
   1b3ee: 93 87 17 10  	addi	a5, a5, 0x101
   1b3f2: 33 83 f5 02  	mul	t1, a1, a5
   1b3f6: 18 61        	ld	a4, 0x0(a0)
   1b3f8: b7 18 10 f0  	lui	a7, 0xf0101
   1b3fc: 92 08        	slli	a7, a7, 0x4
   1b3fe: 93 88 18 10  	addi	a7, a7, 0x101
   1b402: b3 06 f7 40  	sub	a3, a4, a5
   1b406: 13 46 f7 ff  	not	a2, a4
   1b40a: c2 08        	slli	a7, a7, 0x10
   1b40c: 93 88 18 10  	addi	a7, a7, 0x101
   1b410: f1 8e        	and	a3, a3, a2
   1b412: 33 47 e3 00  	xor	a4, t1, a4
   1b416: b3 07 f7 40  	sub	a5, a4, a5
   1b41a: 13 47 f7 ff  	not	a4, a4
   1b41e: f9 8f        	and	a5, a5, a4
   1b420: be 08        	slli	a7, a7, 0xf
   1b422: d5 8f        	or	a5, a5, a3
   1b424: 93 88 08 08  	addi	a7, a7, 0x80
   1b428: b3 f7 17 01  	and	a5, a5, a7
   1b42c: 95 ef        	bnez	a5, 0x1b468 <strchr+0xa8>
   1b42e: 37 08 ff fe  	lui	a6, 0xfeff0
   1b432: 13 08 f8 ef  	addi	a6, a6, -0x101
   1b436: 42 08        	slli	a6, a6, 0x10
   1b438: 13 08 f8 ef  	addi	a6, a6, -0x101
   1b43c: 42 08        	slli	a6, a6, 0x10
   1b43e: 13 08 f8 ef  	addi	a6, a6, -0x101
   1b442: 18 65        	ld	a4, 0x8(a0)
   1b444: 21 05        	addi	a0, a0, 0x8
   1b446: b3 46 e3 00  	xor	a3, t1, a4
   1b44a: b3 07 07 01  	add	a5, a4, a6
   1b44e: 33 86 06 01  	add	a2, a3, a6
   1b452: 13 47 f7 ff  	not	a4, a4
   1b456: 93 c6 f6 ff  	not	a3, a3
   1b45a: f9 8f        	and	a5, a5, a4
   1b45c: 33 77 d6 00  	and	a4, a2, a3
   1b460: d9 8f        	or	a5, a5, a4
   1b462: b3 f7 17 01  	and	a5, a5, a7
   1b466: f1 df        	beqz	a5, 0x1b442 <strchr+0x82>
   1b468: 83 47 05 00  	lbu	a5, 0x0(a0)
   1b46c: 99 c7        	beqz	a5, 0x1b47a <strchr+0xba>
   1b46e: 63 8e f5 06  	beq	a1, a5, 0x1b4ea <strchr+0x12a>
   1b472: 83 47 15 00  	lbu	a5, 0x1(a0)
   1b476: 05 05        	addi	a0, a0, 0x1
   1b478: fd fb        	bnez	a5, 0x1b46e <strchr+0xae>
   1b47a: 01 45        	li	a0, 0x0
   1b47c: 82 80        	ret
   1b47e: 81 cb        	beqz	a5, 0x1b48e <strchr+0xce>
   1b480: 83 47 05 00  	lbu	a5, 0x0(a0)
   1b484: e5 df        	beqz	a5, 0x1b47c <strchr+0xbc>
   1b486: 05 05        	addi	a0, a0, 0x1
   1b488: 93 77 75 00  	andi	a5, a0, 0x7
   1b48c: f5 fb        	bnez	a5, 0x1b480 <strchr+0xc0>
   1b48e: 37 06 ff fe  	lui	a2, 0xfeff0
   1b492: 13 06 f6 ef  	addi	a2, a2, -0x101
   1b496: b7 16 10 f0  	lui	a3, 0xf0101
   1b49a: 42 06        	slli	a2, a2, 0x10
   1b49c: 92 06        	slli	a3, a3, 0x4
   1b49e: 18 61        	ld	a4, 0x0(a0)
   1b4a0: 13 06 f6 ef  	addi	a2, a2, -0x101
   1b4a4: 93 86 16 10  	addi	a3, a3, 0x101
   1b4a8: 42 06        	slli	a2, a2, 0x10
   1b4aa: c2 06        	slli	a3, a3, 0x10
   1b4ac: 13 06 f6 ef  	addi	a2, a2, -0x101
   1b4b0: 93 86 16 10  	addi	a3, a3, 0x101
   1b4b4: b3 07 c7 00  	add	a5, a4, a2
   1b4b8: be 06        	slli	a3, a3, 0xf
   1b4ba: 13 47 f7 ff  	not	a4, a4
   1b4be: f9 8f        	and	a5, a5, a4
   1b4c0: 93 86 06 08  	addi	a3, a3, 0x80
   1b4c4: f5 8f        	and	a5, a5, a3
   1b4c6: 91 eb        	bnez	a5, 0x1b4da <strchr+0x11a>
   1b4c8: 18 65        	ld	a4, 0x8(a0)
   1b4ca: 21 05        	addi	a0, a0, 0x8
   1b4cc: b3 07 c7 00  	add	a5, a4, a2
   1b4d0: 13 47 f7 ff  	not	a4, a4
   1b4d4: f9 8f        	and	a5, a5, a4
   1b4d6: f5 8f        	and	a5, a5, a3
   1b4d8: e5 db        	beqz	a5, 0x1b4c8 <strchr+0x108>
   1b4da: 83 47 05 00  	lbu	a5, 0x0(a0)
   1b4de: d9 df        	beqz	a5, 0x1b47c <strchr+0xbc>
   1b4e0: 83 47 15 00  	lbu	a5, 0x1(a0)
   1b4e4: 05 05        	addi	a0, a0, 0x1
   1b4e6: ed ff        	bnez	a5, 0x1b4e0 <strchr+0x120>
   1b4e8: 82 80        	ret
   1b4ea: 82 80        	ret

000000000001b4ec <strcasecmp>:
   1b4ec: aa 86        	mv	a3, a0
   1b4ee: 17 68 ff ff  	auipc	a6, 0xffff6
   1b4f2: 13 08 b8 85  	addi	a6, a6, -0x7a5
   1b4f6: 05 46        	li	a2, 0x1
   1b4f8: 83 c7 06 00  	lbu	a5, 0x0(a3)
   1b4fc: 85 05        	addi	a1, a1, 0x1
   1b4fe: 85 06        	addi	a3, a3, 0x1
   1b500: 33 07 f8 00  	add	a4, a6, a5
   1b504: 03 47 07 00  	lbu	a4, 0x0(a4)
   1b508: 81 27        	sext.w	a5, a5
   1b50a: 0d 8b        	andi	a4, a4, 0x3
   1b50c: 63 14 c7 00  	bne	a4, a2, 0x1b514 <strcasecmp+0x28>
   1b510: 93 87 07 02  	addi	a5, a5, 0x20
   1b514: 03 c5 f5 ff  	lbu	a0, -0x1(a1)
   1b518: 33 07 a8 00  	add	a4, a6, a0
   1b51c: 03 47 07 00  	lbu	a4, 0x0(a4)
   1b520: 01 25        	sext.w	a0, a0
   1b522: bb 88 a7 40  	subw	a7, a5, a0
   1b526: 0d 8b        	andi	a4, a4, 0x3
   1b528: 63 06 c7 00  	beq	a4, a2, 0x1b534 <strcasecmp+0x48>
   1b52c: 63 9a 08 00  	bnez	a7, 0x1b540 <strcasecmp+0x54>
   1b530: 61 f5        	bnez	a0, 0x1b4f8 <strcasecmp+0xc>
   1b532: 82 80        	ret
   1b534: 1b 05 05 02  	addiw	a0, a0, 0x20
   1b538: 3b 85 a7 40  	subw	a0, a5, a0
   1b53c: 55 dd        	beqz	a0, 0x1b4f8 <strcasecmp+0xc>
   1b53e: 82 80        	ret
   1b540: 46 85        	mv	a0, a7
   1b542: 82 80        	ret

000000000001b544 <__set_ctype>:
   1b544: 97 67 ff ff  	auipc	a5, 0xffff6
   1b548: 93 87 47 80  	addi	a5, a5, -0x7fc
   1b54c: 7c fd        	sd	a5, 0xf8(a0)
   1b54e: 82 80        	ret

000000000001b550 <_mbtowc_r>:
   1b550: 97 47 00 00  	auipc	a5, 0x4
   1b554: 83 b7 87 3c  	ld	a5, 0x3c8(a5)
   1b558: 82 87        	jr	a5

000000000001b55a <__ascii_mbtowc>:
   1b55a: 99 c9        	beqz	a1, 0x1b570 <__ascii_mbtowc+0x16>
   1b55c: 1d c6        	beqz	a2, 0x1b58a <__ascii_mbtowc+0x30>
   1b55e: 95 ca        	beqz	a3, 0x1b592 <__ascii_mbtowc+0x38>
   1b560: 83 47 06 00  	lbu	a5, 0x0(a2)
   1b564: 9c c1        	sw	a5, 0x0(a1)
   1b566: 03 45 06 00  	lbu	a0, 0x0(a2)
   1b56a: 33 35 a0 00  	snez	a0, a0
   1b56e: 82 80        	ret
   1b570: 41 11        	addi	sp, sp, -0x10
   1b572: 6c 00        	addi	a1, sp, 0xc
   1b574: 09 ce        	beqz	a2, 0x1b58e <__ascii_mbtowc+0x34>
   1b576: 85 c2        	beqz	a3, 0x1b596 <__ascii_mbtowc+0x3c>
   1b578: 83 47 06 00  	lbu	a5, 0x0(a2)
   1b57c: 9c c1        	sw	a5, 0x0(a1)
   1b57e: 03 45 06 00  	lbu	a0, 0x0(a2)
   1b582: 33 35 a0 00  	snez	a0, a0
   1b586: 41 01        	addi	sp, sp, 0x10
   1b588: 82 80        	ret
   1b58a: 01 45        	li	a0, 0x0
   1b58c: 82 80        	ret
   1b58e: 01 45        	li	a0, 0x0
   1b590: dd bf        	j	0x1b586 <__ascii_mbtowc+0x2c>
   1b592: 79 55        	li	a0, -0x2
   1b594: 82 80        	ret
   1b596: 79 55        	li	a0, -0x2
   1b598: fd b7        	j	0x1b586 <__ascii_mbtowc+0x2c>

000000000001b59a <__utf8_mbtowc>:
   1b59a: 41 11        	addi	sp, sp, -0x10
   1b59c: aa 8e        	mv	t4, a0
   1b59e: c9 c5        	beqz	a1, 0x1b628 <__utf8_mbtowc+0x8e>
   1b5a0: 49 c2        	beqz	a2, 0x1b622 <__utf8_mbtowc+0x88>
   1b5a2: 63 80 06 22  	beqz	a3, 0x1b7c2 <__utf8_mbtowc+0x228>
   1b5a6: 03 28 07 00  	lw	a6, 0x0(a4)
   1b5aa: 63 14 08 06  	bnez	a6, 0x1b612 <__utf8_mbtowc+0x78>
   1b5ae: 83 47 06 00  	lbu	a5, 0x0(a2)
   1b5b2: 05 45        	li	a0, 0x1
   1b5b4: bd c3        	beqz	a5, 0x1b61a <__utf8_mbtowc+0x80>
   1b5b6: 93 08 f0 07  	li	a7, 0x7f
   1b5ba: 63 da f8 0e  	bge	a7, a5, 0x1b6ae <__utf8_mbtowc+0x114>
   1b5be: 1b 83 07 f4  	addiw	t1, a5, -0xc0
   1b5c2: 7d 4e        	li	t3, 0x1f
   1b5c4: 9b 88 07 00  	sext.w	a7, a5
   1b5c8: 63 62 6e 06  	bltu	t3, t1, 0x1b62c <__utf8_mbtowc+0x92>
   1b5cc: 23 02 f7 00  	sb	a5, 0x4(a4)
   1b5d0: 63 17 08 00  	bnez	a6, 0x1b5de <__utf8_mbtowc+0x44>
   1b5d4: 05 48        	li	a6, 0x1
   1b5d6: 23 20 07 01  	sw	a6, 0x0(a4)
   1b5da: 63 84 06 1f  	beq	a3, a6, 0x1b7c2 <__utf8_mbtowc+0x228>
   1b5de: 2a 96        	add	a2, a2, a0
   1b5e0: 83 46 06 00  	lbu	a3, 0x0(a2)
   1b5e4: 13 06 f0 03  	li	a2, 0x3f
   1b5e8: 05 25        	addiw	a0, a0, 0x1
   1b5ea: 1b 88 06 f8  	addiw	a6, a3, -0x80
   1b5ee: 63 6f 06 1b  	bltu	a2, a6, 0x1b7ac <__utf8_mbtowc+0x212>
   1b5f2: 13 06 10 0c  	li	a2, 0xc1
   1b5f6: 63 5b f6 1a  	bge	a2, a5, 0x1b7ac <__utf8_mbtowc+0x212>
   1b5fa: 9b 97 67 00  	slliw	a5, a5, 0x6
   1b5fe: 93 f7 07 7c  	andi	a5, a5, 0x7c0
   1b602: 93 f6 f6 03  	andi	a3, a3, 0x3f
   1b606: 23 20 07 00  	sw	zero, 0x0(a4)
   1b60a: d5 8f        	or	a5, a5, a3
   1b60c: 9c c1        	sw	a5, 0x0(a1)
   1b60e: 41 01        	addi	sp, sp, 0x10
   1b610: 82 80        	ret
   1b612: 83 47 47 00  	lbu	a5, 0x4(a4)
   1b616: 01 45        	li	a0, 0x0
   1b618: d9 ff        	bnez	a5, 0x1b5b6 <__utf8_mbtowc+0x1c>
   1b61a: 23 a0 05 00  	sw	zero, 0x0(a1)
   1b61e: 23 20 07 00  	sw	zero, 0x0(a4)
   1b622: 01 45        	li	a0, 0x0
   1b624: 41 01        	addi	sp, sp, 0x10
   1b626: 82 80        	ret
   1b628: 6c 00        	addi	a1, sp, 0xc
   1b62a: 9d bf        	j	0x1b5a0 <__utf8_mbtowc+0x6>
   1b62c: 1b 83 08 f2  	addiw	t1, a7, -0xe0
   1b630: 3d 4e        	li	t3, 0xf
   1b632: 63 64 6e 08  	bltu	t3, t1, 0x1b6ba <__utf8_mbtowc+0x120>
   1b636: 23 02 f7 00  	sb	a5, 0x4(a4)
   1b63a: 63 0d 08 12  	beqz	a6, 0x1b774 <__utf8_mbtowc+0x1da>
   1b63e: 93 88 16 00  	addi	a7, a3, 0x1
   1b642: b3 38 10 01  	snez	a7, a7
   1b646: 05 43        	li	t1, 0x1
   1b648: c6 96        	add	a3, a3, a7
   1b64a: 63 0a 68 12  	beq	a6, t1, 0x1b77e <__utf8_mbtowc+0x1e4>
   1b64e: 83 48 57 00  	lbu	a7, 0x5(a4)
   1b652: 13 03 00 0e  	li	t1, 0xe0
   1b656: 63 87 67 14  	beq	a5, t1, 0x1b7a4 <__utf8_mbtowc+0x20a>
   1b65a: 1b 83 08 f8  	addiw	t1, a7, -0x80
   1b65e: 13 0e f0 03  	li	t3, 0x3f
   1b662: 63 65 6e 14  	bltu	t3, t1, 0x1b7ac <__utf8_mbtowc+0x212>
   1b666: a3 02 17 01  	sb	a7, 0x5(a4)
   1b66a: 05 43        	li	t1, 0x1
   1b66c: 63 06 68 14  	beq	a6, t1, 0x1b7b8 <__utf8_mbtowc+0x21e>
   1b670: 2a 96        	add	a2, a2, a0
   1b672: 83 46 06 00  	lbu	a3, 0x0(a2)
   1b676: 13 06 f0 03  	li	a2, 0x3f
   1b67a: 05 25        	addiw	a0, a0, 0x1
   1b67c: 1b 88 06 f8  	addiw	a6, a3, -0x80
   1b680: 63 66 06 13  	bltu	a2, a6, 0x1b7ac <__utf8_mbtowc+0x212>
   1b684: 05 66        	lui	a2, 0x1
   1b686: 9b 97 c7 00  	slliw	a5, a5, 0xc
   1b68a: 9b 98 68 00  	slliw	a7, a7, 0x6
   1b68e: 13 06 06 fc  	addi	a2, a2, -0x40
   1b692: 3d 68        	lui	a6, 0xf
   1b694: b3 f7 07 01  	and	a5, a5, a6
   1b698: b3 f8 c8 00  	and	a7, a7, a2
   1b69c: b3 e7 17 01  	or	a5, a5, a7
   1b6a0: 93 f6 f6 03  	andi	a3, a3, 0x3f
   1b6a4: 23 20 07 00  	sw	zero, 0x0(a4)
   1b6a8: d5 8f        	or	a5, a5, a3
   1b6aa: 9c c1        	sw	a5, 0x0(a1)
   1b6ac: a5 bf        	j	0x1b624 <__utf8_mbtowc+0x8a>
   1b6ae: 23 20 07 00  	sw	zero, 0x0(a4)
   1b6b2: 9c c1        	sw	a5, 0x0(a1)
   1b6b4: 05 45        	li	a0, 0x1
   1b6b6: 41 01        	addi	sp, sp, 0x10
   1b6b8: 82 80        	ret
   1b6ba: 1b 83 08 f1  	addiw	t1, a7, -0xf0
   1b6be: 11 4e        	li	t3, 0x4
   1b6c0: 63 66 6e 0e  	bltu	t3, t1, 0x1b7ac <__utf8_mbtowc+0x212>
   1b6c4: 23 02 f7 00  	sb	a5, 0x4(a4)
   1b6c8: 63 02 08 0c  	beqz	a6, 0x1b78c <__utf8_mbtowc+0x1f2>
   1b6cc: 13 83 16 00  	addi	t1, a3, 0x1
   1b6d0: 33 33 60 00  	snez	t1, t1
   1b6d4: 05 4e        	li	t3, 0x1
   1b6d6: 9a 96        	add	a3, a3, t1
   1b6d8: 63 0f c8 0b  	beq	a6, t3, 0x1b796 <__utf8_mbtowc+0x1fc>
   1b6dc: 03 43 57 00  	lbu	t1, 0x5(a4)
   1b6e0: 13 0e 00 0f  	li	t3, 0xf0
   1b6e4: 63 81 c7 0f  	beq	a5, t3, 0x1b7c6 <__utf8_mbtowc+0x22c>
   1b6e8: 13 0e 40 0f  	li	t3, 0xf4
   1b6ec: 63 8c c7 11  	beq	a5, t3, 0x1b804 <__utf8_mbtowc+0x26a>
   1b6f0: 9b 07 03 f8  	addiw	a5, t1, -0x80
   1b6f4: 13 0e f0 03  	li	t3, 0x3f
   1b6f8: 9b 0f 03 00  	sext.w	t6, t1
   1b6fc: 63 68 fe 0a  	bltu	t3, a5, 0x1b7ac <__utf8_mbtowc+0x212>
   1b700: a3 02 67 00  	sb	t1, 0x5(a4)
   1b704: 85 47        	li	a5, 0x1
   1b706: 63 05 f8 0c  	beq	a6, a5, 0x1b7d0 <__utf8_mbtowc+0x236>
   1b70a: 03 23 07 00  	lw	t1, 0x0(a4)
   1b70e: 93 87 16 00  	addi	a5, a3, 0x1
   1b712: b3 37 f0 00  	snez	a5, a5
   1b716: 09 48        	li	a6, 0x2
   1b718: be 96        	add	a3, a3, a5
   1b71a: 63 0f 03 0b  	beq	t1, a6, 0x1b7d8 <__utf8_mbtowc+0x23e>
   1b71e: 03 4f 67 00  	lbu	t5, 0x6(a4)
   1b722: 9b 06 0f f8  	addiw	a3, t5, -0x80
   1b726: 63 63 de 08  	bltu	t3, a3, 0x1b7ac <__utf8_mbtowc+0x212>
   1b72a: 2a 96        	add	a2, a2, a0
   1b72c: 03 48 06 00  	lbu	a6, 0x0(a2)
   1b730: 93 07 f0 03  	li	a5, 0x3f
   1b734: 05 25        	addiw	a0, a0, 0x1
   1b736: 1b 03 08 f8  	addiw	t1, a6, -0x80
   1b73a: 63 e9 67 06  	bltu	a5, t1, 0x1b7ac <__utf8_mbtowc+0x212>
   1b73e: 9b 97 28 01  	slliw	a5, a7, 0x12
   1b742: 37 06 1c 00  	lui	a2, 0x1c0
   1b746: f1 8f        	and	a5, a5, a2
   1b748: 9b 96 cf 00  	slliw	a3, t6, 0xc
   1b74c: 37 f6 03 00  	lui	a2, 0x3f
   1b750: 85 68        	lui	a7, 0x1
   1b752: f1 8e        	and	a3, a3, a2
   1b754: 93 88 08 fc  	addi	a7, a7, -0x40
   1b758: 1b 16 6f 00  	slliw	a2, t5, 0x6
   1b75c: d5 8f        	or	a5, a5, a3
   1b75e: b3 76 16 01  	and	a3, a2, a7
   1b762: d5 8f        	or	a5, a5, a3
   1b764: 13 78 f8 03  	andi	a6, a6, 0x3f
   1b768: b3 e7 07 01  	or	a5, a5, a6
   1b76c: 9c c1        	sw	a5, 0x0(a1)
   1b76e: 23 20 07 00  	sw	zero, 0x0(a4)
   1b772: 4d bd        	j	0x1b624 <__utf8_mbtowc+0x8a>
   1b774: 05 48        	li	a6, 0x1
   1b776: 23 20 07 01  	sw	a6, 0x0(a4)
   1b77a: 63 84 06 05  	beq	a3, a6, 0x1b7c2 <__utf8_mbtowc+0x228>
   1b77e: 33 08 a6 00  	add	a6, a2, a0
   1b782: 83 48 08 00  	lbu	a7, 0x0(a6)
   1b786: 05 25        	addiw	a0, a0, 0x1
   1b788: 05 48        	li	a6, 0x1
   1b78a: e1 b5        	j	0x1b652 <__utf8_mbtowc+0xb8>
   1b78c: 05 48        	li	a6, 0x1
   1b78e: 23 20 07 01  	sw	a6, 0x0(a4)
   1b792: 63 88 06 03  	beq	a3, a6, 0x1b7c2 <__utf8_mbtowc+0x228>
   1b796: 33 08 a6 00  	add	a6, a2, a0
   1b79a: 03 43 08 00  	lbu	t1, 0x0(a6)
   1b79e: 05 25        	addiw	a0, a0, 0x1
   1b7a0: 05 48        	li	a6, 0x1
   1b7a2: 3d bf        	j	0x1b6e0 <__utf8_mbtowc+0x146>
   1b7a4: 13 03 f0 09  	li	t1, 0x9f
   1b7a8: e3 49 13 eb  	blt	t1, a7, 0x1b65a <__utf8_mbtowc+0xc0>
   1b7ac: 93 07 a0 08  	li	a5, 0x8a
   1b7b0: 23 a0 fe 00  	sw	a5, 0x0(t4)
   1b7b4: 7d 55        	li	a0, -0x1
   1b7b6: bd b5        	j	0x1b624 <__utf8_mbtowc+0x8a>
   1b7b8: 09 48        	li	a6, 0x2
   1b7ba: 23 20 07 01  	sw	a6, 0x0(a4)
   1b7be: e3 99 06 eb  	bne	a3, a6, 0x1b670 <__utf8_mbtowc+0xd6>
   1b7c2: 79 55        	li	a0, -0x2
   1b7c4: 85 b5        	j	0x1b624 <__utf8_mbtowc+0x8a>
   1b7c6: 93 07 f0 08  	li	a5, 0x8f
   1b7ca: e3 c3 67 f2  	blt	a5, t1, 0x1b6f0 <__utf8_mbtowc+0x156>
   1b7ce: f9 bf        	j	0x1b7ac <__utf8_mbtowc+0x212>
   1b7d0: 89 47        	li	a5, 0x2
   1b7d2: 1c c3        	sw	a5, 0x0(a4)
   1b7d4: e3 87 f6 fe  	beq	a3, a5, 0x1b7c2 <__utf8_mbtowc+0x228>
   1b7d8: b3 07 a6 00  	add	a5, a2, a0
   1b7dc: 83 c7 07 00  	lbu	a5, 0x0(a5)
   1b7e0: 13 08 f0 03  	li	a6, 0x3f
   1b7e4: 05 25        	addiw	a0, a0, 0x1
   1b7e6: 1b 83 07 f8  	addiw	t1, a5, -0x80
   1b7ea: 1b 8f 07 00  	sext.w	t5, a5
   1b7ee: e3 6f 68 fa  	bltu	a6, t1, 0x1b7ac <__utf8_mbtowc+0x212>
   1b7f2: 0d 48        	li	a6, 0x3
   1b7f4: 23 03 f7 00  	sb	a5, 0x6(a4)
   1b7f8: 23 20 07 01  	sw	a6, 0x0(a4)
   1b7fc: e3 97 06 f3  	bne	a3, a6, 0x1b72a <__utf8_mbtowc+0x190>
   1b800: 79 55        	li	a0, -0x2
   1b802: 0d b5        	j	0x1b624 <__utf8_mbtowc+0x8a>
   1b804: 93 07 f0 08  	li	a5, 0x8f
   1b808: e3 d4 67 ee  	bge	a5, t1, 0x1b6f0 <__utf8_mbtowc+0x156>
   1b80c: 45 b7        	j	0x1b7ac <__utf8_mbtowc+0x212>

000000000001b80e <__sjis_mbtowc>:
   1b80e: 2a 88        	mv	a6, a0
   1b810: bd c5        	beqz	a1, 0x1b87e <__sjis_mbtowc+0x70>
   1b812: 75 ca        	beqz	a2, 0x1b906 <__sjis_mbtowc+0xf8>
   1b814: ed ce        	beqz	a3, 0x1b90e <__sjis_mbtowc+0x100>
   1b816: 83 48 06 00  	lbu	a7, 0x0(a2)
   1b81a: 08 43        	lw	a0, 0x0(a4)
   1b81c: 9b 87 08 00  	sext.w	a5, a7
   1b820: 11 c9        	beqz	a0, 0x1b834 <__sjis_mbtowc+0x26>
   1b822: 85 46        	li	a3, 0x1
   1b824: 63 06 d5 02  	beq	a0, a3, 0x1b850 <__sjis_mbtowc+0x42>
   1b828: 9c c1        	sw	a5, 0x0(a1)
   1b82a: 03 45 06 00  	lbu	a0, 0x0(a2)
   1b82e: 33 35 a0 00  	snez	a0, a0
   1b832: 82 80        	ret
   1b834: 1b 85 f7 f7  	addiw	a0, a5, -0x81
   1b838: 79 43        	li	t1, 0x1e
   1b83a: 63 66 a3 06  	bltu	t1, a0, 0x1b8a6 <__sjis_mbtowc+0x98>
   1b83e: 85 47        	li	a5, 0x1
   1b840: 23 02 17 01  	sb	a7, 0x4(a4)
   1b844: 1c c3        	sw	a5, 0x0(a4)
   1b846: 63 84 f6 0c  	beq	a3, a5, 0x1b90e <__sjis_mbtowc+0x100>
   1b84a: 83 47 16 00  	lbu	a5, 0x1(a2)
   1b84e: 09 45        	li	a0, 0x2
   1b850: 9b 86 07 fc  	addiw	a3, a5, -0x40
   1b854: 93 08 e0 03  	li	a7, 0x3e
   1b858: 1b 86 07 00  	sext.w	a2, a5
   1b85c: 63 f8 d8 00  	bgeu	a7, a3, 0x1b86c <__sjis_mbtowc+0x5e>
   1b860: 1b 06 06 f8  	addiw	a2, a2, -0x80
   1b864: 93 06 c0 07  	li	a3, 0x7c
   1b868: 63 e7 c6 0a  	bltu	a3, a2, 0x1b916 <__sjis_mbtowc+0x108>
   1b86c: 83 46 47 00  	lbu	a3, 0x4(a4)
   1b870: 9b 96 86 00  	slliw	a3, a3, 0x8
   1b874: b5 9f        	addw	a5, a5, a3
   1b876: 9c c1        	sw	a5, 0x0(a1)
   1b878: 23 20 07 00  	sw	zero, 0x0(a4)
   1b87c: 82 80        	ret
   1b87e: 41 11        	addi	sp, sp, -0x10
   1b880: 6c 00        	addi	a1, sp, 0xc
   1b882: 41 c6        	beqz	a2, 0x1b90a <__sjis_mbtowc+0xfc>
   1b884: d9 c6        	beqz	a3, 0x1b912 <__sjis_mbtowc+0x104>
   1b886: 83 48 06 00  	lbu	a7, 0x0(a2)
   1b88a: 08 43        	lw	a0, 0x0(a4)
   1b88c: 9b 87 08 00  	sext.w	a5, a7
   1b890: 0d c1        	beqz	a0, 0x1b8b2 <__sjis_mbtowc+0xa4>
   1b892: 85 46        	li	a3, 0x1
   1b894: 63 02 d5 04  	beq	a0, a3, 0x1b8d8 <__sjis_mbtowc+0xca>
   1b898: 9c c1        	sw	a5, 0x0(a1)
   1b89a: 03 45 06 00  	lbu	a0, 0x0(a2)
   1b89e: 33 35 a0 00  	snez	a0, a0
   1b8a2: 41 01        	addi	sp, sp, 0x10
   1b8a4: 82 80        	ret
   1b8a6: 1b 85 07 f2  	addiw	a0, a5, -0xe0
   1b8aa: 3d 43        	li	t1, 0xf
   1b8ac: e3 6e a3 f6  	bltu	t1, a0, 0x1b828 <__sjis_mbtowc+0x1a>
   1b8b0: 79 b7        	j	0x1b83e <__sjis_mbtowc+0x30>
   1b8b2: 1b 85 f7 f7  	addiw	a0, a5, -0x81
   1b8b6: 79 43        	li	t1, 0x1e
   1b8b8: 63 77 a3 00  	bgeu	t1, a0, 0x1b8c6 <__sjis_mbtowc+0xb8>
   1b8bc: 1b 85 07 f2  	addiw	a0, a5, -0xe0
   1b8c0: 3d 43        	li	t1, 0xf
   1b8c2: e3 6b a3 fc  	bltu	t1, a0, 0x1b898 <__sjis_mbtowc+0x8a>
   1b8c6: 85 47        	li	a5, 0x1
   1b8c8: 23 02 17 01  	sb	a7, 0x4(a4)
   1b8cc: 1c c3        	sw	a5, 0x0(a4)
   1b8ce: 63 82 f6 04  	beq	a3, a5, 0x1b912 <__sjis_mbtowc+0x104>
   1b8d2: 83 47 16 00  	lbu	a5, 0x1(a2)
   1b8d6: 09 45        	li	a0, 0x2
   1b8d8: 9b 86 07 fc  	addiw	a3, a5, -0x40
   1b8dc: 93 08 e0 03  	li	a7, 0x3e
   1b8e0: 1b 86 07 00  	sext.w	a2, a5
   1b8e4: 63 f8 d8 00  	bgeu	a7, a3, 0x1b8f4 <__sjis_mbtowc+0xe6>
   1b8e8: 1b 06 06 f8  	addiw	a2, a2, -0x80
   1b8ec: 93 06 c0 07  	li	a3, 0x7c
   1b8f0: 63 e9 c6 02  	bltu	a3, a2, 0x1b922 <__sjis_mbtowc+0x114>
   1b8f4: 83 46 47 00  	lbu	a3, 0x4(a4)
   1b8f8: 9b 96 86 00  	slliw	a3, a3, 0x8
   1b8fc: b5 9f        	addw	a5, a5, a3
   1b8fe: 9c c1        	sw	a5, 0x0(a1)
   1b900: 23 20 07 00  	sw	zero, 0x0(a4)
   1b904: 79 bf        	j	0x1b8a2 <__sjis_mbtowc+0x94>
   1b906: 01 45        	li	a0, 0x0
   1b908: 82 80        	ret
   1b90a: 01 45        	li	a0, 0x0
   1b90c: 59 bf        	j	0x1b8a2 <__sjis_mbtowc+0x94>
   1b90e: 79 55        	li	a0, -0x2
   1b910: 82 80        	ret
   1b912: 79 55        	li	a0, -0x2
   1b914: 79 b7        	j	0x1b8a2 <__sjis_mbtowc+0x94>
   1b916: 93 07 a0 08  	li	a5, 0x8a
   1b91a: 23 20 f8 00  	sw	a5, 0x0(a6)
   1b91e: 7d 55        	li	a0, -0x1
   1b920: 82 80        	ret
   1b922: 93 07 a0 08  	li	a5, 0x8a
   1b926: 23 20 f8 00  	sw	a5, 0x0(a6)
   1b92a: 7d 55        	li	a0, -0x1
   1b92c: 9d bf        	j	0x1b8a2 <__sjis_mbtowc+0x94>

000000000001b92e <__eucjp_mbtowc>:
   1b92e: 2a 88        	mv	a6, a0
   1b930: d5 c1        	beqz	a1, 0x1b9d4 <__eucjp_mbtowc+0xa6>
   1b932: 63 03 06 14  	beqz	a2, 0x1ba78 <__eucjp_mbtowc+0x14a>
   1b936: 63 89 06 16  	beqz	a3, 0x1baa8 <__eucjp_mbtowc+0x17a>
   1b93a: 83 48 06 00  	lbu	a7, 0x0(a2)
   1b93e: 08 43        	lw	a0, 0x0(a4)
   1b940: 9b 87 08 00  	sext.w	a5, a7
   1b944: 09 cd        	beqz	a0, 0x1b95e <__eucjp_mbtowc+0x30>
   1b946: 85 48        	li	a7, 0x1
   1b948: 63 0f 15 03  	beq	a0, a7, 0x1b986 <__eucjp_mbtowc+0x58>
   1b94c: 89 46        	li	a3, 0x2
   1b94e: 63 00 d5 14  	beq	a0, a3, 0x1ba8e <__eucjp_mbtowc+0x160>
   1b952: 9c c1        	sw	a5, 0x0(a1)
   1b954: 03 45 06 00  	lbu	a0, 0x0(a2)
   1b958: 33 35 a0 00  	snez	a0, a0
   1b95c: 82 80        	ret
   1b95e: 1b 85 27 f7  	addiw	a0, a5, -0x8e
   1b962: 05 43        	li	t1, 0x1
   1b964: 63 78 a3 00  	bgeu	t1, a0, 0x1b974 <__eucjp_mbtowc+0x46>
   1b968: 1b 85 f7 f5  	addiw	a0, a5, -0xa1
   1b96c: 13 03 d0 05  	li	t1, 0x5d
   1b970: e3 61 a3 fe  	bltu	t1, a0, 0x1b952 <__eucjp_mbtowc+0x24>
   1b974: 85 47        	li	a5, 0x1
   1b976: 23 02 17 01  	sb	a7, 0x4(a4)
   1b97a: 1c c3        	sw	a5, 0x0(a4)
   1b97c: 63 86 f6 12  	beq	a3, a5, 0x1baa8 <__eucjp_mbtowc+0x17a>
   1b980: 83 47 16 00  	lbu	a5, 0x1(a2)
   1b984: 09 45        	li	a0, 0x2
   1b986: 9b 88 f7 f5  	addiw	a7, a5, -0xa1
   1b98a: 13 03 d0 05  	li	t1, 0x5d
   1b98e: 63 61 13 13  	bltu	t1, a7, 0x1bab0 <__eucjp_mbtowc+0x182>
   1b992: 83 48 47 00  	lbu	a7, 0x4(a4)
   1b996: 13 03 f0 08  	li	t1, 0x8f
   1b99a: 63 91 68 0e  	bne	a7, t1, 0x1ba7c <__eucjp_mbtowc+0x14e>
   1b99e: a3 02 f7 00  	sb	a5, 0x5(a4)
   1b9a2: 89 47        	li	a5, 0x2
   1b9a4: 1c c3        	sw	a5, 0x0(a4)
   1b9a6: 63 71 d5 10  	bgeu	a0, a3, 0x1baa8 <__eucjp_mbtowc+0x17a>
   1b9aa: 2a 96        	add	a2, a2, a0
   1b9ac: 83 47 06 00  	lbu	a5, 0x0(a2)
   1b9b0: 05 25        	addiw	a0, a0, 0x1
   1b9b2: 9b 86 f7 f5  	addiw	a3, a5, -0xa1
   1b9b6: 13 06 d0 05  	li	a2, 0x5d
   1b9ba: 63 6b d6 0e  	bltu	a2, a3, 0x1bab0 <__eucjp_mbtowc+0x182>
   1b9be: 83 46 57 00  	lbu	a3, 0x5(a4)
   1b9c2: 93 f7 f7 07  	andi	a5, a5, 0x7f
   1b9c6: 9b 96 86 00  	slliw	a3, a3, 0x8
   1b9ca: b5 9f        	addw	a5, a5, a3
   1b9cc: 9c c1        	sw	a5, 0x0(a1)
   1b9ce: 23 20 07 00  	sw	zero, 0x0(a4)
   1b9d2: 82 80        	ret
   1b9d4: 41 11        	addi	sp, sp, -0x10
   1b9d6: 6c 00        	addi	a1, sp, 0xc
   1b9d8: 4d ce        	beqz	a2, 0x1ba92 <__eucjp_mbtowc+0x164>
   1b9da: ed c2        	beqz	a3, 0x1babc <__eucjp_mbtowc+0x18e>
   1b9dc: 83 48 06 00  	lbu	a7, 0x0(a2)
   1b9e0: 08 43        	lw	a0, 0x0(a4)
   1b9e2: 9b 87 08 00  	sext.w	a5, a7
   1b9e6: 11 cd        	beqz	a0, 0x1ba02 <__eucjp_mbtowc+0xd4>
   1b9e8: 85 48        	li	a7, 0x1
   1b9ea: 63 00 15 05  	beq	a0, a7, 0x1ba2a <__eucjp_mbtowc+0xfc>
   1b9ee: 89 46        	li	a3, 0x2
   1b9f0: 63 0e d5 0a  	beq	a0, a3, 0x1baac <__eucjp_mbtowc+0x17e>
   1b9f4: 9c c1        	sw	a5, 0x0(a1)
   1b9f6: 03 45 06 00  	lbu	a0, 0x0(a2)
   1b9fa: 33 35 a0 00  	snez	a0, a0
   1b9fe: 41 01        	addi	sp, sp, 0x10
   1ba00: 82 80        	ret
   1ba02: 1b 85 27 f7  	addiw	a0, a5, -0x8e
   1ba06: 05 43        	li	t1, 0x1
   1ba08: 63 78 a3 00  	bgeu	t1, a0, 0x1ba18 <__eucjp_mbtowc+0xea>
   1ba0c: 1b 85 f7 f5  	addiw	a0, a5, -0xa1
   1ba10: 13 03 d0 05  	li	t1, 0x5d
   1ba14: e3 60 a3 fe  	bltu	t1, a0, 0x1b9f4 <__eucjp_mbtowc+0xc6>
   1ba18: 85 47        	li	a5, 0x1
   1ba1a: 23 02 17 01  	sb	a7, 0x4(a4)
   1ba1e: 1c c3        	sw	a5, 0x0(a4)
   1ba20: 63 8e f6 08  	beq	a3, a5, 0x1babc <__eucjp_mbtowc+0x18e>
   1ba24: 83 47 16 00  	lbu	a5, 0x1(a2)
   1ba28: 09 45        	li	a0, 0x2
   1ba2a: 9b 88 f7 f5  	addiw	a7, a5, -0xa1
   1ba2e: 13 03 d0 05  	li	t1, 0x5d
   1ba32: 63 67 13 09  	bltu	t1, a7, 0x1bac0 <__eucjp_mbtowc+0x192>
   1ba36: 83 48 47 00  	lbu	a7, 0x4(a4)
   1ba3a: 13 03 f0 08  	li	t1, 0x8f
   1ba3e: 63 9c 68 04  	bne	a7, t1, 0x1ba96 <__eucjp_mbtowc+0x168>
   1ba42: a3 02 f7 00  	sb	a5, 0x5(a4)
   1ba46: 89 47        	li	a5, 0x2
   1ba48: 1c c3        	sw	a5, 0x0(a4)
   1ba4a: 63 79 d5 06  	bgeu	a0, a3, 0x1babc <__eucjp_mbtowc+0x18e>
   1ba4e: 2a 96        	add	a2, a2, a0
   1ba50: 83 47 06 00  	lbu	a5, 0x0(a2)
   1ba54: 05 25        	addiw	a0, a0, 0x1
   1ba56: 9b 86 f7 f5  	addiw	a3, a5, -0xa1
   1ba5a: 13 06 d0 05  	li	a2, 0x5d
   1ba5e: 63 61 d6 06  	bltu	a2, a3, 0x1bac0 <__eucjp_mbtowc+0x192>
   1ba62: 83 46 57 00  	lbu	a3, 0x5(a4)
   1ba66: 93 f7 f7 07  	andi	a5, a5, 0x7f
   1ba6a: 9b 96 86 00  	slliw	a3, a3, 0x8
   1ba6e: b5 9f        	addw	a5, a5, a3
   1ba70: 9c c1        	sw	a5, 0x0(a1)
   1ba72: 23 20 07 00  	sw	zero, 0x0(a4)
   1ba76: 61 b7        	j	0x1b9fe <__eucjp_mbtowc+0xd0>
   1ba78: 01 45        	li	a0, 0x0
   1ba7a: 82 80        	ret
   1ba7c: 9b 98 88 00  	slliw	a7, a7, 0x8
   1ba80: bb 88 f8 00  	addw	a7, a7, a5
   1ba84: 23 a0 15 01  	sw	a7, 0x0(a1)
   1ba88: 23 20 07 00  	sw	zero, 0x0(a4)
   1ba8c: 82 80        	ret
   1ba8e: 05 45        	li	a0, 0x1
   1ba90: 0d b7        	j	0x1b9b2 <__eucjp_mbtowc+0x84>
   1ba92: 01 45        	li	a0, 0x0
   1ba94: ad b7        	j	0x1b9fe <__eucjp_mbtowc+0xd0>
   1ba96: 9b 98 88 00  	slliw	a7, a7, 0x8
   1ba9a: bb 88 f8 00  	addw	a7, a7, a5
   1ba9e: 23 a0 15 01  	sw	a7, 0x0(a1)
   1baa2: 23 20 07 00  	sw	zero, 0x0(a4)
   1baa6: a1 bf        	j	0x1b9fe <__eucjp_mbtowc+0xd0>
   1baa8: 79 55        	li	a0, -0x2
   1baaa: 82 80        	ret
   1baac: 05 45        	li	a0, 0x1
   1baae: 65 b7        	j	0x1ba56 <__eucjp_mbtowc+0x128>
   1bab0: 93 07 a0 08  	li	a5, 0x8a
   1bab4: 23 20 f8 00  	sw	a5, 0x0(a6)
   1bab8: 7d 55        	li	a0, -0x1
   1baba: 82 80        	ret
   1babc: 79 55        	li	a0, -0x2
   1babe: 81 b7        	j	0x1b9fe <__eucjp_mbtowc+0xd0>
   1bac0: 93 07 a0 08  	li	a5, 0x8a
   1bac4: 23 20 f8 00  	sw	a5, 0x0(a6)
   1bac8: 7d 55        	li	a0, -0x1
   1baca: 15 bf        	j	0x1b9fe <__eucjp_mbtowc+0xd0>

000000000001bacc <__jis_mbtowc>:
   1bacc: 39 71        	addi	sp, sp, -0x40
   1bace: ad c1        	beqz	a1, 0x1bb30 <__jis_mbtowc+0x64>
   1bad0: 35 c2        	beqz	a2, 0x1bb34 <__jis_mbtowc+0x68>
   1bad2: e9 c2        	beqz	a3, 0x1bb94 <__jis_mbtowc+0xc8>
   1bad4: 4e f0        	sd	s3, 0x20(sp)
   1bad6: 83 49 07 00  	lbu	s3, 0x0(a4)
   1bada: 22 fc        	sd	s0, 0x38(sp)
   1badc: 26 f8        	sd	s1, 0x30(sp)
   1bade: 4a f4        	sd	s2, 0x28(sp)
   1bae0: 52 ec        	sd	s4, 0x18(sp)
   1bae2: 32 89        	mv	s2, a2
   1bae4: 81 48        	li	a7, 0x0
   1bae6: 81 4e        	li	t4, 0x0
   1bae8: 17 54 ff ff  	auipc	s0, 0xffff5
   1baec: 13 04 84 48  	addi	s0, s0, 0x488
   1baf0: 97 53 ff ff  	auipc	t2, 0xffff5
   1baf4: 93 83 83 43  	addi	t2, t2, 0x438
   1baf8: 93 04 f0 02  	li	s1, 0x2f
   1bafc: 97 5f ff ff  	auipc	t6, 0xffff5
   1bb00: 93 8f 0f 35  	addi	t6, t6, 0x350
   1bb04: 95 42        	li	t0, 0x5
   1bb06: 17 5e ff ff  	auipc	t3, 0xffff5
   1bb0a: 13 0e 6e 40  	addi	t3, t3, 0x406
   1bb0e: 33 0f d6 01  	add	t5, a2, t4
   1bb12: 03 43 0f 00  	lbu	t1, 0x0(t5)
   1bb16: 63 0a 03 0e  	beqz	t1, 0x1bc0a <__jis_mbtowc+0x13e>
   1bb1a: 9b 07 53 fe  	addiw	a5, t1, -0x1b
   1bb1e: 93 f7 f7 0f  	andi	a5, a5, 0xff
   1bb22: 63 ee f4 00  	bltu	s1, a5, 0x1bb3e <__jis_mbtowc+0x72>
   1bb26: 8a 07        	slli	a5, a5, 0x2
   1bb28: fe 97        	add	a5, a5, t6
   1bb2a: 9c 43        	lw	a5, 0x0(a5)
   1bb2c: fe 97        	add	a5, a5, t6
   1bb2e: 82 87        	jr	a5
   1bb30: 6c 00        	addi	a1, sp, 0xc
   1bb32: 45 f2        	bnez	a2, 0x1bad2 <__jis_mbtowc+0x6>
   1bb34: 23 20 07 00  	sw	zero, 0x0(a4)
   1bb38: 05 45        	li	a0, 0x1
   1bb3a: 21 61        	addi	sp, sp, 0x40
   1bb3c: 82 80        	ret
   1bb3e: 1b 0a f3 fd  	addiw	s4, t1, -0x21
   1bb42: 93 07 d0 05  	li	a5, 0x5d
   1bb46: 33 ba 47 01  	sltu	s4, a5, s4
   1bb4a: 1d 0a        	addi	s4, s4, 0x7
   1bb4c: 93 97 39 00  	slli	a5, s3, 0x3
   1bb50: ce 97        	add	a5, a5, s3
   1bb52: 33 88 f3 00  	add	a6, t2, a5
   1bb56: 52 98        	add	a6, a6, s4
   1bb58: 03 48 08 00  	lbu	a6, 0x0(a6)
   1bb5c: a2 97        	add	a5, a5, s0
   1bb5e: d2 97        	add	a5, a5, s4
   1bb60: 83 c9 07 00  	lbu	s3, 0x0(a5)
   1bb64: 63 ee 02 09  	bltu	t0, a6, 0x1bc00 <__jis_mbtowc+0x134>
   1bb68: 0a 08        	slli	a6, a6, 0x2
   1bb6a: 72 98        	add	a6, a6, t3
   1bb6c: 83 27 08 00  	lw	a5, 0x0(a6)
   1bb70: f2 97        	add	a5, a5, t3
   1bb72: 82 87        	jr	a5
   1bb74: 23 02 67 00  	sb	t1, 0x4(a4)
   1bb78: 85 28        	addiw	a7, a7, 0x1
   1bb7a: 93 9e 08 02  	slli	t4, a7, 0x20
   1bb7e: 93 de 0e 02  	srli	t4, t4, 0x20
   1bb82: e3 e6 de f8  	bltu	t4, a3, 0x1bb0e <__jis_mbtowc+0x42>
   1bb86: 23 20 37 01  	sw	s3, 0x0(a4)
   1bb8a: 62 74        	ld	s0, 0x38(sp)
   1bb8c: c2 74        	ld	s1, 0x30(sp)
   1bb8e: 22 79        	ld	s2, 0x28(sp)
   1bb90: 82 79        	ld	s3, 0x20(sp)
   1bb92: 62 6a        	ld	s4, 0x18(sp)
   1bb94: 79 55        	li	a0, -0x2
   1bb96: 2d a8        	j	0x1bbd0 <__jis_mbtowc+0x104>
   1bb98: 85 28        	addiw	a7, a7, 0x1
   1bb9a: 13 89 1e 00  	addi	s2, t4, 0x1
   1bb9e: 93 9e 08 02  	slli	t4, a7, 0x20
   1bba2: 93 de 0e 02  	srli	t4, t4, 0x20
   1bba6: 32 99        	add	s2, s2, a2
   1bba8: e3 e3 de f6  	bltu	t4, a3, 0x1bb0e <__jis_mbtowc+0x42>
   1bbac: e9 bf        	j	0x1bb86 <__jis_mbtowc+0xba>
   1bbae: 85 46        	li	a3, 0x1
   1bbb0: 83 47 47 00  	lbu	a5, 0x4(a4)
   1bbb4: 14 c3        	sw	a3, 0x0(a4)
   1bbb6: 03 47 0f 00  	lbu	a4, 0x0(t5)
   1bbba: 9b 97 87 00  	slliw	a5, a5, 0x8
   1bbbe: 1b 85 18 00  	addiw	a0, a7, 0x1
   1bbc2: b9 9f        	addw	a5, a5, a4
   1bbc4: 9c c1        	sw	a5, 0x0(a1)
   1bbc6: 62 74        	ld	s0, 0x38(sp)
   1bbc8: c2 74        	ld	s1, 0x30(sp)
   1bbca: 22 79        	ld	s2, 0x28(sp)
   1bbcc: 82 79        	ld	s3, 0x20(sp)
   1bbce: 62 6a        	ld	s4, 0x18(sp)
   1bbd0: 21 61        	addi	sp, sp, 0x40
   1bbd2: 82 80        	ret
   1bbd4: 23 20 07 00  	sw	zero, 0x0(a4)
   1bbd8: 83 47 09 00  	lbu	a5, 0x0(s2)
   1bbdc: 1b 85 18 00  	addiw	a0, a7, 0x1
   1bbe0: 9c c1        	sw	a5, 0x0(a1)
   1bbe2: d5 b7        	j	0x1bbc6 <__jis_mbtowc+0xfa>
   1bbe4: 23 20 07 00  	sw	zero, 0x0(a4)
   1bbe8: 23 a0 05 00  	sw	zero, 0x0(a1)
   1bbec: 01 45        	li	a0, 0x0
   1bbee: e1 bf        	j	0x1bbc6 <__jis_mbtowc+0xfa>
   1bbf0: 09 4a        	li	s4, 0x2
   1bbf2: a9 bf        	j	0x1bb4c <__jis_mbtowc+0x80>
   1bbf4: 0d 4a        	li	s4, 0x3
   1bbf6: 99 bf        	j	0x1bb4c <__jis_mbtowc+0x80>
   1bbf8: 11 4a        	li	s4, 0x4
   1bbfa: 89 bf        	j	0x1bb4c <__jis_mbtowc+0x80>
   1bbfc: 15 4a        	li	s4, 0x5
   1bbfe: b9 b7        	j	0x1bb4c <__jis_mbtowc+0x80>
   1bc00: 93 07 a0 08  	li	a5, 0x8a
   1bc04: 1c c1        	sw	a5, 0x0(a0)
   1bc06: 7d 55        	li	a0, -0x1
   1bc08: 7d bf        	j	0x1bbc6 <__jis_mbtowc+0xfa>
   1bc0a: 19 4a        	li	s4, 0x6
   1bc0c: 81 b7        	j	0x1bb4c <__jis_mbtowc+0x80>
   1bc0e: 05 4a        	li	s4, 0x1
   1bc10: 35 bf        	j	0x1bb4c <__jis_mbtowc+0x80>
   1bc12: 01 4a        	li	s4, 0x0
   1bc14: 25 bf        	j	0x1bb4c <__jis_mbtowc+0x80>

000000000001bc16 <_wctomb_r>:
   1bc16: 97 47 00 00  	auipc	a5, 0x4
   1bc1a: 83 b7 a7 cf  	ld	a5, -0x306(a5)
   1bc1e: 82 87        	jr	a5

000000000001bc20 <__ascii_wctomb>:
   1bc20: 9b 07 06 00  	sext.w	a5, a2
   1bc24: 91 cd        	beqz	a1, 0x1bc40 <__ascii_wctomb+0x20>
   1bc26: 13 07 f0 0f  	li	a4, 0xff
   1bc2a: 63 66 f7 00  	bltu	a4, a5, 0x1bc36 <__ascii_wctomb+0x16>
   1bc2e: 23 80 c5 00  	sb	a2, 0x0(a1)
   1bc32: 05 45        	li	a0, 0x1
   1bc34: 82 80        	ret
   1bc36: 93 07 a0 08  	li	a5, 0x8a
   1bc3a: 1c c1        	sw	a5, 0x0(a0)
   1bc3c: 7d 55        	li	a0, -0x1
   1bc3e: 82 80        	ret
   1bc40: 01 45        	li	a0, 0x0
   1bc42: 82 80        	ret

000000000001bc44 <__utf8_wctomb>:
   1bc44: 9b 07 06 00  	sext.w	a5, a2
   1bc48: c1 c9        	beqz	a1, 0x1bcd8 <__utf8_wctomb+0x94>
   1bc4a: 13 07 f0 07  	li	a4, 0x7f
   1bc4e: 63 73 f7 06  	bgeu	a4, a5, 0x1bcb4 <__utf8_wctomb+0x70>
   1bc52: 1b 87 07 f8  	addiw	a4, a5, -0x80
   1bc56: 93 06 f0 77  	li	a3, 0x77f
   1bc5a: 63 f1 e6 06  	bgeu	a3, a4, 0x1bcbc <__utf8_wctomb+0x78>
   1bc5e: 3d 67        	lui	a4, 0xf
   1bc60: 9b 86 07 80  	addiw	a3, a5, -0x800
   1bc64: 13 07 f7 7f  	addi	a4, a4, 0x7ff
   1bc68: 63 7a d7 06  	bgeu	a4, a3, 0x1bcdc <__utf8_wctomb+0x98>
   1bc6c: 41 77        	lui	a4, 0xffff0
   1bc6e: 3d 9f        	addw	a4, a4, a5
   1bc70: b7 06 10 00  	lui	a3, 0x100
   1bc74: 63 7a d7 08  	bgeu	a4, a3, 0x1bd08 <__utf8_wctomb+0xc4>
   1bc78: 9b d6 c7 00  	srliw	a3, a5, 0xc
   1bc7c: 1b d7 67 00  	srliw	a4, a5, 0x6
   1bc80: 93 f6 f6 03  	andi	a3, a3, 0x3f
   1bc84: 9b d7 27 01  	srliw	a5, a5, 0x12
   1bc88: 13 77 f7 03  	andi	a4, a4, 0x3f
   1bc8c: 13 76 f6 03  	andi	a2, a2, 0x3f
   1bc90: 93 e7 07 ff  	ori	a5, a5, -0x10
   1bc94: 93 e6 06 f8  	ori	a3, a3, -0x80
   1bc98: 13 67 07 f8  	ori	a4, a4, -0x80
   1bc9c: 13 66 06 f8  	ori	a2, a2, -0x80
   1bca0: 23 80 f5 00  	sb	a5, 0x0(a1)
   1bca4: a3 80 d5 00  	sb	a3, 0x1(a1)
   1bca8: 23 81 e5 00  	sb	a4, 0x2(a1)
   1bcac: a3 81 c5 00  	sb	a2, 0x3(a1)
   1bcb0: 11 45        	li	a0, 0x4
   1bcb2: 82 80        	ret
   1bcb4: 23 80 c5 00  	sb	a2, 0x0(a1)
   1bcb8: 05 45        	li	a0, 0x1
   1bcba: 82 80        	ret
   1bcbc: 9b d7 67 00  	srliw	a5, a5, 0x6
   1bcc0: 13 76 f6 03  	andi	a2, a2, 0x3f
   1bcc4: 93 e7 07 fc  	ori	a5, a5, -0x40
   1bcc8: 13 66 06 f8  	ori	a2, a2, -0x80
   1bccc: 23 80 f5 00  	sb	a5, 0x0(a1)
   1bcd0: a3 80 c5 00  	sb	a2, 0x1(a1)
   1bcd4: 09 45        	li	a0, 0x2
   1bcd6: 82 80        	ret
   1bcd8: 01 45        	li	a0, 0x0
   1bcda: 82 80        	ret
   1bcdc: 1b d7 67 00  	srliw	a4, a5, 0x6
   1bce0: 13 77 f7 03  	andi	a4, a4, 0x3f
   1bce4: 9b d7 c7 00  	srliw	a5, a5, 0xc
   1bce8: 13 76 f6 03  	andi	a2, a2, 0x3f
   1bcec: 93 e7 07 fe  	ori	a5, a5, -0x20
   1bcf0: 13 67 07 f8  	ori	a4, a4, -0x80
   1bcf4: 13 66 06 f8  	ori	a2, a2, -0x80
   1bcf8: 23 80 f5 00  	sb	a5, 0x0(a1)
   1bcfc: a3 80 e5 00  	sb	a4, 0x1(a1)
   1bd00: 23 81 c5 00  	sb	a2, 0x2(a1)
   1bd04: 0d 45        	li	a0, 0x3
   1bd06: 82 80        	ret
   1bd08: 93 07 a0 08  	li	a5, 0x8a
   1bd0c: 1c c1        	sw	a5, 0x0(a0)
   1bd0e: 7d 55        	li	a0, -0x1
   1bd10: 82 80        	ret

000000000001bd12 <__sjis_wctomb>:
   1bd12: 9b 57 86 00  	srliw	a5, a2, 0x8
   1bd16: 93 f7 f7 0f  	andi	a5, a5, 0xff
   1bd1a: 13 76 f6 0f  	andi	a2, a2, 0xff
   1bd1e: b1 c9        	beqz	a1, 0x1bd72 <__sjis_wctomb+0x60>
   1bd20: a9 c7        	beqz	a5, 0x1bd6a <__sjis_wctomb+0x58>
   1bd22: 1b 87 f7 07  	addiw	a4, a5, 0x7f
   1bd26: 13 77 f7 0f  	andi	a4, a4, 0xff
   1bd2a: f9 46        	li	a3, 0x1e
   1bd2c: 63 f9 e6 00  	bgeu	a3, a4, 0x1bd3e <__sjis_wctomb+0x2c>
   1bd30: 1b 87 07 02  	addiw	a4, a5, 0x20
   1bd34: 13 77 f7 0f  	andi	a4, a4, 0xff
   1bd38: bd 46        	li	a3, 0xf
   1bd3a: 63 ee e6 02  	bltu	a3, a4, 0x1bd76 <__sjis_wctomb+0x64>
   1bd3e: 1b 07 06 fc  	addiw	a4, a2, -0x40
   1bd42: 13 77 f7 0f  	andi	a4, a4, 0xff
   1bd46: 93 06 e0 03  	li	a3, 0x3e
   1bd4a: 63 fa e6 00  	bgeu	a3, a4, 0x1bd5e <__sjis_wctomb+0x4c>
   1bd4e: 1b 07 06 f8  	addiw	a4, a2, -0x80
   1bd52: 13 77 f7 0f  	andi	a4, a4, 0xff
   1bd56: 93 06 c0 07  	li	a3, 0x7c
   1bd5a: 63 ee e6 00  	bltu	a3, a4, 0x1bd76 <__sjis_wctomb+0x64>
   1bd5e: 23 80 f5 00  	sb	a5, 0x0(a1)
   1bd62: a3 80 c5 00  	sb	a2, 0x1(a1)
   1bd66: 09 45        	li	a0, 0x2
   1bd68: 82 80        	ret
   1bd6a: 23 80 c5 00  	sb	a2, 0x0(a1)
   1bd6e: 05 45        	li	a0, 0x1
   1bd70: 82 80        	ret
   1bd72: 01 45        	li	a0, 0x0
   1bd74: 82 80        	ret
   1bd76: 93 07 a0 08  	li	a5, 0x8a
   1bd7a: 1c c1        	sw	a5, 0x0(a0)
   1bd7c: 7d 55        	li	a0, -0x1
   1bd7e: 82 80        	ret

000000000001bd80 <__eucjp_wctomb>:
   1bd80: 9b 57 86 00  	srliw	a5, a2, 0x8
   1bd84: 93 f7 f7 0f  	andi	a5, a5, 0xff
   1bd88: 13 76 f6 0f  	andi	a2, a2, 0xff
   1bd8c: bd c1        	beqz	a1, 0x1bdf2 <__eucjp_wctomb+0x72>
   1bd8e: a1 cb        	beqz	a5, 0x1bdde <__eucjp_wctomb+0x5e>
   1bd90: 1b 87 27 07  	addiw	a4, a5, 0x72
   1bd94: 13 77 f7 0f  	andi	a4, a4, 0xff
   1bd98: 85 46        	li	a3, 0x1
   1bd9a: 63 fe e6 04  	bgeu	a3, a4, 0x1bdf6 <__eucjp_wctomb+0x76>
   1bd9e: 1b 87 f7 05  	addiw	a4, a5, 0x5f
   1bda2: 13 77 f7 0f  	andi	a4, a4, 0xff
   1bda6: 93 06 d0 05  	li	a3, 0x5d
   1bdaa: 63 ee e6 04  	bltu	a3, a4, 0x1be06 <__eucjp_wctomb+0x86>
   1bdae: 1b 07 f6 05  	addiw	a4, a2, 0x5f
   1bdb2: 13 77 f7 0f  	andi	a4, a4, 0xff
   1bdb6: 63 f8 e6 02  	bgeu	a3, a4, 0x1bde6 <__eucjp_wctomb+0x66>
   1bdba: 13 66 06 08  	ori	a2, a2, 0x80
   1bdbe: 1b 07 f6 05  	addiw	a4, a2, 0x5f
   1bdc2: 13 77 f7 0f  	andi	a4, a4, 0xff
   1bdc6: 63 e0 e6 04  	bltu	a3, a4, 0x1be06 <__eucjp_wctomb+0x86>
   1bdca: 13 07 f0 f8  	li	a4, -0x71
   1bdce: 23 80 e5 00  	sb	a4, 0x0(a1)
   1bdd2: a3 80 f5 00  	sb	a5, 0x1(a1)
   1bdd6: 23 81 c5 00  	sb	a2, 0x2(a1)
   1bdda: 0d 45        	li	a0, 0x3
   1bddc: 82 80        	ret
   1bdde: 23 80 c5 00  	sb	a2, 0x0(a1)
   1bde2: 05 45        	li	a0, 0x1
   1bde4: 82 80        	ret
   1bde6: 23 80 f5 00  	sb	a5, 0x0(a1)
   1bdea: a3 80 c5 00  	sb	a2, 0x1(a1)
   1bdee: 09 45        	li	a0, 0x2
   1bdf0: 82 80        	ret
   1bdf2: 01 45        	li	a0, 0x0
   1bdf4: 82 80        	ret
   1bdf6: 1b 07 f6 05  	addiw	a4, a2, 0x5f
   1bdfa: 13 77 f7 0f  	andi	a4, a4, 0xff
   1bdfe: 93 06 d0 05  	li	a3, 0x5d
   1be02: e3 f2 e6 fe  	bgeu	a3, a4, 0x1bde6 <__eucjp_wctomb+0x66>
   1be06: 93 07 a0 08  	li	a5, 0x8a
   1be0a: 1c c1        	sw	a5, 0x0(a0)
   1be0c: 7d 55        	li	a0, -0x1
   1be0e: 82 80        	ret

000000000001be10 <__jis_wctomb>:
   1be10: 9b 57 86 00  	srliw	a5, a2, 0x8
   1be14: 93 f7 f7 0f  	andi	a5, a5, 0xff
   1be18: 13 76 f6 0f  	andi	a2, a2, 0xff
   1be1c: a5 cd        	beqz	a1, 0x1be94 <__jis_wctomb+0x84>
   1be1e: b1 c7        	beqz	a5, 0x1be6a <__jis_wctomb+0x5a>
   1be20: 1b 87 f7 fd  	addiw	a4, a5, -0x21
   1be24: 13 77 f7 0f  	andi	a4, a4, 0xff
   1be28: 13 08 d0 05  	li	a6, 0x5d
   1be2c: 63 66 e8 06  	bltu	a6, a4, 0x1be98 <__jis_wctomb+0x88>
   1be30: 1b 07 f6 fd  	addiw	a4, a2, -0x21
   1be34: 13 77 f7 0f  	andi	a4, a4, 0xff
   1be38: 63 60 e8 06  	bltu	a6, a4, 0x1be98 <__jis_wctomb+0x88>
   1be3c: 98 42        	lw	a4, 0x0(a3)
   1be3e: 09 45        	li	a0, 0x2
   1be40: 05 e3        	bnez	a4, 0x1be60 <__jis_wctomb+0x50>
   1be42: 05 47        	li	a4, 0x1
   1be44: 98 c2        	sw	a4, 0x0(a3)
   1be46: 6d 47        	li	a4, 0x1b
   1be48: 23 80 e5 00  	sb	a4, 0x0(a1)
   1be4c: 13 07 40 02  	li	a4, 0x24
   1be50: a3 80 e5 00  	sb	a4, 0x1(a1)
   1be54: 13 07 20 04  	li	a4, 0x42
   1be58: 23 81 e5 00  	sb	a4, 0x2(a1)
   1be5c: 15 45        	li	a0, 0x5
   1be5e: 8d 05        	addi	a1, a1, 0x3
   1be60: 23 80 f5 00  	sb	a5, 0x0(a1)
   1be64: a3 80 c5 00  	sb	a2, 0x1(a1)
   1be68: 82 80        	ret
   1be6a: 9c 42        	lw	a5, 0x0(a3)
   1be6c: 05 45        	li	a0, 0x1
   1be6e: 85 c3        	beqz	a5, 0x1be8e <__jis_wctomb+0x7e>
   1be70: 23 a0 06 00  	sw	zero, 0x0(a3)
   1be74: ed 47        	li	a5, 0x1b
   1be76: 23 80 f5 00  	sb	a5, 0x0(a1)
   1be7a: 93 07 80 02  	li	a5, 0x28
   1be7e: a3 80 f5 00  	sb	a5, 0x1(a1)
   1be82: 93 07 20 04  	li	a5, 0x42
   1be86: 23 81 f5 00  	sb	a5, 0x2(a1)
   1be8a: 11 45        	li	a0, 0x4
   1be8c: 8d 05        	addi	a1, a1, 0x3
   1be8e: 23 80 c5 00  	sb	a2, 0x0(a1)
   1be92: 82 80        	ret
   1be94: 05 45        	li	a0, 0x1
   1be96: 82 80        	ret
   1be98: 93 07 a0 08  	li	a5, 0x8a
   1be9c: 1c c1        	sw	a5, 0x0(a0)
   1be9e: 7d 55        	li	a0, -0x1
   1bea0: 82 80        	ret

000000000001bea2 <strncasecmp>:
   1bea2: aa 86        	mv	a3, a0
   1bea4: 31 c6        	beqz	a2, 0x1bef0 <strncasecmp+0x4e>
   1bea6: 2e 96        	add	a2, a2, a1
   1bea8: 97 58 ff ff  	auipc	a7, 0xffff5
   1beac: 93 88 18 ea  	addi	a7, a7, -0x15f
   1beb0: 05 48        	li	a6, 0x1
   1beb2: 83 c7 06 00  	lbu	a5, 0x0(a3)
   1beb6: 85 05        	addi	a1, a1, 0x1
   1beb8: 85 06        	addi	a3, a3, 0x1
   1beba: 33 87 f8 00  	add	a4, a7, a5
   1bebe: 03 47 07 00  	lbu	a4, 0x0(a4)
   1bec2: 81 27        	sext.w	a5, a5
   1bec4: 0d 8b        	andi	a4, a4, 0x3
   1bec6: 63 14 07 01  	bne	a4, a6, 0x1bece <strncasecmp+0x2c>
   1beca: 93 87 07 02  	addi	a5, a5, 0x20
   1bece: 03 c5 f5 ff  	lbu	a0, -0x1(a1)
   1bed2: 33 87 a8 00  	add	a4, a7, a0
   1bed6: 03 47 07 00  	lbu	a4, 0x0(a4)
   1beda: 01 25        	sext.w	a0, a0
   1bedc: 3b 83 a7 40  	subw	t1, a5, a0
   1bee0: 0d 8b        	andi	a4, a4, 0x3
   1bee2: 63 0b 07 01  	beq	a4, a6, 0x1bef8 <strncasecmp+0x56>
   1bee6: 63 17 03 00  	bnez	t1, 0x1bef4 <strncasecmp+0x52>
   1beea: 11 c5        	beqz	a0, 0x1bef6 <strncasecmp+0x54>
   1beec: e3 93 c5 fc  	bne	a1, a2, 0x1beb2 <strncasecmp+0x10>
   1bef0: 01 45        	li	a0, 0x0
   1bef2: 82 80        	ret
   1bef4: 1a 85        	mv	a0, t1
   1bef6: 82 80        	ret
   1bef8: 1b 05 05 02  	addiw	a0, a0, 0x20
   1befc: 3b 85 a7 40  	subw	a0, a5, a0
   1bf00: 75 d5        	beqz	a0, 0x1beec <strncasecmp+0x4a>
   1bf02: 82 80        	ret

000000000001bf04 <_strtol_l.isra.0>:
   1bf04: 01 11        	addi	sp, sp, -0x20
   1bf06: 06 ec        	sd	ra, 0x18(sp)
   1bf08: 93 07 40 02  	li	a5, 0x24
   1bf0c: 63 ec d7 0c  	bltu	a5, a3, 0x1bfe4 <_strtol_l.isra.0+0xe0>
   1bf10: 85 47        	li	a5, 0x1
   1bf12: ae 88        	mv	a7, a1
   1bf14: 17 58 ff ff  	auipc	a6, 0xffff5
   1bf18: 13 08 58 e3  	addi	a6, a6, -0x1cb
   1bf1c: 63 84 f6 0c  	beq	a3, a5, 0x1bfe4 <_strtol_l.isra.0+0xe0>
   1bf20: 22 e8        	sd	s0, 0x10(sp)
   1bf22: 26 e4        	sd	s1, 0x8(sp)
   1bf24: 4a e0        	sd	s2, 0x0(sp)
   1bf26: 03 c7 08 00  	lbu	a4, 0x0(a7)
   1bf2a: 46 83        	mv	t1, a7
   1bf2c: 85 08        	addi	a7, a7, 0x1
   1bf2e: b3 07 e8 00  	add	a5, a6, a4
   1bf32: 83 c7 07 00  	lbu	a5, 0x0(a5)
   1bf36: a1 8b        	andi	a5, a5, 0x8
   1bf38: fd f7        	bnez	a5, 0x1bf26 <_strtol_l.isra.0+0x22>
   1bf3a: 13 08 d0 02  	li	a6, 0x2d
   1bf3e: 9b 07 07 00  	sext.w	a5, a4
   1bf42: 63 0b 07 11  	beq	a4, a6, 0x1c058 <_strtol_l.isra.0+0x154>
   1bf46: 13 07 b0 02  	li	a4, 0x2b
   1bf4a: 63 85 e7 0a  	beq	a5, a4, 0x1bff4 <_strtol_l.isra.0+0xf0>
   1bf4e: fd 54        	li	s1, -0x1
   1bf50: 85 80        	srli	s1, s1, 0x1
   1bf52: 01 49        	li	s2, 0x0
   1bf54: c5 ea        	bnez	a3, 0x1c004 <_strtol_l.isra.0+0x100>
   1bf56: 13 07 00 03  	li	a4, 0x30
   1bf5a: 63 87 e7 10  	beq	a5, a4, 0x1c068 <_strtol_l.isra.0+0x164>
   1bf5e: a9 43        	li	t2, 0xa
   1bf60: a9 46        	li	a3, 0xa
   1bf62: 33 f4 74 02  	remu	s0, s1, t2
   1bf66: a5 4e        	li	t4, 0x9
   1bf68: 1b 87 07 fd  	addiw	a4, a5, -0x30
   1bf6c: 01 4e        	li	t3, 0x0
   1bf6e: 01 48        	li	a6, 0x0
   1bf70: e5 42        	li	t0, 0x19
   1bf72: 7d 5f        	li	t5, -0x1
   1bf74: 1b 83 07 00  	sext.w	t1, a5
   1bf78: b3 df 74 02  	divu	t6, s1, t2
   1bf7c: 01 24        	sext.w	s0, s0
   1bf7e: 63 e9 ee 02  	bltu	t4, a4, 0x1bfb0 <_strtol_l.isra.0+0xac>
   1bf82: ba 87        	mv	a5, a4
   1bf84: 63 de d7 02  	bge	a5, a3, 0x1bfc0 <_strtol_l.isra.0+0xbc>
   1bf88: 63 0b ee 01  	beq	t3, t5, 0x1bf9e <_strtol_l.isra.0+0x9a>
   1bf8c: 7d 5e        	li	t3, -0x1
   1bf8e: 63 e8 0f 01  	bltu	t6, a6, 0x1bf9e <_strtol_l.isra.0+0x9a>
   1bf92: 63 87 0f 0b  	beq	t6, a6, 0x1c040 <_strtol_l.isra.0+0x13c>
   1bf96: 05 4e        	li	t3, 0x1
   1bf98: 33 08 78 02  	mul	a6, a6, t2
   1bf9c: 3e 98        	add	a6, a6, a5
   1bf9e: 83 c7 08 00  	lbu	a5, 0x0(a7)
   1bfa2: 85 08        	addi	a7, a7, 0x1
   1bfa4: 1b 87 07 fd  	addiw	a4, a5, -0x30
   1bfa8: 1b 83 07 00  	sext.w	t1, a5
   1bfac: e3 fb ee fc  	bgeu	t4, a4, 0x1bf82 <_strtol_l.isra.0+0x7e>
   1bfb0: 1b 07 f3 fb  	addiw	a4, t1, -0x41
   1bfb4: 63 ef e2 06  	bltu	t0, a4, 0x1c032 <_strtol_l.isra.0+0x12e>
   1bfb8: 9b 87 97 fc  	addiw	a5, a5, -0x37
   1bfbc: e3 c6 d7 fc  	blt	a5, a3, 0x1bf88 <_strtol_l.isra.0+0x84>
   1bfc0: fd 57        	li	a5, -0x1
   1bfc2: 63 02 fe 08  	beq	t3, a5, 0x1c046 <_strtol_l.isra.0+0x142>
   1bfc6: 63 04 09 00  	beqz	s2, 0x1bfce <_strtol_l.isra.0+0xca>
   1bfca: 33 08 00 41  	neg	a6, a6
   1bfce: 01 c6        	beqz	a2, 0x1bfd6 <_strtol_l.isra.0+0xd2>
   1bfd0: 63 17 0e 0a  	bnez	t3, 0x1c07e <_strtol_l.isra.0+0x17a>
   1bfd4: 0c e2        	sd	a1, 0x0(a2)
   1bfd6: 42 64        	ld	s0, 0x10(sp)
   1bfd8: e2 60        	ld	ra, 0x18(sp)
   1bfda: a2 64        	ld	s1, 0x8(sp)
   1bfdc: 02 69        	ld	s2, 0x0(sp)
   1bfde: 42 85        	mv	a0, a6
   1bfe0: 05 61        	addi	sp, sp, 0x20
   1bfe2: 82 80        	ret
   1bfe4: ef 00 c0 4e  	jal	0x1c4d0 <__errno>
   1bfe8: e2 60        	ld	ra, 0x18(sp)
   1bfea: d9 47        	li	a5, 0x16
   1bfec: 1c c1        	sw	a5, 0x0(a0)
   1bfee: 01 45        	li	a0, 0x0
   1bff0: 05 61        	addi	sp, sp, 0x20
   1bff2: 82 80        	ret
   1bff4: fd 54        	li	s1, -0x1
   1bff6: 83 c7 08 00  	lbu	a5, 0x0(a7)
   1bffa: 85 80        	srli	s1, s1, 0x1
   1bffc: 93 08 23 00  	addi	a7, t1, 0x2
   1c000: 01 49        	li	s2, 0x0
   1c002: b1 da        	beqz	a3, 0x1bf56 <_strtol_l.isra.0+0x52>
   1c004: 41 47        	li	a4, 0x10
   1c006: b6 83        	mv	t2, a3
   1c008: e3 9d e6 f4  	bne	a3, a4, 0x1bf62 <_strtol_l.isra.0+0x5e>
   1c00c: 13 07 00 03  	li	a4, 0x30
   1c010: c1 43        	li	t2, 0x10
   1c012: e3 98 e7 f4  	bne	a5, a4, 0x1bf62 <_strtol_l.isra.0+0x5e>
   1c016: 03 c7 08 00  	lbu	a4, 0x0(a7)
   1c01a: 13 08 80 05  	li	a6, 0x58
   1c01e: 13 77 f7 0d  	andi	a4, a4, 0xdf
   1c022: e3 10 07 f5  	bne	a4, a6, 0x1bf62 <_strtol_l.isra.0+0x5e>
   1c026: 83 c7 18 00  	lbu	a5, 0x1(a7)
   1c02a: c1 43        	li	t2, 0x10
   1c02c: 89 08        	addi	a7, a7, 0x2
   1c02e: c1 46        	li	a3, 0x10
   1c030: 0d bf        	j	0x1bf62 <_strtol_l.isra.0+0x5e>
   1c032: 1b 03 f3 f9  	addiw	t1, t1, -0x61
   1c036: e3 e5 62 f8  	bltu	t0, t1, 0x1bfc0 <_strtol_l.isra.0+0xbc>
   1c03a: 9b 87 97 fa  	addiw	a5, a5, -0x57
   1c03e: 99 b7        	j	0x1bf84 <_strtol_l.isra.0+0x80>
   1c040: e3 4f f4 f4  	blt	s0, a5, 0x1bf9e <_strtol_l.isra.0+0x9a>
   1c044: 89 bf        	j	0x1bf96 <_strtol_l.isra.0+0x92>
   1c046: 93 07 20 02  	li	a5, 0x22
   1c04a: 1c c1        	sw	a5, 0x0(a0)
   1c04c: 26 88        	mv	a6, s1
   1c04e: 41 d6        	beqz	a2, 0x1bfd6 <_strtol_l.isra.0+0xd2>
   1c050: 93 85 f8 ff  	addi	a1, a7, -0x1
   1c054: 26 88        	mv	a6, s1
   1c056: bd bf        	j	0x1bfd4 <_strtol_l.isra.0+0xd0>
   1c058: fd 54        	li	s1, -0x1
   1c05a: 83 c7 08 00  	lbu	a5, 0x0(a7)
   1c05e: fe 14        	slli	s1, s1, 0x3f
   1c060: 93 08 23 00  	addi	a7, t1, 0x2
   1c064: 05 49        	li	s2, 0x1
   1c066: fd b5        	j	0x1bf54 <_strtol_l.isra.0+0x50>
   1c068: 03 c7 08 00  	lbu	a4, 0x0(a7)
   1c06c: 13 08 80 05  	li	a6, 0x58
   1c070: a1 43        	li	t2, 0x8
   1c072: 13 77 f7 0d  	andi	a4, a4, 0xdf
   1c076: a1 46        	li	a3, 0x8
   1c078: e3 15 07 ef  	bne	a4, a6, 0x1bf62 <_strtol_l.isra.0+0x5e>
   1c07c: 6d b7        	j	0x1c026 <_strtol_l.isra.0+0x122>
   1c07e: c2 84        	mv	s1, a6
   1c080: c1 bf        	j	0x1c050 <_strtol_l.isra.0+0x14c>

000000000001c082 <_strtol_r>:
   1c082: 49 b5        	j	0x1bf04 <_strtol_l.isra.0>

000000000001c084 <strtol_l>:
   1c084: b2 86        	mv	a3, a2
   1c086: 2e 86        	mv	a2, a1
   1c088: aa 85        	mv	a1, a0
   1c08a: 17 45 00 00  	auipc	a0, 0x4
   1c08e: 03 35 e5 ae  	ld	a0, -0x512(a0)
   1c092: 8d bd        	j	0x1bf04 <_strtol_l.isra.0>

000000000001c094 <strtol>:
   1c094: b2 86        	mv	a3, a2
   1c096: 2e 86        	mv	a2, a1
   1c098: aa 85        	mv	a1, a0
   1c09a: 17 45 00 00  	auipc	a0, 0x4
   1c09e: 03 35 e5 ad  	ld	a0, -0x522(a0)
   1c0a2: 8d b5        	j	0x1bf04 <_strtol_l.isra.0>

000000000001c0a4 <_findenv_r>:
   1c0a4: 5d 71        	addi	sp, sp, -0x50
   1c0a6: 5a e8        	sd	s6, 0x10(sp)
   1c0a8: 17 4b 00 00  	auipc	s6, 0x4
   1c0ac: 13 0b 8b ac  	addi	s6, s6, -0x538
   1c0b0: 26 fc        	sd	s1, 0x38(sp)
   1c0b2: 4e f4        	sd	s3, 0x28(sp)
   1c0b4: 52 f0        	sd	s4, 0x20(sp)
   1c0b6: 56 ec        	sd	s5, 0x18(sp)
   1c0b8: 86 e4        	sd	ra, 0x48(sp)
   1c0ba: aa 8a        	mv	s5, a0
   1c0bc: ae 89        	mv	s3, a1
   1c0be: 32 8a        	mv	s4, a2
   1c0c0: ef 00 40 0b  	jal	0x1c174 <__env_lock>
   1c0c4: 83 34 0b 00  	ld	s1, 0x0(s6)
   1c0c8: 8d c0        	beqz	s1, 0x1c0ea <_findenv_r+0x46>
   1c0ca: a2 e0        	sd	s0, 0x40(sp)
   1c0cc: 03 c7 09 00  	lbu	a4, 0x0(s3)
   1c0d0: ce 87        	mv	a5, s3
   1c0d2: 93 06 d0 03  	li	a3, 0x3d
   1c0d6: 01 44        	li	s0, 0x0
   1c0d8: 09 e7        	bnez	a4, 0x1c0e2 <_findenv_r+0x3e>
   1c0da: 35 a0        	j	0x1c106 <_findenv_r+0x62>
   1c0dc: 03 c7 07 00  	lbu	a4, 0x0(a5)
   1c0e0: 0d c3        	beqz	a4, 0x1c102 <_findenv_r+0x5e>
   1c0e2: 85 07        	addi	a5, a5, 0x1
   1c0e4: e3 1c d7 fe  	bne	a4, a3, 0x1c0dc <_findenv_r+0x38>
   1c0e8: 06 64        	ld	s0, 0x40(sp)
   1c0ea: 56 85        	mv	a0, s5
   1c0ec: ef 00 20 09  	jal	0x1c17e <__env_unlock>
   1c0f0: a6 60        	ld	ra, 0x48(sp)
   1c0f2: e2 74        	ld	s1, 0x38(sp)
   1c0f4: a2 79        	ld	s3, 0x28(sp)
   1c0f6: 02 7a        	ld	s4, 0x20(sp)
   1c0f8: e2 6a        	ld	s5, 0x18(sp)
   1c0fa: 42 6b        	ld	s6, 0x10(sp)
   1c0fc: 01 45        	li	a0, 0x0
   1c0fe: 61 61        	addi	sp, sp, 0x50
   1c100: 82 80        	ret
   1c102: 3b 84 37 41  	subw	s0, a5, s3
   1c106: 88 60        	ld	a0, 0x0(s1)
   1c108: 65 d1        	beqz	a0, 0x1c0e8 <_findenv_r+0x44>
   1c10a: 5e e4        	sd	s7, 0x8(sp)
   1c10c: 4a f8        	sd	s2, 0x30(sp)
   1c10e: 93 0b d0 03  	li	s7, 0x3d
   1c112: 22 86        	mv	a2, s0
   1c114: ce 85        	mv	a1, s3
   1c116: ef 00 20 07  	jal	0x1c188 <strncmp>
   1c11a: 01 e9        	bnez	a0, 0x1c12a <_findenv_r+0x86>
   1c11c: 03 b9 04 00  	ld	s2, 0x0(s1)
   1c120: 22 99        	add	s2, s2, s0
   1c122: 83 47 09 00  	lbu	a5, 0x0(s2)
   1c126: 63 89 77 01  	beq	a5, s7, 0x1c138 <_findenv_r+0x94>
   1c12a: 88 64        	ld	a0, 0x8(s1)
   1c12c: a1 04        	addi	s1, s1, 0x8
   1c12e: 75 f1        	bnez	a0, 0x1c112 <_findenv_r+0x6e>
   1c130: 06 64        	ld	s0, 0x40(sp)
   1c132: 42 79        	ld	s2, 0x30(sp)
   1c134: a2 6b        	ld	s7, 0x8(sp)
   1c136: 55 bf        	j	0x1c0ea <_findenv_r+0x46>
   1c138: 83 37 0b 00  	ld	a5, 0x0(s6)
   1c13c: 56 85        	mv	a0, s5
   1c13e: 9d 8c        	sub	s1, s1, a5
   1c140: 8d 84        	srai	s1, s1, 0x3
   1c142: 23 20 9a 00  	sw	s1, 0x0(s4)
   1c146: ef 00 80 03  	jal	0x1c17e <__env_unlock>
   1c14a: a6 60        	ld	ra, 0x48(sp)
   1c14c: 06 64        	ld	s0, 0x40(sp)
   1c14e: a2 6b        	ld	s7, 0x8(sp)
   1c150: e2 74        	ld	s1, 0x38(sp)
   1c152: a2 79        	ld	s3, 0x28(sp)
   1c154: 02 7a        	ld	s4, 0x20(sp)
   1c156: e2 6a        	ld	s5, 0x18(sp)
   1c158: 42 6b        	ld	s6, 0x10(sp)
   1c15a: 13 05 19 00  	addi	a0, s2, 0x1
   1c15e: 42 79        	ld	s2, 0x30(sp)
   1c160: 61 61        	addi	sp, sp, 0x50
   1c162: 82 80        	ret

000000000001c164 <_getenv_r>:
   1c164: 01 11        	addi	sp, sp, -0x20
   1c166: 70 00        	addi	a2, sp, 0xc
   1c168: 06 ec        	sd	ra, 0x18(sp)
   1c16a: ef f0 bf f3  	jal	0x1c0a4 <_findenv_r>
   1c16e: e2 60        	ld	ra, 0x18(sp)
   1c170: 05 61        	addi	sp, sp, 0x20
   1c172: 82 80        	ret

000000000001c174 <__env_lock>:
   1c174: 17 45 00 00  	auipc	a0, 0x4
   1c178: 13 05 45 2b  	addi	a0, a0, 0x2b4
   1c17c: 29 a1        	j	0x1c586 <__retarget_lock_acquire_recursive>

000000000001c17e <__env_unlock>:
   1c17e: 17 45 00 00  	auipc	a0, 0x4
   1c182: 13 05 a5 2a  	addi	a0, a0, 0x2aa
   1c186: 31 a1        	j	0x1c592 <__retarget_lock_release_recursive>

000000000001c188 <strncmp>:
   1c188: 4d c6        	beqz	a2, 0x1c232 <strncmp+0xaa>
   1c18a: b3 67 b5 00  	or	a5, a0, a1
   1c18e: 9d 8b        	andi	a5, a5, 0x7
   1c190: a5 eb        	bnez	a5, 0x1c200 <strncmp+0x78>
   1c192: 9d 47        	li	a5, 0x7
   1c194: 63 f6 c7 06  	bgeu	a5, a2, 0x1c200 <strncmp+0x78>
   1c198: b7 16 10 f0  	lui	a3, 0xf0101
   1c19c: 37 08 ff fe  	lui	a6, 0xfeff0
   1c1a0: 92 06        	slli	a3, a3, 0x4
   1c1a2: 13 08 f8 ef  	addi	a6, a6, -0x101
   1c1a6: 93 86 16 10  	addi	a3, a3, 0x101
   1c1aa: 42 08        	slli	a6, a6, 0x10
   1c1ac: c2 06        	slli	a3, a3, 0x10
   1c1ae: 13 08 f8 ef  	addi	a6, a6, -0x101
   1c1b2: 93 86 16 10  	addi	a3, a3, 0x101
   1c1b6: 42 08        	slli	a6, a6, 0x10
   1c1b8: be 06        	slli	a3, a3, 0xf
   1c1ba: 13 08 f8 ef  	addi	a6, a6, -0x101
   1c1be: 93 86 06 08  	addi	a3, a3, 0x80
   1c1c2: 1d 4e        	li	t3, 0x7
   1c1c4: 01 a8        	j	0x1c1d4 <strncmp+0x4c>
   1c1c6: 61 16        	addi	a2, a2, -0x8
   1c1c8: 2d c6        	beqz	a2, 0x1c232 <strncmp+0xaa>
   1c1ca: a5 e7        	bnez	a5, 0x1c232 <strncmp+0xaa>
   1c1cc: 21 05        	addi	a0, a0, 0x8
   1c1ce: a1 05        	addi	a1, a1, 0x8
   1c1d0: 63 78 ce 02  	bgeu	t3, a2, 0x1c200 <strncmp+0x78>
   1c1d4: 18 61        	ld	a4, 0x0(a0)
   1c1d6: 83 b8 05 00  	ld	a7, 0x0(a1)
   1c1da: b3 07 07 01  	add	a5, a4, a6
   1c1de: 13 43 f7 ff  	not	t1, a4
   1c1e2: b3 f7 67 00  	and	a5, a5, t1
   1c1e6: f5 8f        	and	a5, a5, a3
   1c1e8: e3 0f 17 fd  	beq	a4, a7, 0x1c1c6 <strncmp+0x3e>
   1c1ec: 03 47 05 00  	lbu	a4, 0x0(a0)
   1c1f0: 83 c6 05 00  	lbu	a3, 0x0(a1)
   1c1f4: 2a 88        	mv	a6, a0
   1c1f6: 63 07 d7 02  	beq	a4, a3, 0x1c224 <strncmp+0x9c>
   1c1fa: 3b 05 d7 40  	subw	a0, a4, a3
   1c1fe: 82 80        	ret
   1c200: 03 47 05 00  	lbu	a4, 0x0(a0)
   1c204: 83 c6 05 00  	lbu	a3, 0x0(a1)
   1c208: e3 19 d7 fe  	bne	a4, a3, 0x1c1fa <strncmp+0x72>
   1c20c: 85 47        	li	a5, 0x1
   1c20e: 63 02 f6 02  	beq	a2, a5, 0x1c232 <strncmp+0xaa>
   1c212: 2a 88        	mv	a6, a0
   1c214: 01 a8        	j	0x1c224 <strncmp+0x9c>
   1c216: 03 47 05 00  	lbu	a4, 0x0(a0)
   1c21a: 83 c6 05 00  	lbu	a3, 0x0(a1)
   1c21e: e3 1e d7 fc  	bne	a4, a3, 0x1c1fa <strncmp+0x72>
   1c222: 81 cb        	beqz	a5, 0x1c232 <strncmp+0xaa>
   1c224: 05 05        	addi	a0, a0, 0x1
   1c226: b3 07 a6 40  	sub	a5, a2, a0
   1c22a: fd 17        	addi	a5, a5, -0x1
   1c22c: 85 05        	addi	a1, a1, 0x1
   1c22e: c2 97        	add	a5, a5, a6
   1c230: 7d f3        	bnez	a4, 0x1c216 <strncmp+0x8e>
   1c232: 01 45        	li	a0, 0x0
   1c234: 82 80        	ret

000000000001c236 <strlcpy>:
   1c236: ae 87        	mv	a5, a1
   1c238: 09 ea        	bnez	a2, 0x1c24a <strlcpy+0x14>
   1c23a: 21 a8        	j	0x1c252 <strlcpy+0x1c>
   1c23c: 03 c7 07 00  	lbu	a4, 0x0(a5)
   1c240: 05 05        	addi	a0, a0, 0x1
   1c242: 85 07        	addi	a5, a5, 0x1
   1c244: a3 0f e5 fe  	sb	a4, -0x1(a0)
   1c248: 09 cb        	beqz	a4, 0x1c25a <strlcpy+0x24>
   1c24a: 7d 16        	addi	a2, a2, -0x1
   1c24c: 65 fa        	bnez	a2, 0x1c23c <strlcpy+0x6>
   1c24e: 23 00 05 00  	sb	zero, 0x0(a0)
   1c252: 03 c7 07 00  	lbu	a4, 0x0(a5)
   1c256: 85 07        	addi	a5, a5, 0x1
   1c258: 6d ff        	bnez	a4, 0x1c252 <strlcpy+0x1c>
   1c25a: 33 85 b7 40  	sub	a0, a5, a1
   1c25e: 7d 15        	addi	a0, a0, -0x1
   1c260: 82 80        	ret

000000000001c262 <__localeconv_l>:
   1c262: 13 05 05 10  	addi	a0, a0, 0x100
   1c266: 82 80        	ret

000000000001c268 <_localeconv_r>:
   1c268: 17 35 00 00  	auipc	a0, 0x3
   1c26c: 13 05 85 6c  	addi	a0, a0, 0x6c8
   1c270: 82 80        	ret

000000000001c272 <localeconv>:
   1c272: 17 35 00 00  	auipc	a0, 0x3
   1c276: 13 05 e5 6b  	addi	a0, a0, 0x6be
   1c27a: 82 80        	ret

000000000001c27c <_close_r>:
   1c27c: 41 11        	addi	sp, sp, -0x10
   1c27e: 22 e0        	sd	s0, 0x0(sp)
   1c280: 2a 84        	mv	s0, a0
   1c282: 2e 85        	mv	a0, a1
   1c284: 97 47 00 00  	auipc	a5, 0x4
   1c288: 23 a2 07 18  	sw	zero, 0x184(a5)
   1c28c: 06 e4        	sd	ra, 0x8(sp)
   1c28e: ef 00 30 08  	jal	0x1cb10 <_close>
   1c292: fd 57        	li	a5, -0x1
   1c294: 63 06 f5 00  	beq	a0, a5, 0x1c2a0 <_close_r+0x24>
   1c298: a2 60        	ld	ra, 0x8(sp)
   1c29a: 02 64        	ld	s0, 0x0(sp)
   1c29c: 41 01        	addi	sp, sp, 0x10
   1c29e: 82 80        	ret
   1c2a0: 97 47 00 00  	auipc	a5, 0x4
   1c2a4: 83 a7 87 16  	lw	a5, 0x168(a5)
   1c2a8: e5 db        	beqz	a5, 0x1c298 <_close_r+0x1c>
   1c2aa: a2 60        	ld	ra, 0x8(sp)
   1c2ac: 1c c0        	sw	a5, 0x0(s0)
   1c2ae: 02 64        	ld	s0, 0x0(sp)
   1c2b0: 41 01        	addi	sp, sp, 0x10
   1c2b2: 82 80        	ret

000000000001c2b4 <_reclaim_reent>:
   1c2b4: 97 47 00 00  	auipc	a5, 0x4
   1c2b8: 83 b7 47 8c  	ld	a5, -0x73c(a5)
   1c2bc: 63 87 a7 06  	beq	a5, a0, 0x1c32a <_reclaim_reent+0x76>
   1c2c0: 2c 75        	ld	a1, 0x68(a0)
   1c2c2: 79 71        	addi	sp, sp, -0x30
   1c2c4: 26 ec        	sd	s1, 0x18(sp)
   1c2c6: 06 f4        	sd	ra, 0x28(sp)
   1c2c8: aa 84        	mv	s1, a0
   1c2ca: 9d c9        	beqz	a1, 0x1c300 <_reclaim_reent+0x4c>
   1c2cc: 4a e8        	sd	s2, 0x10(sp)
   1c2ce: 4e e4        	sd	s3, 0x8(sp)
   1c2d0: 22 f0        	sd	s0, 0x20(sp)
   1c2d2: 01 49        	li	s2, 0x0
   1c2d4: 93 09 00 20  	li	s3, 0x200
   1c2d8: b3 87 25 01  	add	a5, a1, s2
   1c2dc: 80 63        	ld	s0, 0x0(a5)
   1c2de: 01 c8        	beqz	s0, 0x1c2ee <_reclaim_reent+0x3a>
   1c2e0: a2 85        	mv	a1, s0
   1c2e2: 00 60        	ld	s0, 0x0(s0)
   1c2e4: 26 85        	mv	a0, s1
   1c2e6: ef 70 9f 87  	jal	0x13b5e <_free_r>
   1c2ea: 7d f8        	bnez	s0, 0x1c2e0 <_reclaim_reent+0x2c>
   1c2ec: ac 74        	ld	a1, 0x68(s1)
   1c2ee: 21 09        	addi	s2, s2, 0x8
   1c2f0: e3 14 39 ff  	bne	s2, s3, 0x1c2d8 <_reclaim_reent+0x24>
   1c2f4: 26 85        	mv	a0, s1
   1c2f6: ef 70 9f 86  	jal	0x13b5e <_free_r>
   1c2fa: 02 74        	ld	s0, 0x20(sp)
   1c2fc: 42 69        	ld	s2, 0x10(sp)
   1c2fe: a2 69        	ld	s3, 0x8(sp)
   1c300: ac 68        	ld	a1, 0x50(s1)
   1c302: 81 c5        	beqz	a1, 0x1c30a <_reclaim_reent+0x56>
   1c304: 26 85        	mv	a0, s1
   1c306: ef 70 9f 85  	jal	0x13b5e <_free_r>
   1c30a: ac 7c        	ld	a1, 0x78(s1)
   1c30c: 81 c5        	beqz	a1, 0x1c314 <_reclaim_reent+0x60>
   1c30e: 26 85        	mv	a0, s1
   1c310: ef 70 ff 84  	jal	0x13b5e <_free_r>
   1c314: bc 64        	ld	a5, 0x48(s1)
   1c316: 91 c7        	beqz	a5, 0x1c322 <_reclaim_reent+0x6e>
   1c318: a2 70        	ld	ra, 0x28(sp)
   1c31a: 26 85        	mv	a0, s1
   1c31c: e2 64        	ld	s1, 0x18(sp)
   1c31e: 45 61        	addi	sp, sp, 0x30
   1c320: 82 87        	jr	a5
   1c322: a2 70        	ld	ra, 0x28(sp)
   1c324: e2 64        	ld	s1, 0x18(sp)
   1c326: 45 61        	addi	sp, sp, 0x30
   1c328: 82 80        	ret
   1c32a: 82 80        	ret

000000000001c32c <_fstat_r>:
   1c32c: 41 11        	addi	sp, sp, -0x10
   1c32e: 2e 87        	mv	a4, a1
   1c330: 22 e0        	sd	s0, 0x0(sp)
   1c332: b2 85        	mv	a1, a2
   1c334: 2a 84        	mv	s0, a0
   1c336: 3a 85        	mv	a0, a4
   1c338: 97 47 00 00  	auipc	a5, 0x4
   1c33c: 23 a8 07 0c  	sw	zero, 0xd0(a5)
   1c340: 06 e4        	sd	ra, 0x8(sp)
   1c342: ef 00 d0 01  	jal	0x1cb5e <_fstat>
   1c346: fd 57        	li	a5, -0x1
   1c348: 63 06 f5 00  	beq	a0, a5, 0x1c354 <_fstat_r+0x28>
   1c34c: a2 60        	ld	ra, 0x8(sp)
   1c34e: 02 64        	ld	s0, 0x0(sp)
   1c350: 41 01        	addi	sp, sp, 0x10
   1c352: 82 80        	ret
   1c354: 97 47 00 00  	auipc	a5, 0x4
   1c358: 83 a7 47 0b  	lw	a5, 0xb4(a5)
   1c35c: e5 db        	beqz	a5, 0x1c34c <_fstat_r+0x20>
   1c35e: a2 60        	ld	ra, 0x8(sp)
   1c360: 1c c0        	sw	a5, 0x0(s0)
   1c362: 02 64        	ld	s0, 0x0(sp)
   1c364: 41 01        	addi	sp, sp, 0x10
   1c366: 82 80        	ret

000000000001c368 <_isatty_r>:
   1c368: 41 11        	addi	sp, sp, -0x10
   1c36a: 22 e0        	sd	s0, 0x0(sp)
   1c36c: 2a 84        	mv	s0, a0
   1c36e: 2e 85        	mv	a0, a1
   1c370: 97 47 00 00  	auipc	a5, 0x4
   1c374: 23 ac 07 08  	sw	zero, 0x98(a5)
   1c378: 06 e4        	sd	ra, 0x8(sp)
   1c37a: ef 00 70 07  	jal	0x1cbf0 <_isatty>
   1c37e: fd 57        	li	a5, -0x1
   1c380: 63 06 f5 00  	beq	a0, a5, 0x1c38c <_isatty_r+0x24>
   1c384: a2 60        	ld	ra, 0x8(sp)
   1c386: 02 64        	ld	s0, 0x0(sp)
   1c388: 41 01        	addi	sp, sp, 0x10
   1c38a: 82 80        	ret
   1c38c: 97 47 00 00  	auipc	a5, 0x4
   1c390: 83 a7 c7 07  	lw	a5, 0x7c(a5)
   1c394: e5 db        	beqz	a5, 0x1c384 <_isatty_r+0x1c>
   1c396: a2 60        	ld	ra, 0x8(sp)
   1c398: 1c c0        	sw	a5, 0x0(s0)
   1c39a: 02 64        	ld	s0, 0x0(sp)
   1c39c: 41 01        	addi	sp, sp, 0x10
   1c39e: 82 80        	ret

000000000001c3a0 <_lseek_r>:
   1c3a0: 41 11        	addi	sp, sp, -0x10
   1c3a2: 2e 87        	mv	a4, a1
   1c3a4: 22 e0        	sd	s0, 0x0(sp)
   1c3a6: b2 85        	mv	a1, a2
   1c3a8: 2a 84        	mv	s0, a0
   1c3aa: 36 86        	mv	a2, a3
   1c3ac: 3a 85        	mv	a0, a4
   1c3ae: 97 47 00 00  	auipc	a5, 0x4
   1c3b2: 23 ad 07 04  	sw	zero, 0x5a(a5)
   1c3b6: 06 e4        	sd	ra, 0x8(sp)
   1c3b8: ef 00 30 07  	jal	0x1cc2a <_lseek>
   1c3bc: fd 57        	li	a5, -0x1
   1c3be: 63 06 f5 00  	beq	a0, a5, 0x1c3ca <_lseek_r+0x2a>
   1c3c2: a2 60        	ld	ra, 0x8(sp)
   1c3c4: 02 64        	ld	s0, 0x0(sp)
   1c3c6: 41 01        	addi	sp, sp, 0x10
   1c3c8: 82 80        	ret
   1c3ca: 97 47 00 00  	auipc	a5, 0x4
   1c3ce: 83 a7 e7 03  	lw	a5, 0x3e(a5)
   1c3d2: e5 db        	beqz	a5, 0x1c3c2 <_lseek_r+0x22>
   1c3d4: a2 60        	ld	ra, 0x8(sp)
   1c3d6: 1c c0        	sw	a5, 0x0(s0)
   1c3d8: 02 64        	ld	s0, 0x0(sp)
   1c3da: 41 01        	addi	sp, sp, 0x10
   1c3dc: 82 80        	ret

000000000001c3de <_read_r>:
   1c3de: 41 11        	addi	sp, sp, -0x10
   1c3e0: 2e 87        	mv	a4, a1
   1c3e2: 22 e0        	sd	s0, 0x0(sp)
   1c3e4: b2 85        	mv	a1, a2
   1c3e6: 2a 84        	mv	s0, a0
   1c3e8: 36 86        	mv	a2, a3
   1c3ea: 3a 85        	mv	a0, a4
   1c3ec: 97 47 00 00  	auipc	a5, 0x4
   1c3f0: 23 ae 07 00  	sw	zero, 0x1c(a5)
   1c3f4: 06 e4        	sd	ra, 0x8(sp)
   1c3f6: ef 00 10 06  	jal	0x1cc56 <_read>
   1c3fa: fd 57        	li	a5, -0x1
   1c3fc: 63 06 f5 00  	beq	a0, a5, 0x1c408 <_read_r+0x2a>
   1c400: a2 60        	ld	ra, 0x8(sp)
   1c402: 02 64        	ld	s0, 0x0(sp)
   1c404: 41 01        	addi	sp, sp, 0x10
   1c406: 82 80        	ret
   1c408: 97 47 00 00  	auipc	a5, 0x4
   1c40c: 83 a7 07 00  	lw	a5, 0x0(a5)
   1c410: e5 db        	beqz	a5, 0x1c400 <_read_r+0x22>
   1c412: a2 60        	ld	ra, 0x8(sp)
   1c414: 1c c0        	sw	a5, 0x0(s0)
   1c416: 02 64        	ld	s0, 0x0(sp)
   1c418: 41 01        	addi	sp, sp, 0x10
   1c41a: 82 80        	ret

000000000001c41c <_kill_r>:
   1c41c: 41 11        	addi	sp, sp, -0x10
   1c41e: 2e 87        	mv	a4, a1
   1c420: 22 e0        	sd	s0, 0x0(sp)
   1c422: b2 85        	mv	a1, a2
   1c424: 2a 84        	mv	s0, a0
   1c426: 3a 85        	mv	a0, a4
   1c428: 97 47 00 00  	auipc	a5, 0x4
   1c42c: 23 a0 07 fe  	sw	zero, -0x20(a5)
   1c430: 06 e4        	sd	ra, 0x8(sp)
   1c432: ef 00 40 7e  	jal	0x1cc16 <_kill>
   1c436: fd 57        	li	a5, -0x1
   1c438: 63 06 f5 00  	beq	a0, a5, 0x1c444 <_kill_r+0x28>
   1c43c: a2 60        	ld	ra, 0x8(sp)
   1c43e: 02 64        	ld	s0, 0x0(sp)
   1c440: 41 01        	addi	sp, sp, 0x10
   1c442: 82 80        	ret
   1c444: 97 47 00 00  	auipc	a5, 0x4
   1c448: 83 a7 47 fc  	lw	a5, -0x3c(a5)
   1c44c: e5 db        	beqz	a5, 0x1c43c <_kill_r+0x20>
   1c44e: a2 60        	ld	ra, 0x8(sp)
   1c450: 1c c0        	sw	a5, 0x0(s0)
   1c452: 02 64        	ld	s0, 0x0(sp)
   1c454: 41 01        	addi	sp, sp, 0x10
   1c456: 82 80        	ret

000000000001c458 <_getpid_r>:
   1c458: 51 af        	j	0x1cbec <_getpid>

000000000001c45a <_sbrk_r>:
   1c45a: 41 11        	addi	sp, sp, -0x10
   1c45c: 22 e0        	sd	s0, 0x0(sp)
   1c45e: 2a 84        	mv	s0, a0
   1c460: 2e 85        	mv	a0, a1
   1c462: 97 47 00 00  	auipc	a5, 0x4
   1c466: 23 a3 07 fa  	sw	zero, -0x5a(a5)
   1c46a: 06 e4        	sd	ra, 0x8(sp)
   1c46c: ef 00 70 01  	jal	0x1cc82 <_sbrk>
   1c470: fd 57        	li	a5, -0x1
   1c472: 63 06 f5 00  	beq	a0, a5, 0x1c47e <_sbrk_r+0x24>
   1c476: a2 60        	ld	ra, 0x8(sp)
   1c478: 02 64        	ld	s0, 0x0(sp)
   1c47a: 41 01        	addi	sp, sp, 0x10
   1c47c: 82 80        	ret
   1c47e: 97 47 00 00  	auipc	a5, 0x4
   1c482: 83 a7 a7 f8  	lw	a5, -0x76(a5)
   1c486: e5 db        	beqz	a5, 0x1c476 <_sbrk_r+0x1c>
   1c488: a2 60        	ld	ra, 0x8(sp)
   1c48a: 1c c0        	sw	a5, 0x0(s0)
   1c48c: 02 64        	ld	s0, 0x0(sp)
   1c48e: 41 01        	addi	sp, sp, 0x10
   1c490: 82 80        	ret

000000000001c492 <_write_r>:
   1c492: 41 11        	addi	sp, sp, -0x10
   1c494: 2e 87        	mv	a4, a1
   1c496: 22 e0        	sd	s0, 0x0(sp)
   1c498: b2 85        	mv	a1, a2
   1c49a: 2a 84        	mv	s0, a0
   1c49c: 36 86        	mv	a2, a3
   1c49e: 3a 85        	mv	a0, a4
   1c4a0: 97 47 00 00  	auipc	a5, 0x4
   1c4a4: 23 a4 07 f6  	sw	zero, -0x98(a5)
   1c4a8: 06 e4        	sd	ra, 0x8(sp)
   1c4aa: ef 00 d0 02  	jal	0x1ccd6 <_write>
   1c4ae: fd 57        	li	a5, -0x1
   1c4b0: 63 06 f5 00  	beq	a0, a5, 0x1c4bc <_write_r+0x2a>
   1c4b4: a2 60        	ld	ra, 0x8(sp)
   1c4b6: 02 64        	ld	s0, 0x0(sp)
   1c4b8: 41 01        	addi	sp, sp, 0x10
   1c4ba: 82 80        	ret
   1c4bc: 97 47 00 00  	auipc	a5, 0x4
   1c4c0: 83 a7 c7 f4  	lw	a5, -0xb4(a5)
   1c4c4: e5 db        	beqz	a5, 0x1c4b4 <_write_r+0x22>
   1c4c6: a2 60        	ld	ra, 0x8(sp)
   1c4c8: 1c c0        	sw	a5, 0x0(s0)
   1c4ca: 02 64        	ld	s0, 0x0(sp)
   1c4cc: 41 01        	addi	sp, sp, 0x10
   1c4ce: 82 80        	ret

000000000001c4d0 <__errno>:
   1c4d0: 17 35 00 00  	auipc	a0, 0x3
   1c4d4: 03 35 85 6a  	ld	a0, 0x6a8(a0)
   1c4d8: 82 80        	ret

000000000001c4da <__libc_init_array>:
   1c4da: 01 11        	addi	sp, sp, -0x20
   1c4dc: 22 e8        	sd	s0, 0x10(sp)
   1c4de: 4a e0        	sd	s2, 0x0(sp)
   1c4e0: 97 67 ff ff  	auipc	a5, 0xffff6
   1c4e4: 93 87 47 c0  	addi	a5, a5, -0x3fc
   1c4e8: 17 64 ff ff  	auipc	s0, 0xffff6
   1c4ec: 13 04 c4 bf  	addi	s0, s0, -0x404
   1c4f0: 06 ec        	sd	ra, 0x18(sp)
   1c4f2: 26 e4        	sd	s1, 0x8(sp)
   1c4f4: 33 89 87 40  	sub	s2, a5, s0
   1c4f8: 63 8b 87 00  	beq	a5, s0, 0x1c50e <__libc_init_array+0x34>
   1c4fc: 13 59 39 40  	srai	s2, s2, 0x3
   1c500: 81 44        	li	s1, 0x0
   1c502: 1c 60        	ld	a5, 0x0(s0)
   1c504: 85 04        	addi	s1, s1, 0x1
   1c506: 21 04        	addi	s0, s0, 0x8
   1c508: 82 97        	jalr	a5
   1c50a: e3 ec 24 ff  	bltu	s1, s2, 0x1c502 <__libc_init_array+0x28>
   1c50e: 97 27 00 00  	auipc	a5, 0x2
   1c512: 93 87 a7 af  	addi	a5, a5, -0x506
   1c516: 17 24 00 00  	auipc	s0, 0x2
   1c51a: 13 04 24 ae  	addi	s0, s0, -0x51e
   1c51e: 33 89 87 40  	sub	s2, a5, s0
   1c522: 13 59 39 40  	srai	s2, s2, 0x3
   1c526: 63 89 87 00  	beq	a5, s0, 0x1c538 <__libc_init_array+0x5e>
   1c52a: 81 44        	li	s1, 0x0
   1c52c: 1c 60        	ld	a5, 0x0(s0)
   1c52e: 85 04        	addi	s1, s1, 0x1
   1c530: 21 04        	addi	s0, s0, 0x8
   1c532: 82 97        	jalr	a5
   1c534: e3 ec 24 ff  	bltu	s1, s2, 0x1c52c <__libc_init_array+0x52>
   1c538: e2 60        	ld	ra, 0x18(sp)
   1c53a: 42 64        	ld	s0, 0x10(sp)
   1c53c: a2 64        	ld	s1, 0x8(sp)
   1c53e: 02 69        	ld	s2, 0x0(sp)
   1c540: 05 61        	addi	sp, sp, 0x20
   1c542: 82 80        	ret

000000000001c544 <__libc_fini_array>:
   1c544: 01 11        	addi	sp, sp, -0x20
   1c546: 22 e8        	sd	s0, 0x10(sp)
   1c548: 97 27 00 00  	auipc	a5, 0x2
   1c54c: 93 87 87 aa  	addi	a5, a5, -0x558
   1c550: 17 24 00 00  	auipc	s0, 0x2
   1c554: 13 04 84 aa  	addi	s0, s0, -0x558
   1c558: 1d 8c        	sub	s0, s0, a5
   1c55a: 26 e4        	sd	s1, 0x8(sp)
   1c55c: 06 ec        	sd	ra, 0x18(sp)
   1c55e: 93 54 34 40  	srai	s1, s0, 0x3
   1c562: 81 c8        	beqz	s1, 0x1c572 <__libc_fini_array+0x2e>
   1c564: 61 14        	addi	s0, s0, -0x8
   1c566: 3e 94        	add	s0, s0, a5
   1c568: 1c 60        	ld	a5, 0x0(s0)
   1c56a: fd 14        	addi	s1, s1, -0x1
   1c56c: 61 14        	addi	s0, s0, -0x8
   1c56e: 82 97        	jalr	a5
   1c570: e5 fc        	bnez	s1, 0x1c568 <__libc_fini_array+0x24>
   1c572: e2 60        	ld	ra, 0x18(sp)
   1c574: 42 64        	ld	s0, 0x10(sp)
   1c576: a2 64        	ld	s1, 0x8(sp)
   1c578: 05 61        	addi	sp, sp, 0x20
   1c57a: 82 80        	ret

000000000001c57c <__retarget_lock_init>:
   1c57c: 82 80        	ret

000000000001c57e <__retarget_lock_init_recursive>:
   1c57e: 82 80        	ret

000000000001c580 <__retarget_lock_close>:
   1c580: 82 80        	ret

000000000001c582 <__retarget_lock_close_recursive>:
   1c582: 82 80        	ret

000000000001c584 <__retarget_lock_acquire>:
   1c584: 82 80        	ret

000000000001c586 <__retarget_lock_acquire_recursive>:
   1c586: 82 80        	ret

000000000001c588 <__retarget_lock_try_acquire>:
   1c588: 05 45        	li	a0, 0x1
   1c58a: 82 80        	ret

000000000001c58c <__retarget_lock_try_acquire_recursive>:
   1c58c: 05 45        	li	a0, 0x1
   1c58e: 82 80        	ret

000000000001c590 <__retarget_lock_release>:
   1c590: 82 80        	ret

000000000001c592 <__retarget_lock_release_recursive>:
   1c592: 82 80        	ret

000000000001c594 <memmove>:
   1c594: 63 f2 a5 02  	bgeu	a1, a0, 0x1c5b8 <memmove+0x24>
   1c598: 33 87 c5 00  	add	a4, a1, a2
   1c59c: 63 7e e5 00  	bgeu	a0, a4, 0x1c5b8 <memmove+0x24>
   1c5a0: b3 07 c5 00  	add	a5, a0, a2
   1c5a4: 1d ca        	beqz	a2, 0x1c5da <memmove+0x46>
   1c5a6: 83 46 f7 ff  	lbu	a3, -0x1(a4)
   1c5aa: fd 17        	addi	a5, a5, -0x1
   1c5ac: 7d 17        	addi	a4, a4, -0x1
   1c5ae: 23 80 d7 00  	sb	a3, 0x0(a5)
   1c5b2: e3 1a f5 fe  	bne	a0, a5, 0x1c5a6 <memmove+0x12>
   1c5b6: 82 80        	ret
   1c5b8: fd 47        	li	a5, 0x1f
   1c5ba: 63 e1 c7 02  	bltu	a5, a2, 0x1c5dc <memmove+0x48>
   1c5be: aa 87        	mv	a5, a0
   1c5c0: 93 06 f6 ff  	addi	a3, a2, -0x1
   1c5c4: 51 ce        	beqz	a2, 0x1c660 <memmove+0xcc>
   1c5c6: 85 06        	addi	a3, a3, 0x1
   1c5c8: be 96        	add	a3, a3, a5
   1c5ca: 03 c7 05 00  	lbu	a4, 0x0(a1)
   1c5ce: 85 07        	addi	a5, a5, 0x1
   1c5d0: 85 05        	addi	a1, a1, 0x1
   1c5d2: a3 8f e7 fe  	sb	a4, -0x1(a5)
   1c5d6: e3 9a d7 fe  	bne	a5, a3, 0x1c5ca <memmove+0x36>
   1c5da: 82 80        	ret
   1c5dc: b3 67 b5 00  	or	a5, a0, a1
   1c5e0: 9d 8b        	andi	a5, a5, 0x7
   1c5e2: bd eb        	bnez	a5, 0x1c658 <memmove+0xc4>
   1c5e4: 93 08 06 fe  	addi	a7, a2, -0x20
   1c5e8: 93 f8 08 fe  	andi	a7, a7, -0x20
   1c5ec: 93 88 08 02  	addi	a7, a7, 0x20
   1c5f0: b3 06 15 01  	add	a3, a0, a7
   1c5f4: 2e 87        	mv	a4, a1
   1c5f6: aa 87        	mv	a5, a0
   1c5f8: 03 38 07 00  	ld	a6, 0x0(a4)
   1c5fc: 13 07 07 02  	addi	a4, a4, 0x20
   1c600: 93 87 07 02  	addi	a5, a5, 0x20
   1c604: 23 b0 07 ff  	sd	a6, -0x20(a5)
   1c608: 03 38 87 fe  	ld	a6, -0x18(a4)
   1c60c: 23 b4 07 ff  	sd	a6, -0x18(a5)
   1c610: 03 38 07 ff  	ld	a6, -0x10(a4)
   1c614: 23 b8 07 ff  	sd	a6, -0x10(a5)
   1c618: 03 38 87 ff  	ld	a6, -0x8(a4)
   1c61c: 23 bc 07 ff  	sd	a6, -0x8(a5)
   1c620: e3 9c d7 fc  	bne	a5, a3, 0x1c5f8 <memmove+0x64>
   1c624: 13 78 86 01  	andi	a6, a2, 0x18
   1c628: c6 95        	add	a1, a1, a7
   1c62a: 13 77 f6 01  	andi	a4, a2, 0x1f
   1c62e: 63 0a 08 02  	beqz	a6, 0x1c662 <memmove+0xce>
   1c632: 13 08 87 ff  	addi	a6, a4, -0x8
   1c636: 13 78 88 ff  	andi	a6, a6, -0x8
   1c63a: 21 08        	addi	a6, a6, 0x8
   1c63c: b3 87 06 01  	add	a5, a3, a6
   1c640: 2e 87        	mv	a4, a1
   1c642: 83 38 07 00  	ld	a7, 0x0(a4)
   1c646: a1 06        	addi	a3, a3, 0x8
   1c648: 21 07        	addi	a4, a4, 0x8
   1c64a: 23 bc 16 ff  	sd	a7, -0x8(a3)
   1c64e: e3 9a f6 fe  	bne	a3, a5, 0x1c642 <memmove+0xae>
   1c652: 1d 8a        	andi	a2, a2, 0x7
   1c654: c2 95        	add	a1, a1, a6
   1c656: ad b7        	j	0x1c5c0 <memmove+0x2c>
   1c658: 93 06 f6 ff  	addi	a3, a2, -0x1
   1c65c: aa 87        	mv	a5, a0
   1c65e: a5 b7        	j	0x1c5c6 <memmove+0x32>
   1c660: 82 80        	ret
   1c662: 3a 86        	mv	a2, a4
   1c664: b1 bf        	j	0x1c5c0 <memmove+0x2c>

000000000001c666 <memset>:
   1c666: 3d 43        	li	t1, 0xf
   1c668: 2a 87        	mv	a4, a0
   1c66a: 63 71 c3 02  	bgeu	t1, a2, 0x1c68c <memset+0x26>
   1c66e: 93 77 f7 00  	andi	a5, a4, 0xf
   1c672: c1 e3        	bnez	a5, 0x1c6f2 <memset+0x8c>
   1c674: bd e1        	bnez	a1, 0x1c6da <memset+0x74>
   1c676: 93 76 06 ff  	andi	a3, a2, -0x10
   1c67a: 3d 8a        	andi	a2, a2, 0xf
   1c67c: ba 96        	add	a3, a3, a4
   1c67e: 0c e3        	sd	a1, 0x0(a4)
   1c680: 0c e7        	sd	a1, 0x8(a4)
   1c682: 41 07        	addi	a4, a4, 0x10
   1c684: e3 6d d7 fe  	bltu	a4, a3, 0x1c67e <memset+0x18>
   1c688: 11 e2        	bnez	a2, 0x1c68c <memset+0x26>
   1c68a: 82 80        	ret
   1c68c: b3 06 c3 40  	sub	a3, t1, a2
   1c690: 8a 06        	slli	a3, a3, 0x2
   1c692: 97 02 00 00  	auipc	t0, 0x0
   1c696: 96 96        	add	a3, a3, t0
   1c698: 67 80 a6 00  	jr	0xa(a3)
   1c69c: 23 07 b7 00  	sb	a1, 0xe(a4)
   1c6a0: a3 06 b7 00  	sb	a1, 0xd(a4)
   1c6a4: 23 06 b7 00  	sb	a1, 0xc(a4)
   1c6a8: a3 05 b7 00  	sb	a1, 0xb(a4)
   1c6ac: 23 05 b7 00  	sb	a1, 0xa(a4)
   1c6b0: a3 04 b7 00  	sb	a1, 0x9(a4)
   1c6b4: 23 04 b7 00  	sb	a1, 0x8(a4)
   1c6b8: a3 03 b7 00  	sb	a1, 0x7(a4)
   1c6bc: 23 03 b7 00  	sb	a1, 0x6(a4)
   1c6c0: a3 02 b7 00  	sb	a1, 0x5(a4)
   1c6c4: 23 02 b7 00  	sb	a1, 0x4(a4)
   1c6c8: a3 01 b7 00  	sb	a1, 0x3(a4)
   1c6cc: 23 01 b7 00  	sb	a1, 0x2(a4)
   1c6d0: a3 00 b7 00  	sb	a1, 0x1(a4)
   1c6d4: 23 00 b7 00  	sb	a1, 0x0(a4)
   1c6d8: 82 80        	ret
   1c6da: 93 f5 f5 0f  	andi	a1, a1, 0xff
   1c6de: 93 96 85 00  	slli	a3, a1, 0x8
   1c6e2: d5 8d        	or	a1, a1, a3
   1c6e4: 93 96 05 01  	slli	a3, a1, 0x10
   1c6e8: d5 8d        	or	a1, a1, a3
   1c6ea: 93 96 05 02  	slli	a3, a1, 0x20
   1c6ee: d5 8d        	or	a1, a1, a3
   1c6f0: 59 b7        	j	0x1c676 <memset+0x10>
   1c6f2: 93 96 27 00  	slli	a3, a5, 0x2
   1c6f6: 97 02 00 00  	auipc	t0, 0x0
   1c6fa: 96 96        	add	a3, a3, t0
   1c6fc: 86 82        	mv	t0, ra
   1c6fe: e7 80 26 fa  	jalr	-0x5e(a3)
   1c702: 96 80        	mv	ra, t0
   1c704: c1 17        	addi	a5, a5, -0x10
   1c706: 1d 8f        	sub	a4, a4, a5
   1c708: 3e 96        	add	a2, a2, a5
   1c70a: e3 71 c3 f8  	bgeu	t1, a2, 0x1c68c <memset+0x26>
   1c70e: 9d b7        	j	0x1c674 <memset+0xe>

000000000001c710 <memcpy>:
   1c710: b3 c7 a5 00  	xor	a5, a1, a0
   1c714: 9d 8b        	andi	a5, a5, 0x7
   1c716: b3 08 c5 00  	add	a7, a0, a2
   1c71a: b1 e7        	bnez	a5, 0x1c766 <memcpy+0x56>
   1c71c: 9d 47        	li	a5, 0x7
   1c71e: 63 f4 c7 04  	bgeu	a5, a2, 0x1c766 <memcpy+0x56>
   1c722: 93 77 75 00  	andi	a5, a0, 0x7
   1c726: 2a 87        	mv	a4, a0
   1c728: b9 eb        	bnez	a5, 0x1c77e <memcpy+0x6e>
   1c72a: 13 f6 88 ff  	andi	a2, a7, -0x8
   1c72e: b3 06 e6 40  	sub	a3, a2, a4
   1c732: 93 07 00 04  	li	a5, 0x40
   1c736: 63 c8 d7 06  	blt	a5, a3, 0x1c7a6 <memcpy+0x96>
   1c73a: ae 86        	mv	a3, a1
   1c73c: ba 87        	mv	a5, a4
   1c73e: 63 71 c7 02  	bgeu	a4, a2, 0x1c760 <memcpy+0x50>
   1c742: 03 b8 06 00  	ld	a6, 0x0(a3)
   1c746: a1 07        	addi	a5, a5, 0x8
   1c748: a1 06        	addi	a3, a3, 0x8
   1c74a: 23 bc 07 ff  	sd	a6, -0x8(a5)
   1c74e: e3 ea c7 fe  	bltu	a5, a2, 0x1c742 <memcpy+0x32>
   1c752: 93 07 f6 ff  	addi	a5, a2, -0x1
   1c756: 99 8f        	sub	a5, a5, a4
   1c758: e1 9b        	andi	a5, a5, -0x8
   1c75a: a1 07        	addi	a5, a5, 0x8
   1c75c: 3e 97        	add	a4, a4, a5
   1c75e: be 95        	add	a1, a1, a5
   1c760: 63 66 17 01  	bltu	a4, a7, 0x1c76c <memcpy+0x5c>
   1c764: 82 80        	ret
   1c766: 2a 87        	mv	a4, a0
   1c768: 63 7e 15 03  	bgeu	a0, a7, 0x1c7a4 <memcpy+0x94>
   1c76c: 83 c7 05 00  	lbu	a5, 0x0(a1)
   1c770: 05 07        	addi	a4, a4, 0x1
   1c772: 85 05        	addi	a1, a1, 0x1
   1c774: a3 0f f7 fe  	sb	a5, -0x1(a4)
   1c778: e3 9a e8 fe  	bne	a7, a4, 0x1c76c <memcpy+0x5c>
   1c77c: 82 80        	ret
   1c77e: 83 c6 05 00  	lbu	a3, 0x0(a1)
   1c782: 05 07        	addi	a4, a4, 0x1
   1c784: 93 77 77 00  	andi	a5, a4, 0x7
   1c788: a3 0f d7 fe  	sb	a3, -0x1(a4)
   1c78c: 85 05        	addi	a1, a1, 0x1
   1c78e: d1 df        	beqz	a5, 0x1c72a <memcpy+0x1a>
   1c790: 83 c6 05 00  	lbu	a3, 0x0(a1)
   1c794: 05 07        	addi	a4, a4, 0x1
   1c796: 93 77 77 00  	andi	a5, a4, 0x7
   1c79a: a3 0f d7 fe  	sb	a3, -0x1(a4)
   1c79e: 85 05        	addi	a1, a1, 0x1
   1c7a0: f9 ff        	bnez	a5, 0x1c77e <memcpy+0x6e>
   1c7a2: 61 b7        	j	0x1c72a <memcpy+0x1a>
   1c7a4: 82 80        	ret
   1c7a6: 41 11        	addi	sp, sp, -0x10
   1c7a8: 22 e4        	sd	s0, 0x8(sp)
   1c7aa: 13 04 00 04  	li	s0, 0x40
   1c7ae: 83 b3 05 00  	ld	t2, 0x0(a1)
   1c7b2: 83 b2 85 00  	ld	t0, 0x8(a1)
   1c7b6: 83 bf 05 01  	ld	t6, 0x10(a1)
   1c7ba: 03 bf 85 01  	ld	t5, 0x18(a1)
   1c7be: 83 be 05 02  	ld	t4, 0x20(a1)
   1c7c2: 03 be 85 02  	ld	t3, 0x28(a1)
   1c7c6: 03 b3 05 03  	ld	t1, 0x30(a1)
   1c7ca: 03 b8 85 03  	ld	a6, 0x38(a1)
   1c7ce: b4 61        	ld	a3, 0x40(a1)
   1c7d0: 13 07 87 04  	addi	a4, a4, 0x48
   1c7d4: b3 07 e6 40  	sub	a5, a2, a4
   1c7d8: 23 3c 77 fa  	sd	t2, -0x48(a4)
   1c7dc: 23 30 57 fc  	sd	t0, -0x40(a4)
   1c7e0: 23 34 f7 fd  	sd	t6, -0x38(a4)
   1c7e4: 23 38 e7 fd  	sd	t5, -0x30(a4)
   1c7e8: 23 3c d7 fd  	sd	t4, -0x28(a4)
   1c7ec: 23 30 c7 ff  	sd	t3, -0x20(a4)
   1c7f0: 23 34 67 fe  	sd	t1, -0x18(a4)
   1c7f4: 23 38 07 ff  	sd	a6, -0x10(a4)
   1c7f8: 23 3c d7 fe  	sd	a3, -0x8(a4)
   1c7fc: 93 85 85 04  	addi	a1, a1, 0x48
   1c800: e3 47 f4 fa  	blt	s0, a5, 0x1c7ae <memcpy+0x9e>
   1c804: ae 86        	mv	a3, a1
   1c806: ba 87        	mv	a5, a4
   1c808: 63 71 c7 02  	bgeu	a4, a2, 0x1c82a <memcpy+0x11a>
   1c80c: 03 b8 06 00  	ld	a6, 0x0(a3)
   1c810: a1 07        	addi	a5, a5, 0x8
   1c812: a1 06        	addi	a3, a3, 0x8
   1c814: 23 bc 07 ff  	sd	a6, -0x8(a5)
   1c818: e3 ea c7 fe  	bltu	a5, a2, 0x1c80c <memcpy+0xfc>
   1c81c: 93 07 f6 ff  	addi	a5, a2, -0x1
   1c820: 99 8f        	sub	a5, a5, a4
   1c822: e1 9b        	andi	a5, a5, -0x8
   1c824: a1 07        	addi	a5, a5, 0x8
   1c826: 3e 97        	add	a4, a4, a5
   1c828: be 95        	add	a1, a1, a5
   1c82a: 63 65 17 01  	bltu	a4, a7, 0x1c834 <memcpy+0x124>
   1c82e: 22 64        	ld	s0, 0x8(sp)
   1c830: 41 01        	addi	sp, sp, 0x10
   1c832: 82 80        	ret
   1c834: 83 c7 05 00  	lbu	a5, 0x0(a1)
   1c838: 05 07        	addi	a4, a4, 0x1
   1c83a: 85 05        	addi	a1, a1, 0x1
   1c83c: a3 0f f7 fe  	sb	a5, -0x1(a4)
   1c840: e3 87 e8 fe  	beq	a7, a4, 0x1c82e <memcpy+0x11e>
   1c844: 83 c7 05 00  	lbu	a5, 0x0(a1)
   1c848: 05 07        	addi	a4, a4, 0x1
   1c84a: 85 05        	addi	a1, a1, 0x1
   1c84c: a3 0f f7 fe  	sb	a5, -0x1(a4)
   1c850: e3 92 e8 fe  	bne	a7, a4, 0x1c834 <memcpy+0x124>
   1c854: e9 bf        	j	0x1c82e <memcpy+0x11e>

000000000001c856 <strlen>:
   1c856: 93 77 75 00  	andi	a5, a0, 0x7
   1c85a: 2a 87        	mv	a4, a0
   1c85c: b5 e3        	bnez	a5, 0x1c8c0 <strlen+0x6a>
   1c85e: b7 f6 ef 0f  	lui	a3, 0xfeff
   1c862: 92 06        	slli	a3, a3, 0x4
   1c864: 93 86 f6 ef  	addi	a3, a3, -0x101
   1c868: c2 06        	slli	a3, a3, 0x10
   1c86a: 93 86 f6 ef  	addi	a3, a3, -0x101
   1c86e: be 06        	slli	a3, a3, 0xf
   1c870: 93 86 f6 f7  	addi	a3, a3, -0x81
   1c874: fd 55        	li	a1, -0x1
   1c876: 10 63        	ld	a2, 0x0(a4)
   1c878: 21 07        	addi	a4, a4, 0x8
   1c87a: b3 77 d6 00  	and	a5, a2, a3
   1c87e: b6 97        	add	a5, a5, a3
   1c880: d1 8f        	or	a5, a5, a2
   1c882: d5 8f        	or	a5, a5, a3
   1c884: e3 89 b7 fe  	beq	a5, a1, 0x1c876 <strlen+0x20>
   1c888: 83 46 87 ff  	lbu	a3, -0x8(a4)
   1c88c: b3 07 a7 40  	sub	a5, a4, a0
   1c890: a9 c6        	beqz	a3, 0x1c8da <strlen+0x84>
   1c892: 83 46 97 ff  	lbu	a3, -0x7(a4)
   1c896: 9d ce        	beqz	a3, 0x1c8d4 <strlen+0x7e>
   1c898: 83 46 a7 ff  	lbu	a3, -0x6(a4)
   1c89c: a9 c6        	beqz	a3, 0x1c8e6 <strlen+0x90>
   1c89e: 83 46 b7 ff  	lbu	a3, -0x5(a4)
   1c8a2: 9d ce        	beqz	a3, 0x1c8e0 <strlen+0x8a>
   1c8a4: 83 46 c7 ff  	lbu	a3, -0x4(a4)
   1c8a8: b1 c2        	beqz	a3, 0x1c8ec <strlen+0x96>
   1c8aa: 83 46 d7 ff  	lbu	a3, -0x3(a4)
   1c8ae: b1 c2        	beqz	a3, 0x1c8f2 <strlen+0x9c>
   1c8b0: 03 45 e7 ff  	lbu	a0, -0x2(a4)
   1c8b4: 33 35 a0 00  	snez	a0, a0
   1c8b8: 3e 95        	add	a0, a0, a5
   1c8ba: 79 15        	addi	a0, a0, -0x2
   1c8bc: 82 80        	ret
   1c8be: c5 d2        	beqz	a3, 0x1c85e <strlen+0x8>
   1c8c0: 83 47 07 00  	lbu	a5, 0x0(a4)
   1c8c4: 05 07        	addi	a4, a4, 0x1
   1c8c6: 93 76 77 00  	andi	a3, a4, 0x7
   1c8ca: f5 fb        	bnez	a5, 0x1c8be <strlen+0x68>
   1c8cc: 09 8f        	sub	a4, a4, a0
   1c8ce: 13 05 f7 ff  	addi	a0, a4, -0x1
   1c8d2: 82 80        	ret
   1c8d4: 13 85 97 ff  	addi	a0, a5, -0x7
   1c8d8: 82 80        	ret
   1c8da: 13 85 87 ff  	addi	a0, a5, -0x8
   1c8de: 82 80        	ret
   1c8e0: 13 85 b7 ff  	addi	a0, a5, -0x5
   1c8e4: 82 80        	ret
   1c8e6: 13 85 a7 ff  	addi	a0, a5, -0x6
   1c8ea: 82 80        	ret
   1c8ec: 13 85 c7 ff  	addi	a0, a5, -0x4
   1c8f0: 82 80        	ret
   1c8f2: 13 85 d7 ff  	addi	a0, a5, -0x3
   1c8f6: 82 80        	ret

000000000001c8f8 <strcpy>:
   1c8f8: b3 67 b5 00  	or	a5, a0, a1
   1c8fc: 9d 8b        	andi	a5, a5, 0x7
   1c8fe: d1 e7        	bnez	a5, 0x1c98a <strcpy+0x92>
   1c900: 37 f7 ef 0f  	lui	a4, 0xfeff
   1c904: 12 07        	slli	a4, a4, 0x4
   1c906: 13 07 f7 ef  	addi	a4, a4, -0x101
   1c90a: 42 07        	slli	a4, a4, 0x10
   1c90c: 94 61        	ld	a3, 0x0(a1)
   1c90e: 13 07 f7 ef  	addi	a4, a4, -0x101
   1c912: 3e 07        	slli	a4, a4, 0xf
   1c914: 13 07 f7 f7  	addi	a4, a4, -0x81
   1c918: b3 f7 e6 00  	and	a5, a3, a4
   1c91c: ba 97        	add	a5, a5, a4
   1c91e: d5 8f        	or	a5, a5, a3
   1c920: d9 8f        	or	a5, a5, a4
   1c922: 7d 56        	li	a2, -0x1
   1c924: 63 9c c7 06  	bne	a5, a2, 0x1c99c <strcpy+0xa4>
   1c928: 2a 86        	mv	a2, a0
   1c92a: 7d 58        	li	a6, -0x1
   1c92c: 14 e2        	sd	a3, 0x0(a2)
   1c92e: 94 65        	ld	a3, 0x8(a1)
   1c930: a1 05        	addi	a1, a1, 0x8
   1c932: 21 06        	addi	a2, a2, 0x8
   1c934: b3 f7 e6 00  	and	a5, a3, a4
   1c938: ba 97        	add	a5, a5, a4
   1c93a: d5 8f        	or	a5, a5, a3
   1c93c: d9 8f        	or	a5, a5, a4
   1c93e: e3 87 07 ff  	beq	a5, a6, 0x1c92c <strcpy+0x34>
   1c942: 83 c7 05 00  	lbu	a5, 0x0(a1)
   1c946: 03 c7 15 00  	lbu	a4, 0x1(a1)
   1c94a: 83 c6 25 00  	lbu	a3, 0x2(a1)
   1c94e: 23 00 f6 00  	sb	a5, 0x0(a2)
   1c952: 9d cb        	beqz	a5, 0x1c988 <strcpy+0x90>
   1c954: a3 00 e6 00  	sb	a4, 0x1(a2)
   1c958: 05 cb        	beqz	a4, 0x1c988 <strcpy+0x90>
   1c95a: 83 c7 35 00  	lbu	a5, 0x3(a1)
   1c95e: 23 01 d6 00  	sb	a3, 0x2(a2)
   1c962: 9d c2        	beqz	a3, 0x1c988 <strcpy+0x90>
   1c964: 03 c7 45 00  	lbu	a4, 0x4(a1)
   1c968: a3 01 f6 00  	sb	a5, 0x3(a2)
   1c96c: 91 cf        	beqz	a5, 0x1c988 <strcpy+0x90>
   1c96e: 83 c7 55 00  	lbu	a5, 0x5(a1)
   1c972: 23 02 e6 00  	sb	a4, 0x4(a2)
   1c976: 09 cb        	beqz	a4, 0x1c988 <strcpy+0x90>
   1c978: 03 c7 65 00  	lbu	a4, 0x6(a1)
   1c97c: a3 02 f6 00  	sb	a5, 0x5(a2)
   1c980: 81 c7        	beqz	a5, 0x1c988 <strcpy+0x90>
   1c982: 23 03 e6 00  	sb	a4, 0x6(a2)
   1c986: 09 ef        	bnez	a4, 0x1c9a0 <strcpy+0xa8>
   1c988: 82 80        	ret
   1c98a: aa 87        	mv	a5, a0
   1c98c: 03 c7 05 00  	lbu	a4, 0x0(a1)
   1c990: 85 07        	addi	a5, a5, 0x1
   1c992: 85 05        	addi	a1, a1, 0x1
   1c994: a3 8f e7 fe  	sb	a4, -0x1(a5)
   1c998: 75 fb        	bnez	a4, 0x1c98c <strcpy+0x94>
   1c99a: 82 80        	ret
   1c99c: 2a 86        	mv	a2, a0
   1c99e: 55 b7        	j	0x1c942 <strcpy+0x4a>
   1c9a0: a3 03 06 00  	sb	zero, 0x7(a2)
   1c9a4: 82 80        	ret

000000000001c9a6 <strcmp>:
   1c9a6: 33 67 b5 00  	or	a4, a0, a1
   1c9aa: fd 53        	li	t2, -0x1
   1c9ac: 1d 8b        	andi	a4, a4, 0x7
   1c9ae: 4d eb        	bnez	a4, 0x1ca60 <strcmp+0xba>
   1c9b0: 97 47 ff ff  	auipc	a5, 0xffff4
   1c9b4: 83 b7 07 61  	ld	a5, 0x610(a5)
   1c9b8: 10 61        	ld	a2, 0x0(a0)
   1c9ba: 94 61        	ld	a3, 0x0(a1)
   1c9bc: b3 72 f6 00  	and	t0, a2, a5
   1c9c0: 33 63 f6 00  	or	t1, a2, a5
   1c9c4: be 92        	add	t0, t0, a5
   1c9c6: b3 e2 62 00  	or	t0, t0, t1
   1c9ca: 63 99 72 0a  	bne	t0, t2, 0x1ca7c <strcmp+0xd6>
   1c9ce: 63 1e d6 02  	bne	a2, a3, 0x1ca0a <strcmp+0x64>
   1c9d2: 10 65        	ld	a2, 0x8(a0)
   1c9d4: 94 65        	ld	a3, 0x8(a1)
   1c9d6: b3 72 f6 00  	and	t0, a2, a5
   1c9da: 33 63 f6 00  	or	t1, a2, a5
   1c9de: be 92        	add	t0, t0, a5
   1c9e0: b3 e2 62 00  	or	t0, t0, t1
   1c9e4: 63 9a 72 08  	bne	t0, t2, 0x1ca78 <strcmp+0xd2>
   1c9e8: 63 11 d6 02  	bne	a2, a3, 0x1ca0a <strcmp+0x64>
   1c9ec: 10 69        	ld	a2, 0x10(a0)
   1c9ee: 94 69        	ld	a3, 0x10(a1)
   1c9f0: b3 72 f6 00  	and	t0, a2, a5
   1c9f4: 33 63 f6 00  	or	t1, a2, a5
   1c9f8: be 92        	add	t0, t0, a5
   1c9fa: b3 e2 62 00  	or	t0, t0, t1
   1c9fe: 63 93 72 08  	bne	t0, t2, 0x1ca84 <strcmp+0xde>
   1ca02: 61 05        	addi	a0, a0, 0x18
   1ca04: e1 05        	addi	a1, a1, 0x18
   1ca06: e3 09 d6 fa  	beq	a2, a3, 0x1c9b8 <strcmp+0x12>
   1ca0a: 13 17 06 03  	slli	a4, a2, 0x30
   1ca0e: 93 97 06 03  	slli	a5, a3, 0x30
   1ca12: 63 18 f7 02  	bne	a4, a5, 0x1ca42 <strcmp+0x9c>
   1ca16: 13 17 06 02  	slli	a4, a2, 0x20
   1ca1a: 93 97 06 02  	slli	a5, a3, 0x20
   1ca1e: 63 12 f7 02  	bne	a4, a5, 0x1ca42 <strcmp+0x9c>
   1ca22: 13 17 06 01  	slli	a4, a2, 0x10
   1ca26: 93 97 06 01  	slli	a5, a3, 0x10
   1ca2a: 63 1c f7 00  	bne	a4, a5, 0x1ca42 <strcmp+0x9c>
   1ca2e: 13 57 06 03  	srli	a4, a2, 0x30
   1ca32: 93 d7 06 03  	srli	a5, a3, 0x30
   1ca36: 33 05 f7 40  	sub	a0, a4, a5
   1ca3a: 93 75 f5 0f  	andi	a1, a0, 0xff
   1ca3e: 91 e9        	bnez	a1, 0x1ca52 <strcmp+0xac>
   1ca40: 82 80        	ret
   1ca42: 41 93        	srli	a4, a4, 0x30
   1ca44: c1 93        	srli	a5, a5, 0x30
   1ca46: 33 05 f7 40  	sub	a0, a4, a5
   1ca4a: 93 75 f5 0f  	andi	a1, a0, 0xff
   1ca4e: 91 e1        	bnez	a1, 0x1ca52 <strcmp+0xac>
   1ca50: 82 80        	ret
   1ca52: 13 77 f7 0f  	andi	a4, a4, 0xff
   1ca56: 93 f7 f7 0f  	andi	a5, a5, 0xff
   1ca5a: 33 05 f7 40  	sub	a0, a4, a5
   1ca5e: 82 80        	ret
   1ca60: 03 46 05 00  	lbu	a2, 0x0(a0)
   1ca64: 83 c6 05 00  	lbu	a3, 0x0(a1)
   1ca68: 05 05        	addi	a0, a0, 0x1
   1ca6a: 85 05        	addi	a1, a1, 0x1
   1ca6c: 63 13 d6 00  	bne	a2, a3, 0x1ca72 <strcmp+0xcc>
   1ca70: 65 fa        	bnez	a2, 0x1ca60 <strcmp+0xba>
   1ca72: 33 05 d6 40  	sub	a0, a2, a3
   1ca76: 82 80        	ret
   1ca78: 21 05        	addi	a0, a0, 0x8
   1ca7a: a1 05        	addi	a1, a1, 0x8
   1ca7c: e3 12 d6 fe  	bne	a2, a3, 0x1ca60 <strcmp+0xba>
   1ca80: 01 45        	li	a0, 0x0
   1ca82: 82 80        	ret
   1ca84: 41 05        	addi	a0, a0, 0x10
   1ca86: c1 05        	addi	a1, a1, 0x10
   1ca88: e3 1c d6 fc  	bne	a2, a3, 0x1ca60 <strcmp+0xba>
   1ca8c: 01 45        	li	a0, 0x0
   1ca8e: 82 80        	ret

000000000001ca90 <frexp>:
   1ca90: d3 07 05 e2  	fmv.x.d	a5, fa0
   1ca94: 37 06 00 80  	lui	a2, 0x80000
   1ca98: 13 46 f6 ff  	not	a2, a2
   1ca9c: 93 d6 07 42  	srai	a3, a5, 0x20
   1caa0: 33 f7 c6 00  	and	a4, a3, a2
   1caa4: 23 20 05 00  	sw	zero, 0x0(a0)
   1caa8: b7 05 f0 7f  	lui	a1, 0x7ff00
   1caac: 63 70 b7 04  	bgeu	a4, a1, 0x1caec <frexp+0x5c>
   1cab0: b3 65 f7 00  	or	a1, a4, a5
   1cab4: 81 25        	sext.w	a1, a1
   1cab6: 9d c9        	beqz	a1, 0x1caec <frexp+0x5c>
   1cab8: 93 d5 46 01  	srli	a1, a3, 0x14
   1cabc: 93 f5 f5 7f  	andi	a1, a1, 0x7ff
   1cac0: 8d c9        	beqz	a1, 0x1caf2 <frexp+0x62>
   1cac2: 81 26        	sext.w	a3, a3
   1cac4: 01 27        	sext.w	a4, a4
   1cac6: 81 45        	li	a1, 0x0
   1cac8: 37 06 10 80  	lui	a2, 0x80100
   1cacc: 7d 16        	addi	a2, a2, -0x1
   1cace: f1 8e        	and	a3, a3, a2
   1cad0: 37 06 e0 3f  	lui	a2, 0x3fe00
   1cad4: d1 8e        	or	a3, a3, a2
   1cad6: 1b 57 47 41  	sraiw	a4, a4, 0x14
   1cada: 7d 56        	li	a2, -0x1
   1cadc: 1b 07 27 c0  	addiw	a4, a4, -0x3fe
   1cae0: 01 92        	srli	a2, a2, 0x20
   1cae2: 2d 9f        	addw	a4, a4, a1
   1cae4: 82 16        	slli	a3, a3, 0x20
   1cae6: f1 8f        	and	a5, a5, a2
   1cae8: 18 c1        	sw	a4, 0x0(a0)
   1caea: d5 8f        	or	a5, a5, a3
   1caec: 53 85 07 f2  	fmv.d.x	fa0, a5
   1caf0: 82 80        	ret
   1caf2: 17 47 ff ff  	auipc	a4, 0xffff4
   1caf6: 87 37 67 50  	fld	fa5, 0x506(a4)
   1cafa: d3 77 f5 12  	fmul.d	fa5, fa0, fa5
   1cafe: 93 05 a0 fc  	li	a1, -0x36
   1cb02: d3 87 07 e2  	fmv.x.d	a5, fa5
   1cb06: 13 d7 07 42  	srai	a4, a5, 0x20
   1cb0a: ba 86        	mv	a3, a4
   1cb0c: 71 8f        	and	a4, a4, a2
   1cb0e: 6d bf        	j	0x1cac8 <frexp+0x38>

000000000001cb10 <_close>:
   1cb10: 41 11        	addi	sp, sp, -0x10
   1cb12: 06 e4        	sd	ra, 0x8(sp)
   1cb14: 22 e0        	sd	s0, 0x0(sp)
   1cb16: 93 08 90 03  	li	a7, 0x39
   1cb1a: 73 00 00 00  	ecall
   1cb1e: 2a 84        	mv	s0, a0
   1cb20: 63 47 05 00  	bltz	a0, 0x1cb2e <_close+0x1e>
   1cb24: 01 25        	sext.w	a0, a0
   1cb26: a2 60        	ld	ra, 0x8(sp)
   1cb28: 02 64        	ld	s0, 0x0(sp)
   1cb2a: 41 01        	addi	sp, sp, 0x10
   1cb2c: 82 80        	ret
   1cb2e: ef f0 3f 9a  	jal	0x1c4d0 <__errno>
   1cb32: 3b 04 80 40  	negw	s0, s0
   1cb36: 00 c1        	sw	s0, 0x0(a0)
   1cb38: 7d 55        	li	a0, -0x1
   1cb3a: f5 b7        	j	0x1cb26 <_close+0x16>

000000000001cb3c <_exit>:
   1cb3c: 93 08 d0 05  	li	a7, 0x5d
   1cb40: 73 00 00 00  	ecall
   1cb44: 63 43 05 00  	bltz	a0, 0x1cb4a <_exit+0xe>
   1cb48: 01 a0        	j	0x1cb48 <_exit+0xc>
   1cb4a: 41 11        	addi	sp, sp, -0x10
   1cb4c: 22 e0        	sd	s0, 0x0(sp)
   1cb4e: 2a 84        	mv	s0, a0
   1cb50: 06 e4        	sd	ra, 0x8(sp)
   1cb52: 3b 04 80 40  	negw	s0, s0
   1cb56: ef f0 bf 97  	jal	0x1c4d0 <__errno>
   1cb5a: 00 c1        	sw	s0, 0x0(a0)
   1cb5c: 01 a0        	j	0x1cb5c <_exit+0x20>

000000000001cb5e <_fstat>:
   1cb5e: 35 71        	addi	sp, sp, -0xa0
   1cb60: 26 e5        	sd	s1, 0x88(sp)
   1cb62: 06 ed        	sd	ra, 0x98(sp)
   1cb64: ae 84        	mv	s1, a1
   1cb66: 22 e9        	sd	s0, 0x90(sp)
   1cb68: 93 08 00 05  	li	a7, 0x50
   1cb6c: 8a 85        	mv	a1, sp
   1cb6e: 73 00 00 00  	ecall
   1cb72: 2a 84        	mv	s0, a0
   1cb74: 63 4e 05 00  	bltz	a0, 0x1cb90 <_fstat+0x32>
   1cb78: 1b 04 05 00  	sext.w	s0, a0
   1cb7c: 26 85        	mv	a0, s1
   1cb7e: 8a 85        	mv	a1, sp
   1cb80: ef 00 e0 01  	jal	0x1cb9e <_conv_stat>
   1cb84: ea 60        	ld	ra, 0x98(sp)
   1cb86: 22 85        	mv	a0, s0
   1cb88: 4a 64        	ld	s0, 0x90(sp)
   1cb8a: aa 64        	ld	s1, 0x88(sp)
   1cb8c: 0d 61        	addi	sp, sp, 0xa0
   1cb8e: 82 80        	ret
   1cb90: 3b 04 80 40  	negw	s0, s0
   1cb94: ef f0 df 93  	jal	0x1c4d0 <__errno>
   1cb98: 00 c1        	sw	s0, 0x0(a0)
   1cb9a: 7d 54        	li	s0, -0x1
   1cb9c: c5 b7        	j	0x1cb7c <_fstat+0x1e>

000000000001cb9e <_conv_stat>:
   1cb9e: 03 d7 85 01  	lhu	a4, 0x18(a1)
   1cba2: 83 d7 45 01  	lhu	a5, 0x14(a1)
   1cba6: d0 4d        	lw	a2, 0x1c(a1)
   1cba8: 94 71        	ld	a3, 0x20(a1)
   1cbaa: 03 b3 05 00  	ld	t1, 0x0(a1)
   1cbae: 83 b8 85 00  	ld	a7, 0x8(a1)
   1cbb2: 03 a8 05 01  	lw	a6, 0x10(a1)
   1cbb6: 1b 17 07 01  	slliw	a4, a4, 0x10
   1cbba: d9 8f        	or	a5, a5, a4
   1cbbc: 23 16 c5 00  	sh	a2, 0xc(a0)
   1cbc0: 23 17 d5 00  	sh	a3, 0xe(a0)
   1cbc4: 23 10 65 00  	sh	t1, 0x0(a0)
   1cbc8: 23 11 15 01  	sh	a7, 0x2(a0)
   1cbcc: 23 22 05 01  	sw	a6, 0x4(a0)
   1cbd0: 1c c5        	sw	a5, 0x8(a0)
   1cbd2: 98 79        	ld	a4, 0x30(a1)
   1cbd4: bc 65        	ld	a5, 0x48(a1)
   1cbd6: b0 61        	ld	a2, 0x40(a1)
   1cbd8: 94 5d        	lw	a3, 0x38(a1)
   1cbda: 18 e9        	sd	a4, 0x10(a0)
   1cbdc: 1c ed        	sd	a5, 0x18(a0)
   1cbde: b8 6d        	ld	a4, 0x58(a1)
   1cbe0: bc 75        	ld	a5, 0x68(a1)
   1cbe2: 30 e9        	sd	a2, 0x50(a0)
   1cbe4: 34 e5        	sd	a3, 0x48(a0)
   1cbe6: 18 f5        	sd	a4, 0x28(a0)
   1cbe8: 1c fd        	sd	a5, 0x38(a0)
   1cbea: 82 80        	ret

000000000001cbec <_getpid>:
   1cbec: 05 45        	li	a0, 0x1
   1cbee: 82 80        	ret

000000000001cbf0 <_isatty>:
   1cbf0: 19 71        	addi	sp, sp, -0x80
   1cbf2: 2c 00        	addi	a1, sp, 0x8
   1cbf4: 86 fc        	sd	ra, 0x78(sp)
   1cbf6: ef f0 9f f6  	jal	0x1cb5e <_fstat>
   1cbfa: fd 57        	li	a5, -0x1
   1cbfc: 63 09 f5 00  	beq	a0, a5, 0x1cc0e <_isatty+0x1e>
   1cc00: 32 45        	lw	a0, 0xc(sp)
   1cc02: e6 70        	ld	ra, 0x78(sp)
   1cc04: 1b 55 d5 40  	sraiw	a0, a0, 0xd
   1cc08: 05 89        	andi	a0, a0, 0x1
   1cc0a: 09 61        	addi	sp, sp, 0x80
   1cc0c: 82 80        	ret
   1cc0e: e6 70        	ld	ra, 0x78(sp)
   1cc10: 01 45        	li	a0, 0x0
   1cc12: 09 61        	addi	sp, sp, 0x80
   1cc14: 82 80        	ret

000000000001cc16 <_kill>:
   1cc16: 41 11        	addi	sp, sp, -0x10
   1cc18: 06 e4        	sd	ra, 0x8(sp)
   1cc1a: ef f0 7f 8b  	jal	0x1c4d0 <__errno>
   1cc1e: a2 60        	ld	ra, 0x8(sp)
   1cc20: d9 47        	li	a5, 0x16
   1cc22: 1c c1        	sw	a5, 0x0(a0)
   1cc24: 7d 55        	li	a0, -0x1
   1cc26: 41 01        	addi	sp, sp, 0x10
   1cc28: 82 80        	ret

000000000001cc2a <_lseek>:
   1cc2a: 41 11        	addi	sp, sp, -0x10
   1cc2c: 06 e4        	sd	ra, 0x8(sp)
   1cc2e: 22 e0        	sd	s0, 0x0(sp)
   1cc30: 93 08 e0 03  	li	a7, 0x3e
   1cc34: 73 00 00 00  	ecall
   1cc38: 2a 84        	mv	s0, a0
   1cc3a: 63 47 05 00  	bltz	a0, 0x1cc48 <_lseek+0x1e>
   1cc3e: a2 60        	ld	ra, 0x8(sp)
   1cc40: 22 85        	mv	a0, s0
   1cc42: 02 64        	ld	s0, 0x0(sp)
   1cc44: 41 01        	addi	sp, sp, 0x10
   1cc46: 82 80        	ret
   1cc48: 3b 04 80 40  	negw	s0, s0
   1cc4c: ef f0 5f 88  	jal	0x1c4d0 <__errno>
   1cc50: 00 c1        	sw	s0, 0x0(a0)
   1cc52: 7d 54        	li	s0, -0x1
   1cc54: ed b7        	j	0x1cc3e <_lseek+0x14>

000000000001cc56 <_read>:
   1cc56: 41 11        	addi	sp, sp, -0x10
   1cc58: 06 e4        	sd	ra, 0x8(sp)
   1cc5a: 22 e0        	sd	s0, 0x0(sp)
   1cc5c: 93 08 f0 03  	li	a7, 0x3f
   1cc60: 73 00 00 00  	ecall
   1cc64: 2a 84        	mv	s0, a0
   1cc66: 63 47 05 00  	bltz	a0, 0x1cc74 <_read+0x1e>
   1cc6a: a2 60        	ld	ra, 0x8(sp)
   1cc6c: 22 85        	mv	a0, s0
   1cc6e: 02 64        	ld	s0, 0x0(sp)
   1cc70: 41 01        	addi	sp, sp, 0x10
   1cc72: 82 80        	ret
   1cc74: 3b 04 80 40  	negw	s0, s0
   1cc78: ef f0 9f 85  	jal	0x1c4d0 <__errno>
   1cc7c: 00 c1        	sw	s0, 0x0(a0)
   1cc7e: 7d 54        	li	s0, -0x1
   1cc80: ed b7        	j	0x1cc6a <_read+0x14>

000000000001cc82 <_sbrk>:
   1cc82: 97 36 00 00  	auipc	a3, 0x3
   1cc86: 93 86 e6 7c  	addi	a3, a3, 0x7ce
   1cc8a: 98 62        	ld	a4, 0x0(a3)
   1cc8c: 41 11        	addi	sp, sp, -0x10
   1cc8e: 06 e4        	sd	ra, 0x8(sp)
   1cc90: aa 87        	mv	a5, a0
   1cc92: 19 eb        	bnez	a4, 0x1cca8 <_sbrk+0x26>
   1cc94: 93 08 60 0d  	li	a7, 0xd6
   1cc98: 01 45        	li	a0, 0x0
   1cc9a: 73 00 00 00  	ecall
   1cc9e: 7d 56        	li	a2, -0x1
   1cca0: 2a 87        	mv	a4, a0
   1cca2: 63 02 c5 02  	beq	a0, a2, 0x1ccc6 <_sbrk+0x44>
   1cca6: 88 e2        	sd	a0, 0x0(a3)
   1cca8: 93 08 60 0d  	li	a7, 0xd6
   1ccac: 33 85 e7 00  	add	a0, a5, a4
   1ccb0: 73 00 00 00  	ecall
   1ccb4: 98 62        	ld	a4, 0x0(a3)
   1ccb6: ba 97        	add	a5, a5, a4
   1ccb8: 63 17 f5 00  	bne	a0, a5, 0x1ccc6 <_sbrk+0x44>
   1ccbc: a2 60        	ld	ra, 0x8(sp)
   1ccbe: 88 e2        	sd	a0, 0x0(a3)
   1ccc0: 3a 85        	mv	a0, a4
   1ccc2: 41 01        	addi	sp, sp, 0x10
   1ccc4: 82 80        	ret
   1ccc6: ef f0 bf 80  	jal	0x1c4d0 <__errno>
   1ccca: a2 60        	ld	ra, 0x8(sp)
   1cccc: b1 47        	li	a5, 0xc
   1ccce: 1c c1        	sw	a5, 0x0(a0)
   1ccd0: 7d 55        	li	a0, -0x1
   1ccd2: 41 01        	addi	sp, sp, 0x10
   1ccd4: 82 80        	ret

000000000001ccd6 <_write>:
   1ccd6: 41 11        	addi	sp, sp, -0x10
   1ccd8: 06 e4        	sd	ra, 0x8(sp)
   1ccda: 22 e0        	sd	s0, 0x0(sp)
   1ccdc: 93 08 00 04  	li	a7, 0x40
   1cce0: 73 00 00 00  	ecall
   1cce4: 2a 84        	mv	s0, a0
   1cce6: 63 47 05 00  	bltz	a0, 0x1ccf4 <_write+0x1e>
   1ccea: a2 60        	ld	ra, 0x8(sp)
   1ccec: 22 85        	mv	a0, s0
   1ccee: 02 64        	ld	s0, 0x0(sp)
   1ccf0: 41 01        	addi	sp, sp, 0x10
   1ccf2: 82 80        	ret
   1ccf4: 3b 04 80 40  	negw	s0, s0
   1ccf8: ef f0 8f fd  	jal	0x1c4d0 <__errno>
   1ccfc: 00 c1        	sw	s0, 0x0(a0)
   1ccfe: 7d 54        	li	s0, -0x1
   1cd00: ed b7        	j	0x1ccea <_write+0x14>

000000000001cd02 <__trunctfdf2>:
   1cd02: f3 26 20 00  	frrm	a3
   1cd06: 21 66        	lui	a2, 0x8
   1cd08: 93 d7 05 03  	srli	a5, a1, 0x30
   1cd0c: 7d 16        	addi	a2, a2, -0x1
   1cd0e: f1 8f        	and	a5, a5, a2
   1cd10: 93 88 17 00  	addi	a7, a5, 0x1
   1cd14: 13 98 05 01  	slli	a6, a1, 0x10
   1cd18: 13 93 18 03  	slli	t1, a7, 0x31
   1cd1c: 13 58 d8 00  	srli	a6, a6, 0xd
   1cd20: 13 57 d5 03  	srli	a4, a0, 0x3d
   1cd24: 13 53 23 03  	srli	t1, t1, 0x32
   1cd28: 33 67 07 01  	or	a4, a4, a6
   1cd2c: 81 26        	sext.w	a3, a3
   1cd2e: fd 91        	srli	a1, a1, 0x3f
   1cd30: 13 18 35 00  	slli	a6, a0, 0x3
   1cd34: 63 06 03 0a  	beqz	t1, 0x1cde0 <__trunctfdf2+0xde>
   1cd38: 71 76        	lui	a2, 0xffffc
   1cd3a: 13 06 06 40  	addi	a2, a2, 0x400
   1cd3e: b2 97        	add	a5, a5, a2
   1cd40: 13 06 e0 7f  	li	a2, 0x7fe
   1cd44: 63 5e f6 00  	bge	a2, a5, 0x1cd60 <__trunctfdf2+0x5e>
   1cd48: ed c6        	beqz	a3, 0x1ce32 <__trunctfdf2+0x130>
   1cd4a: 8d 47        	li	a5, 0x3
   1cd4c: 63 82 f6 0e  	beq	a3, a5, 0x1ce30 <__trunctfdf2+0x12e>
   1cd50: 89 47        	li	a5, 0x2
   1cd52: 63 83 f6 1c  	beq	a3, a5, 0x1cf18 <__trunctfdf2+0x216>
   1cd56: 7d 57        	li	a4, -0x1
   1cd58: 93 07 e0 7f  	li	a5, 0x7fe
   1cd5c: 15 45        	li	a0, 0x5
   1cd5e: 91 a0        	j	0x1cda2 <__trunctfdf2+0xa0>
   1cd60: 63 5b f0 10  	blez	a5, 0x1ce76 <__trunctfdf2+0x174>
   1cd64: 1e 05        	slli	a0, a0, 0x7
   1cd66: 13 58 c8 03  	srli	a6, a6, 0x3c
   1cd6a: 33 35 a0 00  	snez	a0, a0
   1cd6e: 33 65 05 01  	or	a0, a0, a6
   1cd72: 12 07        	slli	a4, a4, 0x4
   1cd74: 13 78 75 00  	andi	a6, a0, 0x7
   1cd78: 49 8f        	or	a4, a4, a0
   1cd7a: 01 46        	li	a2, 0x0
   1cd7c: 01 45        	li	a0, 0x0
   1cd7e: 63 03 08 22  	beqz	a6, 0x1cfa4 <__trunctfdf2+0x2a2>
   1cd82: 09 45        	li	a0, 0x2
   1cd84: 63 8a a6 14  	beq	a3, a0, 0x1ced8 <__trunctfdf2+0x1d6>
   1cd88: 0d 45        	li	a0, 0x3
   1cd8a: 63 8e a6 0a  	beq	a3, a0, 0x1ce46 <__trunctfdf2+0x144>
   1cd8e: 63 9c 06 16  	bnez	a3, 0x1cf06 <__trunctfdf2+0x204>
   1cd92: 13 75 f7 00  	andi	a0, a4, 0xf
   1cd96: 11 48        	li	a6, 0x4
   1cd98: 63 01 05 1d  	beq	a0, a6, 0x1cf5a <__trunctfdf2+0x258>
   1cd9c: 11 07        	addi	a4, a4, 0x4
   1cd9e: 5d e6        	bnez	a2, 0x1ce4c <__trunctfdf2+0x14a>
   1cda0: 05 45        	li	a0, 0x1
   1cda2: 13 16 87 00  	slli	a2, a4, 0x8
   1cda6: 63 5d 06 0a  	bgez	a2, 0x1ce60 <__trunctfdf2+0x15e>
   1cdaa: 85 07        	addi	a5, a5, 0x1
   1cdac: 13 06 f0 7f  	li	a2, 0x7ff
   1cdb0: 63 98 c7 0a  	bne	a5, a2, 0x1ce60 <__trunctfdf2+0x15e>
   1cdb4: 13 65 55 00  	ori	a0, a0, 0x5
   1cdb8: 63 8e 06 12  	beqz	a3, 0x1cef4 <__trunctfdf2+0x1f2>
   1cdbc: 8d 47        	li	a5, 0x3
   1cdbe: 63 89 f6 12  	beq	a3, a5, 0x1cef0 <__trunctfdf2+0x1ee>
   1cdc2: 89 47        	li	a5, 0x2
   1cdc4: 63 81 f6 18  	beq	a3, a5, 0x1cf46 <__trunctfdf2+0x244>
   1cdc8: 13 07 f0 7f  	li	a4, 0x7ff
   1cdcc: 52 17        	slli	a4, a4, 0x34
   1cdce: 93 97 f5 03  	slli	a5, a1, 0x3f
   1cdd2: 7d 17        	addi	a4, a4, -0x1
   1cdd4: d9 8f        	or	a5, a5, a4
   1cdd6: 73 20 15 00  	csrs	fflags, a0
   1cdda: 53 85 07 f2  	fmv.d.x	fa0, a5
   1cdde: 82 80        	ret
   1cde0: 33 68 07 01  	or	a6, a4, a6
   1cde4: 99 ef        	bnez	a5, 0x1ce02 <__trunctfdf2+0x100>
   1cde6: 93 97 f5 03  	slli	a5, a1, 0x3f
   1cdea: e3 08 08 fe  	beqz	a6, 0x1cdda <__trunctfdf2+0xd8>
   1cdee: 89 47        	li	a5, 0x2
   1cdf0: 63 8d f6 18  	beq	a3, a5, 0x1cf8a <__trunctfdf2+0x288>
   1cdf4: 8d 47        	li	a5, 0x3
   1cdf6: 63 8d f6 16  	beq	a3, a5, 0x1cf70 <__trunctfdf2+0x26e>
   1cdfa: 05 47        	li	a4, 0x1
   1cdfc: 81 47        	li	a5, 0x0
   1cdfe: 05 46        	li	a2, 0x1
   1ce00: 79 b7        	j	0x1cd8e <__trunctfdf2+0x8c>
   1ce02: 63 04 08 10  	beqz	a6, 0x1cf0a <__trunctfdf2+0x208>
   1ce06: 01 45        	li	a0, 0x0
   1ce08: 63 97 c7 00  	bne	a5, a2, 0x1ce16 <__trunctfdf2+0x114>
   1ce0c: 49 93        	srli	a4, a4, 0x32
   1ce0e: 13 47 17 00  	xori	a4, a4, 0x1
   1ce12: 13 15 47 00  	slli	a0, a4, 0x4
   1ce16: 05 47        	li	a4, 0x1
   1ce18: 81 45        	li	a1, 0x0
   1ce1a: 93 07 f0 7f  	li	a5, 0x7ff
   1ce1e: 4e 17        	slli	a4, a4, 0x33
   1ce20: d2 17        	slli	a5, a5, 0x34
   1ce22: d9 8f        	or	a5, a5, a4
   1ce24: fe 15        	slli	a1, a1, 0x3f
   1ce26: cd 8f        	or	a5, a5, a1
   1ce28: 5d f5        	bnez	a0, 0x1cdd6 <__trunctfdf2+0xd4>
   1ce2a: 53 85 07 f2  	fmv.d.x	fa0, a5
   1ce2e: 82 80        	ret
   1ce30: ed e5        	bnez	a1, 0x1cf1a <__trunctfdf2+0x218>
   1ce32: 13 07 f0 7f  	li	a4, 0x7ff
   1ce36: 93 97 f5 03  	slli	a5, a1, 0x3f
   1ce3a: 52 17        	slli	a4, a4, 0x34
   1ce3c: d9 8f        	or	a5, a5, a4
   1ce3e: 15 45        	li	a0, 0x5
   1ce40: 73 20 15 00  	csrs	fflags, a0
   1ce44: 59 bf        	j	0x1cdda <__trunctfdf2+0xd8>
   1ce46: d1 e9        	bnez	a1, 0x1ceda <__trunctfdf2+0x1d8>
   1ce48: 21 07        	addi	a4, a4, 0x8
   1ce4a: 39 da        	beqz	a2, 0x1cda0 <__trunctfdf2+0x9e>
   1ce4c: 13 16 87 00  	slli	a2, a4, 0x8
   1ce50: 0d 45        	li	a0, 0x3
   1ce52: 63 56 06 08  	bgez	a2, 0x1cede <__trunctfdf2+0x1dc>
   1ce56: 85 07        	addi	a5, a5, 0x1
   1ce58: 13 06 f0 7f  	li	a2, 0x7ff
   1ce5c: e3 8c c7 f4  	beq	a5, a2, 0x1cdb4 <__trunctfdf2+0xb2>
   1ce60: 26 07        	slli	a4, a4, 0x9
   1ce62: 93 f7 f7 7f  	andi	a5, a5, 0x7ff
   1ce66: 31 83        	srli	a4, a4, 0xc
   1ce68: d2 17        	slli	a5, a5, 0x34
   1ce6a: d9 8f        	or	a5, a5, a4
   1ce6c: fe 15        	slli	a1, a1, 0x3f
   1ce6e: cd 8f        	or	a5, a5, a1
   1ce70: 73 20 15 00  	csrs	fflags, a0
   1ce74: 9d b7        	j	0x1cdda <__trunctfdf2+0xd8>
   1ce76: 13 06 c0 fc  	li	a2, -0x34
   1ce7a: e3 ca c7 f6  	blt	a5, a2, 0x1cdee <__trunctfdf2+0xec>
   1ce7e: 05 45        	li	a0, 0x1
   1ce80: 13 06 d0 03  	li	a2, 0x3d
   1ce84: 4e 15        	slli	a0, a0, 0x33
   1ce86: 1d 8e        	sub	a2, a2, a5
   1ce88: 93 08 f0 03  	li	a7, 0x3f
   1ce8c: 49 8f        	or	a4, a4, a0
   1ce8e: 81 27        	sext.w	a5, a5
   1ce90: 63 da c8 08  	bge	a7, a2, 0x1cf24 <__trunctfdf2+0x222>
   1ce94: 75 55        	li	a0, -0x3
   1ce96: 1d 9d        	subw	a0, a0, a5
   1ce98: 93 08 00 04  	li	a7, 0x40
   1ce9c: 33 55 a7 00  	srl	a0, a4, a0
   1cea0: 63 08 16 01  	beq	a2, a7, 0x1ceb0 <__trunctfdf2+0x1ae>
   1cea4: 9b 87 37 04  	addiw	a5, a5, 0x43
   1cea8: 33 17 f7 00  	sll	a4, a4, a5
   1ceac: 33 68 e8 00  	or	a6, a6, a4
   1ceb0: 33 38 00 01  	snez	a6, a6
   1ceb4: 33 67 a8 00  	or	a4, a6, a0
   1ceb8: 93 17 17 00  	slli	a5, a4, 0x1
   1cebc: 13 f6 77 00  	andi	a2, a5, 0x7
   1cec0: 13 75 77 00  	andi	a0, a4, 0x7
   1cec4: 6d e6        	bnez	a2, 0x1cfae <__trunctfdf2+0x2ac>
   1cec6: 81 47        	li	a5, 0x0
   1cec8: 05 46        	li	a2, 0x1
   1ceca: e3 1c 05 ea  	bnez	a0, 0x1cd82 <__trunctfdf2+0x80>
   1cece: 93 97 f5 03  	slli	a5, a1, 0x3f
   1ced2: 0d 83        	srli	a4, a4, 0x3
   1ced4: d9 8f        	or	a5, a5, a4
   1ced6: 11 b7        	j	0x1cdda <__trunctfdf2+0xd8>
   1ced8: a5 f9        	bnez	a1, 0x1ce48 <__trunctfdf2+0x146>
   1ceda: 05 45        	li	a0, 0x1
   1cedc: 51 d2        	beqz	a2, 0x1ce60 <__trunctfdf2+0x15e>
   1cede: 0d 83        	srli	a4, a4, 0x3
   1cee0: d2 17        	slli	a5, a5, 0x34
   1cee2: d9 8f        	or	a5, a5, a4
   1cee4: fe 15        	slli	a1, a1, 0x3f
   1cee6: cd 8f        	or	a5, a5, a1
   1cee8: 0d 45        	li	a0, 0x3
   1ceea: 73 20 15 00  	csrs	fflags, a0
   1ceee: f5 b5        	j	0x1cdda <__trunctfdf2+0xd8>
   1cef0: e3 9c 05 ec  	bnez	a1, 0x1cdc8 <__trunctfdf2+0xc6>
   1cef4: 13 07 f0 7f  	li	a4, 0x7ff
   1cef8: 93 97 f5 03  	slli	a5, a1, 0x3f
   1cefc: 52 17        	slli	a4, a4, 0x34
   1cefe: d9 8f        	or	a5, a5, a4
   1cf00: 73 20 15 00  	csrs	fflags, a0
   1cf04: d9 bd        	j	0x1cdda <__trunctfdf2+0xd8>
   1cf06: 39 f2        	bnez	a2, 0x1ce4c <__trunctfdf2+0x14a>
   1cf08: 61 bd        	j	0x1cda0 <__trunctfdf2+0x9e>
   1cf0a: 13 07 f0 7f  	li	a4, 0x7ff
   1cf0e: 93 97 f5 03  	slli	a5, a1, 0x3f
   1cf12: 52 17        	slli	a4, a4, 0x34
   1cf14: d9 8f        	or	a5, a5, a4
   1cf16: d1 b5        	j	0x1cdda <__trunctfdf2+0xd8>
   1cf18: 89 fd        	bnez	a1, 0x1ce32 <__trunctfdf2+0x130>
   1cf1a: 7d 57        	li	a4, -0x1
   1cf1c: 93 07 e0 7f  	li	a5, 0x7fe
   1cf20: 15 45        	li	a0, 0x5
   1cf22: 15 bf        	j	0x1ce56 <__trunctfdf2+0x154>
   1cf24: 1b 85 37 00  	addiw	a0, a5, 0x3
   1cf28: 13 06 d0 03  	li	a2, 0x3d
   1cf2c: bb 07 f6 40  	subw	a5, a2, a5
   1cf30: 33 16 a8 00  	sll	a2, a6, a0
   1cf34: b3 57 f8 00  	srl	a5, a6, a5
   1cf38: 33 36 c0 00  	snez	a2, a2
   1cf3c: d1 8f        	or	a5, a5, a2
   1cf3e: 33 17 a7 00  	sll	a4, a4, a0
   1cf42: 5d 8f        	or	a4, a4, a5
   1cf44: 95 bf        	j	0x1ceb8 <__trunctfdf2+0x1b6>
   1cf46: dd f5        	bnez	a1, 0x1cef4 <__trunctfdf2+0x1f2>
   1cf48: 97 47 ff ff  	auipc	a5, 0xffff4
   1cf4c: 83 b7 07 07  	ld	a5, 0x70(a5)
   1cf50: 73 20 15 00  	csrs	fflags, a0
   1cf54: 59 b5        	j	0x1cdda <__trunctfdf2+0xd8>
   1cf56: 81 47        	li	a5, 0x0
   1cf58: 05 46        	li	a2, 0x1
   1cf5a: 0d 83        	srli	a4, a4, 0x3
   1cf5c: d2 17        	slli	a5, a5, 0x34
   1cf5e: 06 06        	slli	a2, a2, 0x1
   1cf60: d9 8f        	or	a5, a5, a4
   1cf62: fe 15        	slli	a1, a1, 0x3f
   1cf64: 13 65 16 00  	ori	a0, a2, 0x1
   1cf68: cd 8f        	or	a5, a5, a1
   1cf6a: 73 20 15 00  	csrs	fflags, a0
   1cf6e: b5 b5        	j	0x1cdda <__trunctfdf2+0xd8>
   1cf70: 05 45        	li	a0, 0x1
   1cf72: 05 47        	li	a4, 0x1
   1cf74: 89 47        	li	a5, 0x2
   1cf76: 91 ed        	bnez	a1, 0x1cf92 <__trunctfdf2+0x290>
   1cf78: 13 86 87 00  	addi	a2, a5, 0x8
   1cf7c: 61 92        	srli	a2, a2, 0x38
   1cf7e: 13 46 16 00  	xori	a2, a2, 0x1
   1cf82: 05 8a        	andi	a2, a2, 0x1
   1cf84: 09 cd        	beqz	a0, 0x1cf9e <__trunctfdf2+0x29c>
   1cf86: 81 47        	li	a5, 0x0
   1cf88: ed bb        	j	0x1cd82 <__trunctfdf2+0x80>
   1cf8a: 05 45        	li	a0, 0x1
   1cf8c: 05 47        	li	a4, 0x1
   1cf8e: 89 47        	li	a5, 0x2
   1cf90: e5 f5        	bnez	a1, 0x1cf78 <__trunctfdf2+0x276>
   1cf92: 81 47        	li	a5, 0x0
   1cf94: 05 46        	li	a2, 0x1
   1cf96: e3 16 05 de  	bnez	a0, 0x1cd82 <__trunctfdf2+0x80>
   1cf9a: 81 47        	li	a5, 0x0
   1cf9c: 89 b7        	j	0x1cede <__trunctfdf2+0x1dc>
   1cf9e: 81 47        	li	a5, 0x0
   1cfa0: 05 45        	li	a0, 0x1
   1cfa2: 65 fe        	bnez	a2, 0x1cf9a <__trunctfdf2+0x298>
   1cfa4: 26 07        	slli	a4, a4, 0x9
   1cfa6: 31 83        	srli	a4, a4, 0xc
   1cfa8: 93 f7 f7 7f  	andi	a5, a5, 0x7ff
   1cfac: 95 bd        	j	0x1ce20 <__trunctfdf2+0x11e>
   1cfae: 09 46        	li	a2, 0x2
   1cfb0: e3 80 c6 fe  	beq	a3, a2, 0x1cf90 <__trunctfdf2+0x28e>
   1cfb4: 0d 46        	li	a2, 0x3
   1cfb6: e3 80 c6 fc  	beq	a3, a2, 0x1cf76 <__trunctfdf2+0x274>
   1cfba: e1 fe        	bnez	a3, 0x1cf92 <__trunctfdf2+0x290>
   1cfbc: 13 f6 f7 00  	andi	a2, a5, 0xf
   1cfc0: 11 48        	li	a6, 0x4
   1cfc2: 63 10 06 03  	bne	a2, a6, 0x1cfe2 <__trunctfdf2+0x2e0>
   1cfc6: 71 d9        	beqz	a0, 0x1cf9a <__trunctfdf2+0x298>
   1cfc8: 93 77 f7 00  	andi	a5, a4, 0xf
   1cfcc: e3 85 c7 f8  	beq	a5, a2, 0x1cf56 <__trunctfdf2+0x254>
   1cfd0: 11 07        	addi	a4, a4, 0x4
   1cfd2: 93 16 87 00  	slli	a3, a4, 0x8
   1cfd6: 0d 45        	li	a0, 0x3
   1cfd8: 85 47        	li	a5, 0x1
   1cfda: e3 c3 06 e8  	bltz	a3, 0x1ce60 <__trunctfdf2+0x15e>
   1cfde: 81 47        	li	a5, 0x0
   1cfe0: fd bd        	j	0x1cede <__trunctfdf2+0x1dc>
   1cfe2: 13 86 47 00  	addi	a2, a5, 0x4
   1cfe6: 61 92        	srli	a2, a2, 0x38
   1cfe8: 13 46 16 00  	xori	a2, a2, 0x1
   1cfec: 05 8a        	andi	a2, a2, 0x1
   1cfee: 59 bf        	j	0x1cf84 <__trunctfdf2+0x282>
